
oscilloscope.elf:     file format elf32-littlearm

Sections:
Idx Name          Size      VMA       LMA       File off  Algn
  0 .isr_vector   0000010c  08000000  08000000  00001000  2**0
                  CONTENTS, ALLOC, LOAD, READONLY, DATA
  1 .text         000060ac  08000110  08000110  00001110  2**4
                  CONTENTS, ALLOC, LOAD, READONLY, CODE
  2 .rodata       00000f6c  080061bc  080061bc  000071bc  2**2
                  CONTENTS, ALLOC, LOAD, READONLY, DATA
  3 .ARM.extab    00000000  08007128  08007128  0000907c  2**0
                  CONTENTS
  4 .ARM          00000000  08007128  08007128  0000907c  2**0
                  CONTENTS
  5 .preinit_array 00000000  08007128  08007128  0000907c  2**0
                  CONTENTS, ALLOC, LOAD, DATA
  6 .init_array   00000004  08007128  08007128  00008128  2**2
                  CONTENTS, ALLOC, LOAD, READONLY, DATA
  7 .fini_array   00000004  0800712c  0800712c  0000812c  2**2
                  CONTENTS, ALLOC, LOAD, READONLY, DATA
  8 .data         0000007c  20000000  08007130  00009000  2**2
                  CONTENTS, ALLOC, LOAD, DATA
  9 .bss          0000213c  2000007c  080071ac  0000907c  2**2
                  ALLOC
 10 ._user_heap_stack 00000600  200021b8  080071ac  000091b8  2**0
                  ALLOC
 11 .ARM.attributes 00000029  00000000  00000000  0000907c  2**0
                  CONTENTS, READONLY
 12 .debug_info   0002ce50  00000000  00000000  000090a5  2**0
                  CONTENTS, READONLY, DEBUGGING, OCTETS
 13 .debug_abbrev 000057e9  00000000  00000000  00035ef5  2**0
                  CONTENTS, READONLY, DEBUGGING, OCTETS
 14 .debug_loclists 00012424  00000000  00000000  0003b6de  2**0
                  CONTENTS, READONLY, DEBUGGING, OCTETS
 15 .debug_aranges 000019d8  00000000  00000000  0004db08  2**3
                  CONTENTS, READONLY, DEBUGGING, OCTETS
 16 .debug_rnglists 0000202c  00000000  00000000  0004f4e0  2**0
                  CONTENTS, READONLY, DEBUGGING, OCTETS
 17 .debug_macro  00004e38  00000000  00000000  0005150c  2**0
                  CONTENTS, READONLY, DEBUGGING, OCTETS
 18 .debug_line   0002b394  00000000  00000000  00056344  2**0
                  CONTENTS, READONLY, DEBUGGING, OCTETS
 19 .debug_str    0009eaae  00000000  00000000  000816d8  2**0
                  CONTENTS, READONLY, DEBUGGING, OCTETS
 20 .comment      00000043  00000000  00000000  00120186  2**0
                  CONTENTS, READONLY
 21 .debug_frame  00004da4  00000000  00000000  001201cc  2**2
                  CONTENTS, READONLY, DEBUGGING, OCTETS
 22 .debug_line_str 0000005f  00000000  00000000  00124f70  2**0
                  CONTENTS, READONLY, DEBUGGING, OCTETS

Disassembly of section .text:

08000110 <__do_global_dtors_aux>:
 8000110:	b510      	push	{r4, lr}
 8000112:	4c05      	ldr	r4, [pc, #20]	@ (8000128 <__do_global_dtors_aux+0x18>)
 8000114:	7823      	ldrb	r3, [r4, #0]
 8000116:	b933      	cbnz	r3, 8000126 <__do_global_dtors_aux+0x16>
 8000118:	4b04      	ldr	r3, [pc, #16]	@ (800012c <__do_global_dtors_aux+0x1c>)
 800011a:	b113      	cbz	r3, 8000122 <__do_global_dtors_aux+0x12>
 800011c:	4804      	ldr	r0, [pc, #16]	@ (8000130 <__do_global_dtors_aux+0x20>)
 800011e:	f3af 8000 	nop.w
 8000122:	2301      	movs	r3, #1
 8000124:	7023      	strb	r3, [r4, #0]
 8000126:	bd10      	pop	{r4, pc}
 8000128:	2000007c 	.word	0x2000007c
 800012c:	00000000 	.word	0x00000000
 8000130:	080061a4 	.word	0x080061a4

08000134 <frame_dummy>:
 8000134:	b508      	push	{r3, lr}
 8000136:	4b03      	ldr	r3, [pc, #12]	@ (8000144 <frame_dummy+0x10>)
 8000138:	b11b      	cbz	r3, 8000142 <frame_dummy+0xe>
 800013a:	4903      	ldr	r1, [pc, #12]	@ (8000148 <frame_dummy+0x14>)
 800013c:	4803      	ldr	r0, [pc, #12]	@ (800014c <frame_dummy+0x18>)
 800013e:	f3af 8000 	nop.w
 8000142:	bd08      	pop	{r3, pc}
 8000144:	00000000 	.word	0x00000000
 8000148:	20000080 	.word	0x20000080
 800014c:	080061a4 	.word	0x080061a4

08000150 <StartRead>:
* @param argument: Not used
* @retval None
*/
/* USER CODE END Header_StartRead */
void StartRead(void *argument)
{
 8000150:	b508      	push	{r3, lr}
  /* USER CODE BEGIN StartRead */
  /* Infinite loop */
  for(;;)
  {
    osDelay(1);
 8000152:	2001      	movs	r0, #1
 8000154:	f003 fd66 	bl	8003c24 <osDelay>
  for(;;)
 8000158:	e7fb      	b.n	8000152 <StartRead+0x2>
	...

0800015c <StartMonitor>:
* @param argument: Not used
* @retval None
*/
/* USER CODE END Header_StartMonitor */
void StartMonitor(void *argument)
{
 800015c:	b508      	push	{r3, lr}
  /* USER CODE BEGIN StartMonitor */
  /* Infinite loop */
  for(;;)
 {

	  HAL_ADC_Start_IT(&hadc1);
 800015e:	4d15      	ldr	r5, [pc, #84]	@ (80001b4 <StartMonitor+0x58>)
	  osDelay(300);
  HAL_ADC_Start_IT(&hadc2);

	  osThreadFlagsWait(0x01, osFlagsWaitAny,10);
	  if (flag_1==1){
 8000160:	4c15      	ldr	r4, [pc, #84]	@ (80001b8 <StartMonitor+0x5c>)
	  HAL_ADC_Start_IT(&hadc1);
 8000162:	4628      	mov	r0, r5
 8000164:	f001 fcb0 	bl	8001ac8 <HAL_ADC_Start_IT>
	  osDelay(300);
 8000168:	f44f 7096 	mov.w	r0, #300	@ 0x12c
 800016c:	f003 fd5a 	bl	8003c24 <osDelay>
  HAL_ADC_Start_IT(&hadc2);
 8000170:	4812      	ldr	r0, [pc, #72]	@ (80001bc <StartMonitor+0x60>)
 8000172:	f001 fca9 	bl	8001ac8 <HAL_ADC_Start_IT>
	  osThreadFlagsWait(0x01, osFlagsWaitAny,10);
 8000176:	220a      	movs	r2, #10
 8000178:	2100      	movs	r1, #0
 800017a:	2001      	movs	r0, #1
 800017c:	f003 fd04 	bl	8003b88 <osThreadFlagsWait>
	  if (flag_1==1){
 8000180:	7823      	ldrb	r3, [r4, #0]
 8000182:	2b01      	cmp	r3, #1
 8000184:	d10d      	bne.n	80001a2 <StartMonitor+0x46>
		  select1++;
 8000186:	4a0e      	ldr	r2, [pc, #56]	@ (80001c0 <StartMonitor+0x64>)
 8000188:	7813      	ldrb	r3, [r2, #0]
 800018a:	3301      	adds	r3, #1
 800018c:	b2db      	uxtb	r3, r3
		  if (select1==5)
 800018e:	2b05      	cmp	r3, #5
			  select1=0;
	  }
	  if (flag_1==2){
	  		  select2++;
	  		  if (select2==2)
	  			  select2=0;
 8000190:	bf08      	it	eq
 8000192:	2300      	moveq	r3, #0
 8000194:	7013      	strb	r3, [r2, #0]
	  	  }


	  flag_1=0;
 8000196:	2300      	movs	r3, #0
    osThreadFlagsClear(0x01);
 8000198:	2001      	movs	r0, #1
	  flag_1=0;
 800019a:	7023      	strb	r3, [r4, #0]
    osThreadFlagsClear(0x01);
 800019c:	f003 fccd 	bl	8003b3a <osThreadFlagsClear>
	  HAL_ADC_Start_IT(&hadc1);
 80001a0:	e7df      	b.n	8000162 <StartMonitor+0x6>
	  if (flag_1==2){
 80001a2:	2b02      	cmp	r3, #2
 80001a4:	d1f7      	bne.n	8000196 <StartMonitor+0x3a>
	  		  select2++;
 80001a6:	4a07      	ldr	r2, [pc, #28]	@ (80001c4 <StartMonitor+0x68>)
 80001a8:	7813      	ldrb	r3, [r2, #0]
 80001aa:	3301      	adds	r3, #1
 80001ac:	b2db      	uxtb	r3, r3
	  		  if (select2==2)
 80001ae:	2b02      	cmp	r3, #2
 80001b0:	e7ee      	b.n	8000190 <StartMonitor+0x34>
 80001b2:	bf00      	nop
 80001b4:	200004dc 	.word	0x200004dc
 80001b8:	20000533 	.word	0x20000533
 80001bc:	200004ac 	.word	0x200004ac
 80001c0:	20000539 	.word	0x20000539
 80001c4:	20000538 	.word	0x20000538

080001c8 <start_wave_gen>:
{
 80001c8:	b508      	push	{r3, lr}
	  if (select1==1)
 80001ca:	4c06      	ldr	r4, [pc, #24]	@ (80001e4 <start_wave_gen+0x1c>)
	  set_wave(freq,select1);
 80001cc:	4d06      	ldr	r5, [pc, #24]	@ (80001e8 <start_wave_gen+0x20>)
	    __HAL_TIM_SET_COMPARE(&htim1, TIM_CHANNEL_1, freq);
 80001ce:	4e07      	ldr	r6, [pc, #28]	@ (80001ec <start_wave_gen+0x24>)
	  if (select1==1)
 80001d0:	7823      	ldrb	r3, [r4, #0]
    osDelay(1);
 80001d2:	2001      	movs	r0, #1
	  if (select1==1)
 80001d4:	2b01      	cmp	r3, #1
	  set_wave(freq,select1);
 80001d6:	bf02      	ittt	eq
 80001d8:	682a      	ldreq	r2, [r5, #0]
	    __HAL_TIM_SET_COMPARE(&htim1, TIM_CHANNEL_1, freq);
 80001da:	6833      	ldreq	r3, [r6, #0]
 80001dc:	635a      	streq	r2, [r3, #52]	@ 0x34
    osDelay(1);
 80001de:	f003 fd21 	bl	8003c24 <osDelay>
	  if (select1==1)
 80001e2:	e7f5      	b.n	80001d0 <start_wave_gen+0x8>
 80001e4:	20000539 	.word	0x20000539
 80001e8:	20000534 	.word	0x20000534
 80001ec:	20000410 	.word	0x20000410

080001f0 <set_dynamic_frequency>:
{
 80001f0:	b530      	push	{r4, r5, lr}
    if (target_freq == 0) return;
 80001f2:	b190      	cbz	r0, 800021a <set_dynamic_frequency+0x2a>
    uint32_t total_divider = timer_clock / target_freq;
 80001f4:	4b09      	ldr	r3, [pc, #36]	@ (800021c <set_dynamic_frequency+0x2c>)
     __HAL_TIM_SET_PRESCALER(&htim1, psc);
 80001f6:	4c0a      	ldr	r4, [pc, #40]	@ (8000220 <set_dynamic_frequency+0x30>)
    uint32_t total_divider = timer_clock / target_freq;
 80001f8:	fbb3 f0f0 	udiv	r0, r3, r0
    uint32_t psc = (total_divider - 1) / 65536;
 80001fc:	1e43      	subs	r3, r0, #1
 80001fe:	0c1b      	lsrs	r3, r3, #16
     uint32_t arr = (total_divider / (psc + 1)) - 1;
 8000200:	1c5a      	adds	r2, r3, #1
 8000202:	fbb0 f0f2 	udiv	r0, r0, r2
     __HAL_TIM_SET_PRESCALER(&htim1, psc);
 8000206:	6822      	ldr	r2, [r4, #0]
    uint32_t dynamic_pulse = (duty * (arr + 1)) /100;
 8000208:	4341      	muls	r1, r0
     __HAL_TIM_SET_PRESCALER(&htim1, psc);
 800020a:	6293      	str	r3, [r2, #40]	@ 0x28
    uint32_t dynamic_pulse = (duty * (arr + 1)) /100;
 800020c:	2364      	movs	r3, #100	@ 0x64
 800020e:	fbb1 f1f3 	udiv	r1, r1, r3
     uint32_t arr = (total_divider / (psc + 1)) - 1;
 8000212:	1e45      	subs	r5, r0, #1
    __HAL_TIM_SET_AUTORELOAD(&htim1, arr);
 8000214:	62d5      	str	r5, [r2, #44]	@ 0x2c
 8000216:	60e5      	str	r5, [r4, #12]
    __HAL_TIM_SET_COMPARE(&htim1, TIM_CHANNEL_2, dynamic_pulse);
 8000218:	6391      	str	r1, [r2, #56]	@ 0x38
}
 800021a:	bd30      	pop	{r4, r5, pc}
 800021c:	02dc6c00 	.word	0x02dc6c00
 8000220:	20000410 	.word	0x20000410

08000224 <StartDisplay>:
{
 8000224:	e92d 4ff0 	stmdb	sp!, {r4, r5, r6, r7, r8, r9, sl, fp, lr}
 8000228:	b0a1      	sub	sp, #132	@ 0x84
	ssd1306_Init();
 800022a:	f001 f843 	bl	80012b4 <ssd1306_Init>
	char wave_menu[5][9]={"Sine","Triangle","Square","Noise","Dc"};
 800022e:	4bc7      	ldr	r3, [pc, #796]	@ (800054c <StartDisplay+0x328>)
 8000230:	aa14      	add	r2, sp, #80	@ 0x50
 8000232:	461d      	mov	r5, r3
 8000234:	f103 0628 	add.w	r6, r3, #40	@ 0x28
 8000238:	4614      	mov	r4, r2
 800023a:	6818      	ldr	r0, [r3, #0]
 800023c:	6859      	ldr	r1, [r3, #4]
 800023e:	3308      	adds	r3, #8
 8000240:	c403      	stmia	r4!, {r0, r1}
 8000242:	42b3      	cmp	r3, r6
 8000244:	4622      	mov	r2, r4
 8000246:	d1f7      	bne.n	8000238 <StartDisplay+0x14>
 8000248:	6818      	ldr	r0, [r3, #0]
 800024a:	791b      	ldrb	r3, [r3, #4]
 800024c:	6020      	str	r0, [r4, #0]
 800024e:	7123      	strb	r3, [r4, #4]
	char menu[5][7]={"Waves","oscill.","port","pwm","config"};
 8000250:	4bbf      	ldr	r3, [pc, #764]	@ (8000550 <StartDisplay+0x32c>)
 8000252:	aa0b      	add	r2, sp, #44	@ 0x2c
 8000254:	f103 0620 	add.w	r6, r3, #32
 8000258:	4614      	mov	r4, r2
 800025a:	6818      	ldr	r0, [r3, #0]
 800025c:	6859      	ldr	r1, [r3, #4]
 800025e:	3308      	adds	r3, #8
 8000260:	c403      	stmia	r4!, {r0, r1}
 8000262:	42b3      	cmp	r3, r6
 8000264:	4622      	mov	r2, r4
 8000266:	d1f7      	bne.n	8000258 <StartDisplay+0x34>
	char ffreq[3][4]={"Hz","Khz","Mhz"};
 8000268:	6d28      	ldr	r0, [r5, #80]	@ 0x50
	  int scroll=0,temp=0;
 800026a:	2500      	movs	r5, #0
 800026c:	46ab      	mov	fp, r5
	char menu[5][7]={"Waves","oscill.","port","pwm","config"};
 800026e:	8819      	ldrh	r1, [r3, #0]
 8000270:	789b      	ldrb	r3, [r3, #2]
 8000272:	8021      	strh	r1, [r4, #0]
 8000274:	70a3      	strb	r3, [r4, #2]
	char ffreq[3][4]={"Hz","Khz","Mhz"};
 8000276:	4bb7      	ldr	r3, [pc, #732]	@ (8000554 <StartDisplay+0x330>)
 8000278:	aa05      	add	r2, sp, #20
 800027a:	6859      	ldr	r1, [r3, #4]
	int freq_mul[3]={1,1000,1000000};
 800027c:	330c      	adds	r3, #12
	char ffreq[3][4]={"Hz","Khz","Mhz"};
 800027e:	c203      	stmia	r2!, {r0, r1}
 8000280:	f853 0c04 	ldr.w	r0, [r3, #-4]
	int freq_mul[3]={1,1000,1000000};
 8000284:	ac08      	add	r4, sp, #32
	char ffreq[3][4]={"Hz","Khz","Mhz"};
 8000286:	6010      	str	r0, [r2, #0]
	int freq_mul[3]={1,1000,1000000};
 8000288:	e893 0007 	ldmia.w	r3, {r0, r1, r2}
	char ports[2][2]={"A","B"};
 800028c:	4bb2      	ldr	r3, [pc, #712]	@ (8000558 <StartDisplay+0x334>)
	int freq_mul[3]={1,1000,1000000};
 800028e:	e884 0007 	stmia.w	r4, {r0, r1, r2}
	  if (scroll==4 && select2==1){
 8000292:	4eb2      	ldr	r6, [pc, #712]	@ (800055c <StartDisplay+0x338>)
		  window=5;
 8000294:	4cb2      	ldr	r4, [pc, #712]	@ (8000560 <StartDisplay+0x33c>)
	char ports[2][2]={"A","B"};
 8000296:	9304      	str	r3, [sp, #16]
	  if (scroll==0 && select2==1){
 8000298:	f1bb 0f00 	cmp.w	fp, #0
 800029c:	f040 822c 	bne.w	80006f8 <StartDisplay+0x4d4>
 80002a0:	7833      	ldrb	r3, [r6, #0]
 80002a2:	2b01      	cmp	r3, #1
 80002a4:	d100      	bne.n	80002a8 <StartDisplay+0x84>
		  window=5;
 80002a6:	7023      	strb	r3, [r4, #0]
	  if (ch_assig&&window!=3){
 80002a8:	4bae      	ldr	r3, [pc, #696]	@ (8000564 <StartDisplay+0x340>)
 80002aa:	781a      	ldrb	r2, [r3, #0]
 80002ac:	b152      	cbz	r2, 80002c4 <StartDisplay+0xa0>
 80002ae:	7822      	ldrb	r2, [r4, #0]
 80002b0:	2a03      	cmp	r2, #3
 80002b2:	d007      	beq.n	80002c4 <StartDisplay+0xa0>
	  	  		if (select1==1)
 80002b4:	4aac      	ldr	r2, [pc, #688]	@ (8000568 <StartDisplay+0x344>)
 80002b6:	7812      	ldrb	r2, [r2, #0]
 80002b8:	2a01      	cmp	r2, #1
	  			  channel='B';
 80002ba:	bf0c      	ite	eq
 80002bc:	2142      	moveq	r1, #66	@ 0x42
	  			  channel='A';
 80002be:	2141      	movne	r1, #65	@ 0x41
 80002c0:	4aaa      	ldr	r2, [pc, #680]	@ (800056c <StartDisplay+0x348>)
 80002c2:	7011      	strb	r1, [r2, #0]
	  ch_assig=0;
 80002c4:	2700      	movs	r7, #0
	  duty_cycle=raw_adc_value1*100/(value_max-value_min);//100/(value_max-value_min)*
 80002c6:	2264      	movs	r2, #100	@ 0x64
	  ch_assig=0;
 80002c8:	701f      	strb	r7, [r3, #0]
	  duty_cycle=raw_adc_value1*100/(value_max-value_min);//100/(value_max-value_min)*
 80002ca:	4ba9      	ldr	r3, [pc, #676]	@ (8000570 <StartDisplay+0x34c>)
 80002cc:	49a9      	ldr	r1, [pc, #676]	@ (8000574 <StartDisplay+0x350>)
 80002ce:	681b      	ldr	r3, [r3, #0]
 80002d0:	6809      	ldr	r1, [r1, #0]
 80002d2:	4353      	muls	r3, r2
 80002d4:	4aa8      	ldr	r2, [pc, #672]	@ (8000578 <StartDisplay+0x354>)
 80002d6:	f8df 82a4 	ldr.w	r8, [pc, #676]	@ 800057c <StartDisplay+0x358>
 80002da:	6812      	ldr	r2, [r2, #0]
	  sprintf(freq_text, "%d", freq );
 80002dc:	48a8      	ldr	r0, [pc, #672]	@ (8000580 <StartDisplay+0x35c>)
	  duty_cycle=raw_adc_value1*100/(value_max-value_min);//100/(value_max-value_min)*
 80002de:	1a52      	subs	r2, r2, r1
 80002e0:	fb93 f3f2 	sdiv	r3, r3, r2
	  freq=raw_adc_value2*1000/(fine_max-fine_min);
 80002e4:	f44f 727a 	mov.w	r2, #1000	@ 0x3e8
	  duty_cycle=raw_adc_value1*100/(value_max-value_min);//100/(value_max-value_min)*
 80002e8:	f8c8 3000 	str.w	r3, [r8]
	  freq=raw_adc_value2*1000/(fine_max-fine_min);
 80002ec:	4ba5      	ldr	r3, [pc, #660]	@ (8000584 <StartDisplay+0x360>)
 80002ee:	49a6      	ldr	r1, [pc, #664]	@ (8000588 <StartDisplay+0x364>)
 80002f0:	681b      	ldr	r3, [r3, #0]
 80002f2:	6809      	ldr	r1, [r1, #0]
 80002f4:	4353      	muls	r3, r2
 80002f6:	4aa5      	ldr	r2, [pc, #660]	@ (800058c <StartDisplay+0x368>)
 80002f8:	6812      	ldr	r2, [r2, #0]
 80002fa:	1a52      	subs	r2, r2, r1
 80002fc:	fb93 f3f2 	sdiv	r3, r3, r2
 8000300:	4aa3      	ldr	r2, [pc, #652]	@ (8000590 <StartDisplay+0x36c>)
	  sprintf(freq_text, "%d", freq );
 8000302:	49a4      	ldr	r1, [pc, #656]	@ (8000594 <StartDisplay+0x370>)
	  freq=raw_adc_value2*1000/(fine_max-fine_min);
 8000304:	6013      	str	r3, [r2, #0]
	  sprintf(freq_text, "%d", freq );
 8000306:	6812      	ldr	r2, [r2, #0]
 8000308:	f005 fa46 	bl	8005798 <siprintf>
	  sprintf(duty_cyc, "%d", duty_cycle);//
 800030c:	f8d8 2000 	ldr.w	r2, [r8]
 8000310:	49a0      	ldr	r1, [pc, #640]	@ (8000594 <StartDisplay+0x370>)
 8000312:	48a1      	ldr	r0, [pc, #644]	@ (8000598 <StartDisplay+0x374>)
 8000314:	f005 fa40 	bl	8005798 <siprintf>
	  ssd1306_Fill(Black);
 8000318:	4638      	mov	r0, r7
 800031a:	f000 fe8d 	bl	8001038 <ssd1306_Fill>
		 ssd1306_Line(80, 0, 80, 31, White);
 800031e:	f04f 0801 	mov.w	r8, #1
 8000322:	2250      	movs	r2, #80	@ 0x50
 8000324:	4639      	mov	r1, r7
 8000326:	4610      	mov	r0, r2
 8000328:	231f      	movs	r3, #31
 800032a:	f8cd 8000 	str.w	r8, [sp]
 800032e:	f000 ff39 	bl	80011a4 <ssd1306_Line>
		 ssd1306_Line(20, 0, 20, 31, White);
 8000332:	2214      	movs	r2, #20
 8000334:	4639      	mov	r1, r7
 8000336:	4610      	mov	r0, r2
 8000338:	231f      	movs	r3, #31
 800033a:	f8cd 8000 	str.w	r8, [sp]
 800033e:	f000 ff31 	bl	80011a4 <ssd1306_Line>
		 ssd1306_Line(0, 19, 20, 19, White);
 8000342:	2313      	movs	r3, #19
 8000344:	4638      	mov	r0, r7
 8000346:	4619      	mov	r1, r3
 8000348:	2214      	movs	r2, #20
 800034a:	f8cd 8000 	str.w	r8, [sp]
 800034e:	f000 ff29 	bl	80011a4 <ssd1306_Line>
if (pwm_log){
 8000352:	4b92      	ldr	r3, [pc, #584]	@ (800059c <StartDisplay+0x378>)
 8000354:	4f92      	ldr	r7, [pc, #584]	@ (80005a0 <StartDisplay+0x37c>)
 8000356:	f8d3 9000 	ldr.w	r9, [r3]
 800035a:	f1b9 0f00 	cmp.w	r9, #0
 800035e:	f000 81e4 	beq.w	800072a <StartDisplay+0x506>
	ssd1306_SetCursor(2, 22);
 8000362:	2116      	movs	r1, #22
 8000364:	2002      	movs	r0, #2
 8000366:	f000 ff17 	bl	8001198 <ssd1306_SetCursor>
	  ssd1306_WriteString("pwm",  Font_6x8, White);
 800036a:	e897 000e 	ldmia.w	r7, {r1, r2, r3}
 800036e:	488d      	ldr	r0, [pc, #564]	@ (80005a4 <StartDisplay+0x380>)
 8000370:	f8cd 8000 	str.w	r8, [sp]
		  	ssd1306_WriteString("B",  Font_6x8, Black);
 8000374:	f000 fefa 	bl	800116c <ssd1306_WriteString>
	  if (window==0){
 8000378:	7827      	ldrb	r7, [r4, #0]
 800037a:	2f00      	cmp	r7, #0
 800037c:	d149      	bne.n	8000412 <StartDisplay+0x1ee>
		  scroll=select1;
 800037e:	f8df a1e8 	ldr.w	sl, [pc, #488]	@ 8000568 <StartDisplay+0x344>
	  	  temp=select1;
 8000382:	f04f 0902 	mov.w	r9, #2
		  scroll=select1;
 8000386:	f89a b000 	ldrb.w	fp, [sl]
	  				  ssd1306_WriteString(menu[i+select1-temp],  Font_6x8, White);
 800038a:	f8df 8214 	ldr.w	r8, [pc, #532]	@ 80005a0 <StartDisplay+0x37c>
	  	  temp=select1;
 800038e:	f1bb 0f02 	cmp.w	fp, #2
 8000392:	bf98      	it	ls
 8000394:	465d      	movls	r5, fp
	  				 ssd1306_SetCursor(85, i*10+2);
 8000396:	4649      	mov	r1, r9
 8000398:	2055      	movs	r0, #85	@ 0x55
 800039a:	f000 fefd 	bl	8001198 <ssd1306_SetCursor>
	  				  ssd1306_WriteString(menu[i+select1-temp],  Font_6x8, White);
 800039e:	2301      	movs	r3, #1
 80003a0:	f89a 0000 	ldrb.w	r0, [sl]
 80003a4:	f10d 0c2c 	add.w	ip, sp, #44	@ 0x2c
 80003a8:	4438      	add	r0, r7
 80003aa:	1b40      	subs	r0, r0, r5
 80003ac:	ebc0 00c0 	rsb	r0, r0, r0, lsl #3
 80003b0:	9300      	str	r3, [sp, #0]
 80003b2:	4460      	add	r0, ip
	  	 for(int i=0;i<3;i++){
 80003b4:	3701      	adds	r7, #1
	  				  ssd1306_WriteString(menu[i+select1-temp],  Font_6x8, White);
 80003b6:	e898 000e 	ldmia.w	r8, {r1, r2, r3}
 80003ba:	f000 fed7 	bl	800116c <ssd1306_WriteString>
	  	 for(int i=0;i<3;i++){
 80003be:	f109 090a 	add.w	r9, r9, #10
 80003c2:	2f03      	cmp	r7, #3
 80003c4:	fa5f f989 	uxtb.w	r9, r9
 80003c8:	d1e5      	bne.n	8000396 <StartDisplay+0x172>
	  	 	    	ssd1306_FillRectangle(80, temp*10, 128, (scroll+1)*10, White);
 80003ca:	2201      	movs	r2, #1
 80003cc:	eb05 0785 	add.w	r7, r5, r5, lsl #2
 80003d0:	f10b 0301 	add.w	r3, fp, #1
 80003d4:	007f      	lsls	r7, r7, #1
 80003d6:	eb03 0383 	add.w	r3, r3, r3, lsl #2
 80003da:	b2ff      	uxtb	r7, r7
 80003dc:	005b      	lsls	r3, r3, #1
 80003de:	4639      	mov	r1, r7
 80003e0:	f003 03fe 	and.w	r3, r3, #254	@ 0xfe
 80003e4:	2050      	movs	r0, #80	@ 0x50
 80003e6:	9200      	str	r2, [sp, #0]
 80003e8:	2280      	movs	r2, #128	@ 0x80
 80003ea:	f000 ff21 	bl	8001230 <ssd1306_FillRectangle>
	  		  	  ssd1306_SetCursor(85, temp*10+2);
 80003ee:	1cb9      	adds	r1, r7, #2
 80003f0:	2055      	movs	r0, #85	@ 0x55
 80003f2:	f001 01fe 	and.w	r1, r1, #254	@ 0xfe
 80003f6:	f000 fecf 	bl	8001198 <ssd1306_SetCursor>
	  		  	  ssd1306_WriteString(menu[select1],  Font_6x8, Black);
 80003fa:	2300      	movs	r3, #0
 80003fc:	f89a 0000 	ldrb.w	r0, [sl]
 8000400:	af0b      	add	r7, sp, #44	@ 0x2c
 8000402:	ebc0 00c0 	rsb	r0, r0, r0, lsl #3
 8000406:	9300      	str	r3, [sp, #0]
 8000408:	4438      	add	r0, r7
 800040a:	e898 000e 	ldmia.w	r8, {r1, r2, r3}
 800040e:	f000 fead 	bl	800116c <ssd1306_WriteString>
	  	  if (window==1){
 8000412:	7823      	ldrb	r3, [r4, #0]
 8000414:	2b01      	cmp	r3, #1
 8000416:	f040 8155 	bne.w	80006c4 <StartDisplay+0x4a0>
	  		if (select2==0)
 800041a:	7833      	ldrb	r3, [r6, #0]
 800041c:	b903      	cbnz	r3, 8000420 <StartDisplay+0x1fc>
	  	  window=0;
 800041e:	7023      	strb	r3, [r4, #0]
	  		if (select1<3)
 8000420:	f8df 8144 	ldr.w	r8, [pc, #324]	@ 8000568 <StartDisplay+0x344>
	  	 for(int i=0;i<3;i++){
 8000424:	f04f 0902 	mov.w	r9, #2
	  		if (select1<3)
 8000428:	f898 3000 	ldrb.w	r3, [r8]
	  		for(int i=0;i<3;i++){
 800042c:	f04f 0a00 	mov.w	sl, #0
			  temp=select1;
 8000430:	2b02      	cmp	r3, #2
 8000432:	bf98      	it	ls
 8000434:	461d      	movls	r5, r3
	  					  ssd1306_WriteString(wave_menu[i+select1-temp],  Font_6x8, White);
 8000436:	4f5a      	ldr	r7, [pc, #360]	@ (80005a0 <StartDisplay+0x37c>)
	  					 ssd1306_SetCursor(22, i*10+2);
 8000438:	4649      	mov	r1, r9
 800043a:	2016      	movs	r0, #22
 800043c:	f000 feac 	bl	8001198 <ssd1306_SetCursor>
	  					  ssd1306_WriteString(wave_menu[i+select1-temp],  Font_6x8, White);
 8000440:	2301      	movs	r3, #1
 8000442:	f898 0000 	ldrb.w	r0, [r8]
 8000446:	f10d 0c50 	add.w	ip, sp, #80	@ 0x50
 800044a:	4450      	add	r0, sl
 800044c:	1b40      	subs	r0, r0, r5
 800044e:	eb00 00c0 	add.w	r0, r0, r0, lsl #3
 8000452:	9300      	str	r3, [sp, #0]
 8000454:	4460      	add	r0, ip
	  		for(int i=0;i<3;i++){
 8000456:	f10a 0a01 	add.w	sl, sl, #1
	  					  ssd1306_WriteString(wave_menu[i+select1-temp],  Font_6x8, White);
 800045a:	e897 000e 	ldmia.w	r7, {r1, r2, r3}
 800045e:	f000 fe85 	bl	800116c <ssd1306_WriteString>
	  		for(int i=0;i<3;i++){
 8000462:	f109 090a 	add.w	r9, r9, #10
 8000466:	f1ba 0f03 	cmp.w	sl, #3
 800046a:	fa5f f989 	uxtb.w	r9, r9
 800046e:	d1e3      	bne.n	8000438 <StartDisplay+0x214>
	  				ssd1306_FillRectangle(20, temp*10, 80, (select1+1)*10, White);
 8000470:	2201      	movs	r2, #1
 8000472:	f898 3000 	ldrb.w	r3, [r8]
 8000476:	eb05 0985 	add.w	r9, r5, r5, lsl #2
 800047a:	3301      	adds	r3, #1
 800047c:	ea4f 0949 	mov.w	r9, r9, lsl #1
 8000480:	eb03 0383 	add.w	r3, r3, r3, lsl #2
 8000484:	fa5f f989 	uxtb.w	r9, r9
 8000488:	005b      	lsls	r3, r3, #1
 800048a:	f003 03fe 	and.w	r3, r3, #254	@ 0xfe
 800048e:	4649      	mov	r1, r9
 8000490:	2014      	movs	r0, #20
 8000492:	9200      	str	r2, [sp, #0]
 8000494:	2250      	movs	r2, #80	@ 0x50
 8000496:	f000 fecb 	bl	8001230 <ssd1306_FillRectangle>
	  				ssd1306_SetCursor(22, temp*10+2);
 800049a:	f109 0102 	add.w	r1, r9, #2
 800049e:	2016      	movs	r0, #22
 80004a0:	f001 01fe 	and.w	r1, r1, #254	@ 0xfe
 80004a4:	f000 fe78 	bl	8001198 <ssd1306_SetCursor>
	  				ssd1306_WriteString(wave_menu[select1],  Font_6x8, Black);
 80004a8:	2300      	movs	r3, #0
 80004aa:	f898 0000 	ldrb.w	r0, [r8]
 80004ae:	9300      	str	r3, [sp, #0]
 80004b0:	eb00 00c0 	add.w	r0, r0, r0, lsl #3
 80004b4:	e897 000e 	ldmia.w	r7, {r1, r2, r3}
 80004b8:	af14      	add	r7, sp, #80	@ 0x50
 80004ba:	4438      	add	r0, r7
 80004bc:	f000 fe56 	bl	800116c <ssd1306_WriteString>
	  		if (select1==0)
 80004c0:	f898 3000 	ldrb.w	r3, [r8]
 80004c4:	2b00      	cmp	r3, #0
 80004c6:	f000 8189 	beq.w	80007dc <StartDisplay+0x5b8>
	  		if (select1==1){
 80004ca:	4b27      	ldr	r3, [pc, #156]	@ (8000568 <StartDisplay+0x344>)
 80004cc:	781b      	ldrb	r3, [r3, #0]
 80004ce:	2b01      	cmp	r3, #1
 80004d0:	9303      	str	r3, [sp, #12]
 80004d2:	f040 8092 	bne.w	80005fa <StartDisplay+0x3d6>
		  		int slope=raw_adc_value1*100/(value_max-value_min)-50;
 80004d6:	2264      	movs	r2, #100	@ 0x64
 80004d8:	4b25      	ldr	r3, [pc, #148]	@ (8000570 <StartDisplay+0x34c>)
 80004da:	4926      	ldr	r1, [pc, #152]	@ (8000574 <StartDisplay+0x350>)
 80004dc:	681b      	ldr	r3, [r3, #0]
 80004de:	6809      	ldr	r1, [r1, #0]
 80004e0:	4353      	muls	r3, r2
 80004e2:	4a25      	ldr	r2, [pc, #148]	@ (8000578 <StartDisplay+0x354>)
	  			for (int i=0;i<40;i++){
 80004e4:	2700      	movs	r7, #0
		  		int slope=raw_adc_value1*100/(value_max-value_min)-50;
 80004e6:	6812      	ldr	r2, [r2, #0]
		  		sprintf(slp,"%d.%d",slope/10,temp*slope%10);
 80004e8:	482f      	ldr	r0, [pc, #188]	@ (80005a8 <StartDisplay+0x384>)
		  		int slope=raw_adc_value1*100/(value_max-value_min)-50;
 80004ea:	1a52      	subs	r2, r2, r1
 80004ec:	fb93 f3f2 	sdiv	r3, r3, r2
		  			temp=-1;
 80004f0:	f1b3 0832 	subs.w	r8, r3, #50	@ 0x32
 80004f4:	bf54      	ite	pl
 80004f6:	2301      	movpl	r3, #1
 80004f8:	f04f 33ff 	movmi.w	r3, #4294967295	@ 0xffffffff
		  		sprintf(slp,"%d.%d",slope/10,temp*slope%10);
 80004fc:	220a      	movs	r2, #10
 80004fe:	fb08 f303 	mul.w	r3, r8, r3
 8000502:	fb93 f1f2 	sdiv	r1, r3, r2
 8000506:	fb02 3311 	mls	r3, r2, r1, r3
 800050a:	fb98 f2f2 	sdiv	r2, r8, r2
 800050e:	4927      	ldr	r1, [pc, #156]	@ (80005ac <StartDisplay+0x388>)
 8000510:	f005 f942 	bl	8005798 <siprintf>
	  			int mul=-1;
 8000514:	f04f 3aff 	mov.w	sl, #4294967295	@ 0xffffffff
		  		int j=0;
 8000518:	46b9      	mov	r9, r7
		  		sprintf(slp,"%d.%d",slope/10,temp*slope%10);
 800051a:	4b25      	ldr	r3, [pc, #148]	@ (80005b0 <StartDisplay+0x38c>)
	  				if (i%10==0)
 800051c:	4a25      	ldr	r2, [pc, #148]	@ (80005b4 <StartDisplay+0x390>)
		  		sprintf(slp,"%d.%d",slope/10,temp*slope%10);
 800051e:	437b      	muls	r3, r7
	  				if (i%10==0)
 8000520:	ebb2 0f73 	cmp.w	r2, r3, ror #1
	  					mul=mul*-1;
 8000524:	bf28      	it	cs
 8000526:	f1ca 0a00 	rsbcs	sl, sl, #0
	  				if (mul==-1)
 800052a:	f1ba 3fff 	cmp.w	sl, #4294967295	@ 0xffffffff
	  				ssd1306_SetCursor(85, 1);
 800052e:	f04f 0101 	mov.w	r1, #1
 8000532:	f04f 0055 	mov.w	r0, #85	@ 0x55
	  					j--;
 8000536:	bf0c      	ite	eq
 8000538:	f109 39ff 	addeq.w	r9, r9, #4294967295	@ 0xffffffff
	  				else j++;
 800053c:	f109 0901 	addne.w	r9, r9, #1
	  				ssd1306_SetCursor(85, 1);
 8000540:	f000 fe2a 	bl	8001198 <ssd1306_SetCursor>
	  				ssd1306_WriteString("S=", Font_6x8, White);
 8000544:	9b03      	ldr	r3, [sp, #12]
 8000546:	481c      	ldr	r0, [pc, #112]	@ (80005b8 <StartDisplay+0x394>)
 8000548:	9300      	str	r3, [sp, #0]
 800054a:	e037      	b.n	80005bc <StartDisplay+0x398>
 800054c:	080061bc 	.word	0x080061bc
 8000550:	080061e9 	.word	0x080061e9
 8000554:	0800620c 	.word	0x0800620c
 8000558:	00420041 	.word	0x00420041
 800055c:	20000538 	.word	0x20000538
 8000560:	20000008 	.word	0x20000008
 8000564:	2000050c 	.word	0x2000050c
 8000568:	20000539 	.word	0x20000539
 800056c:	20000000 	.word	0x20000000
 8000570:	20000540 	.word	0x20000540
 8000574:	2000000c 	.word	0x2000000c
 8000578:	20000010 	.word	0x20000010
 800057c:	20000004 	.word	0x20000004
 8000580:	20000529 	.word	0x20000529
 8000584:	2000053c 	.word	0x2000053c
 8000588:	20000014 	.word	0x20000014
 800058c:	20000018 	.word	0x20000018
 8000590:	20000534 	.word	0x20000534
 8000594:	08006232 	.word	0x08006232
 8000598:	20000524 	.word	0x20000524
 800059c:	2000051c 	.word	0x2000051c
 80005a0:	0800633c 	.word	0x0800633c
 80005a4:	08006224 	.word	0x08006224
 80005a8:	20000514 	.word	0x20000514
 80005ac:	0800622f 	.word	0x0800622f
 80005b0:	cccccccd 	.word	0xcccccccd
 80005b4:	19999999 	.word	0x19999999
 80005b8:	08006235 	.word	0x08006235
 80005bc:	4b8e      	ldr	r3, [pc, #568]	@ (80007f8 <StartDisplay+0x5d4>)
 80005be:	cb0e      	ldmia	r3, {r1, r2, r3}
 80005c0:	f000 fdd4 	bl	800116c <ssd1306_WriteString>
	  				ssd1306_SetCursor(99, 1);
 80005c4:	2101      	movs	r1, #1
 80005c6:	2063      	movs	r0, #99	@ 0x63
 80005c8:	f000 fde6 	bl	8001198 <ssd1306_SetCursor>
					ssd1306_WriteString(slp, Font_6x8, White);
 80005cc:	9a03      	ldr	r2, [sp, #12]
 80005ce:	4b8a      	ldr	r3, [pc, #552]	@ (80007f8 <StartDisplay+0x5d4>)
 80005d0:	9200      	str	r2, [sp, #0]
 80005d2:	488a      	ldr	r0, [pc, #552]	@ (80007fc <StartDisplay+0x5d8>)
 80005d4:	cb0e      	ldmia	r3, {r1, r2, r3}
 80005d6:	f000 fdc9 	bl	800116c <ssd1306_WriteString>
 					 ssd1306_DrawPixel(i+85, slope*j/10+20, White);
 80005da:	230a      	movs	r3, #10
 80005dc:	fb08 f109 	mul.w	r1, r8, r9
 80005e0:	fb91 f1f3 	sdiv	r1, r1, r3
 80005e4:	f107 0055 	add.w	r0, r7, #85	@ 0x55
 80005e8:	3114      	adds	r1, #20
 80005ea:	2201      	movs	r2, #1
 80005ec:	b2c9      	uxtb	r1, r1
 80005ee:	b2c0      	uxtb	r0, r0
	  			for (int i=0;i<40;i++){
 80005f0:	3701      	adds	r7, #1
 					 ssd1306_DrawPixel(i+85, slope*j/10+20, White);
 80005f2:	f000 fd47 	bl	8001084 <ssd1306_DrawPixel>
	  			for (int i=0;i<40;i++){
 80005f6:	2f28      	cmp	r7, #40	@ 0x28
 80005f8:	d18f      	bne.n	800051a <StartDisplay+0x2f6>
	  		if (select1==2){
 80005fa:	f8df 9204 	ldr.w	r9, [pc, #516]	@ 8000800 <StartDisplay+0x5dc>
 80005fe:	f899 3000 	ldrb.w	r3, [r9]
 8000602:	2b02      	cmp	r3, #2
 8000604:	d147      	bne.n	8000696 <StartDisplay+0x472>
	  			ssd1306_Line(95, 1, 95, 16, White);
 8000606:	2701      	movs	r7, #1
 8000608:	225f      	movs	r2, #95	@ 0x5f
 800060a:	2310      	movs	r3, #16
 800060c:	4610      	mov	r0, r2
 800060e:	4639      	mov	r1, r7
 8000610:	9700      	str	r7, [sp, #0]
 8000612:	f000 fdc7 	bl	80011a4 <ssd1306_Line>
				ssd1306_Line(125, 1, 125, 16, White);
 8000616:	227d      	movs	r2, #125	@ 0x7d
 8000618:	2310      	movs	r3, #16
 800061a:	4610      	mov	r0, r2
 800061c:	4639      	mov	r1, r7
 800061e:	9700      	str	r7, [sp, #0]
 8000620:	f000 fdc0 	bl	80011a4 <ssd1306_Line>
				ssd1306_Line(110, 1, 110, 16,White);
 8000624:	226e      	movs	r2, #110	@ 0x6e
 8000626:	2310      	movs	r3, #16
 8000628:	4610      	mov	r0, r2
 800062a:	4639      	mov	r1, r7
 800062c:	9700      	str	r7, [sp, #0]
 800062e:	f000 fdb9 	bl	80011a4 <ssd1306_Line>
				ssd1306_Line(95,1,110,1,White);
 8000632:	463b      	mov	r3, r7
 8000634:	226e      	movs	r2, #110	@ 0x6e
 8000636:	4639      	mov	r1, r7
 8000638:	205f      	movs	r0, #95	@ 0x5f
 800063a:	9700      	str	r7, [sp, #0]
 800063c:	f000 fdb2 	bl	80011a4 <ssd1306_Line>
				ssd1306_Line(110,16,125,16,White);
 8000640:	2310      	movs	r3, #16
 8000642:	227d      	movs	r2, #125	@ 0x7d
 8000644:	4619      	mov	r1, r3
 8000646:	206e      	movs	r0, #110	@ 0x6e
				ssd1306_WriteString("F=", Font_6x8, White);
 8000648:	f8df 81ac 	ldr.w	r8, [pc, #428]	@ 80007f8 <StartDisplay+0x5d4>
				ssd1306_Line(110,16,125,16,White);
 800064c:	9700      	str	r7, [sp, #0]
 800064e:	f000 fda9 	bl	80011a4 <ssd1306_Line>
				ssd1306_SetCursor(85, 22);
 8000652:	2116      	movs	r1, #22
 8000654:	2055      	movs	r0, #85	@ 0x55
 8000656:	f000 fd9f 	bl	8001198 <ssd1306_SetCursor>
				ssd1306_WriteString("F=", Font_6x8, White);
 800065a:	e898 000e 	ldmia.w	r8, {r1, r2, r3}
 800065e:	4869      	ldr	r0, [pc, #420]	@ (8000804 <StartDisplay+0x5e0>)
 8000660:	9700      	str	r7, [sp, #0]
 8000662:	f000 fd83 	bl	800116c <ssd1306_WriteString>
				ssd1306_SetCursor(99, 22);
 8000666:	2116      	movs	r1, #22
 8000668:	2063      	movs	r0, #99	@ 0x63
 800066a:	f000 fd95 	bl	8001198 <ssd1306_SetCursor>
				ssd1306_WriteString(freq_text, Font_6x8, White);
 800066e:	e898 000e 	ldmia.w	r8, {r1, r2, r3}
 8000672:	4865      	ldr	r0, [pc, #404]	@ (8000808 <StartDisplay+0x5e4>)
 8000674:	9700      	str	r7, [sp, #0]
 8000676:	f000 fd79 	bl	800116c <ssd1306_WriteString>
		  		set_dynamic_frequency(freq*freq_mul[select1],duty_cycle);
 800067a:	4b64      	ldr	r3, [pc, #400]	@ (800080c <StartDisplay+0x5e8>)
 800067c:	a920      	add	r1, sp, #128	@ 0x80
 800067e:	681a      	ldr	r2, [r3, #0]
 8000680:	f899 3000 	ldrb.w	r3, [r9]
 8000684:	eb01 0383 	add.w	r3, r1, r3, lsl #2
 8000688:	f853 0c60 	ldr.w	r0, [r3, #-96]
 800068c:	4b60      	ldr	r3, [pc, #384]	@ (8000810 <StartDisplay+0x5ec>)
 800068e:	4350      	muls	r0, r2
 8000690:	6819      	ldr	r1, [r3, #0]
 8000692:	f7ff fdad 	bl	80001f0 <set_dynamic_frequency>
	  		if (select1==4){
 8000696:	f899 3000 	ldrb.w	r3, [r9]
 800069a:	2b04      	cmp	r3, #4
 800069c:	d112      	bne.n	80006c4 <StartDisplay+0x4a0>
	  			ssd1306_Line(95, 22, 125, 22, White);
 800069e:	2301      	movs	r3, #1
 80006a0:	9300      	str	r3, [sp, #0]
 80006a2:	2316      	movs	r3, #22
 80006a4:	227d      	movs	r2, #125	@ 0x7d
 80006a6:	4619      	mov	r1, r3
 80006a8:	205f      	movs	r0, #95	@ 0x5f
 80006aa:	f000 fd7b 	bl	80011a4 <ssd1306_Line>
     __HAL_TIM_SET_PRESCALER(&htim1, psc);
 80006ae:	2107      	movs	r1, #7
 80006b0:	4a58      	ldr	r2, [pc, #352]	@ (8000814 <StartDisplay+0x5f0>)
 80006b2:	6813      	ldr	r3, [r2, #0]
 80006b4:	6299      	str	r1, [r3, #40]	@ 0x28
    __HAL_TIM_SET_AUTORELOAD(&htim1, arr);
 80006b6:	f64e 215f 	movw	r1, #59999	@ 0xea5f
 80006ba:	60d1      	str	r1, [r2, #12]
    __HAL_TIM_SET_COMPARE(&htim1, TIM_CHANNEL_2, dynamic_pulse);
 80006bc:	f64e 2260 	movw	r2, #60000	@ 0xea60
    __HAL_TIM_SET_AUTORELOAD(&htim1, arr);
 80006c0:	62d9      	str	r1, [r3, #44]	@ 0x2c
    __HAL_TIM_SET_COMPARE(&htim1, TIM_CHANNEL_2, dynamic_pulse);
 80006c2:	639a      	str	r2, [r3, #56]	@ 0x38
	  	  if (window==2){
 80006c4:	7823      	ldrb	r3, [r4, #0]
 80006c6:	2b02      	cmp	r3, #2
 80006c8:	f040 80b4 	bne.w	8000834 <StartDisplay+0x610>
	  		  window=0;
 80006cc:	2300      	movs	r3, #0
 80006ce:	7023      	strb	r3, [r4, #0]
	  	if (window==5){
 80006d0:	7823      	ldrb	r3, [r4, #0]
 80006d2:	2b05      	cmp	r3, #5
 80006d4:	d10d      	bne.n	80006f2 <StartDisplay+0x4ce>
	  		if (select2==0)
 80006d6:	7833      	ldrb	r3, [r6, #0]
 80006d8:	b903      	cbnz	r3, 80006dc <StartDisplay+0x4b8>
				  window=0;
 80006da:	7023      	strb	r3, [r4, #0]
	  		ssd1306_SetCursor(25,2);
 80006dc:	2102      	movs	r1, #2
 80006de:	2019      	movs	r0, #25
 80006e0:	f000 fd5a 	bl	8001198 <ssd1306_SetCursor>
	  		ssd1306_WriteString("select_reg",  Font_6x8, White);
 80006e4:	2201      	movs	r2, #1
 80006e6:	4b44      	ldr	r3, [pc, #272]	@ (80007f8 <StartDisplay+0x5d4>)
 80006e8:	9200      	str	r2, [sp, #0]
 80006ea:	484b      	ldr	r0, [pc, #300]	@ (8000818 <StartDisplay+0x5f4>)
 80006ec:	cb0e      	ldmia	r3, {r1, r2, r3}
 80006ee:	f000 fd3d 	bl	800116c <ssd1306_WriteString>
 		 ssd1306_UpdateScreen();
 80006f2:	f000 fcad 	bl	8001050 <ssd1306_UpdateScreen>
	  if (scroll==0 && select2==1){
 80006f6:	e5cf      	b.n	8000298 <StartDisplay+0x74>
	  if (scroll==1 && select2==1){
 80006f8:	f1bb 0f01 	cmp.w	fp, #1
 80006fc:	d105      	bne.n	800070a <StartDisplay+0x4e6>
 80006fe:	7833      	ldrb	r3, [r6, #0]
 8000700:	2b01      	cmp	r3, #1
 8000702:	f47f add1 	bne.w	80002a8 <StartDisplay+0x84>
	 	 	  		  window=2;
 8000706:	2302      	movs	r3, #2
 8000708:	e5cd      	b.n	80002a6 <StartDisplay+0x82>
	  if (scroll==2 && select2==1){
 800070a:	f1bb 0f02 	cmp.w	fp, #2
 800070e:	f040 8199 	bne.w	8000a44 <StartDisplay+0x820>
 8000712:	7833      	ldrb	r3, [r6, #0]
 8000714:	2b01      	cmp	r3, #1
 8000716:	f47f adc7 	bne.w	80002a8 <StartDisplay+0x84>
		  window=3;
 800071a:	2303      	movs	r3, #3
 800071c:	e5c3      	b.n	80002a6 <StartDisplay+0x82>
	  if (scroll==3 && select2==1){
 800071e:	7833      	ldrb	r3, [r6, #0]
 8000720:	2b01      	cmp	r3, #1
 8000722:	f47f adc1 	bne.w	80002a8 <StartDisplay+0x84>
		  window=4;
 8000726:	2304      	movs	r3, #4
 8000728:	e5bd      	b.n	80002a6 <StartDisplay+0x82>
	ssd1306_SetCursor(1, 0);
 800072a:	4649      	mov	r1, r9
 800072c:	4640      	mov	r0, r8
 800072e:	f000 fd33 	bl	8001198 <ssd1306_SetCursor>
		 		  ssd1306_WriteChar('A',  Font_6x8, White);
 8000732:	e897 000e 	ldmia.w	r7, {r1, r2, r3}
 8000736:	2041      	movs	r0, #65	@ 0x41
 8000738:	f8cd 8000 	str.w	r8, [sp]
 800073c:	f000 fcba 	bl	80010b4 <ssd1306_WriteChar>
		 		 ssd1306_SetCursor(2, 11);
 8000740:	210b      	movs	r1, #11
 8000742:	2002      	movs	r0, #2
 8000744:	f000 fd28 	bl	8001198 <ssd1306_SetCursor>
				ssd1306_WriteChar('B',  Font_6x8, White);
 8000748:	e897 000e 	ldmia.w	r7, {r1, r2, r3}
 800074c:	2042      	movs	r0, #66	@ 0x42
 800074e:	f8cd 8000 	str.w	r8, [sp]
 8000752:	f000 fcaf 	bl	80010b4 <ssd1306_WriteChar>
		 ssd1306_SetCursor(3, 22);
 8000756:	2116      	movs	r1, #22
 8000758:	2003      	movs	r0, #3
 800075a:	f000 fd1d 	bl	8001198 <ssd1306_SetCursor>
		  ssd1306_WriteString(";)",  Font_7x10, White);
 800075e:	4b2f      	ldr	r3, [pc, #188]	@ (800081c <StartDisplay+0x5f8>)
 8000760:	482f      	ldr	r0, [pc, #188]	@ (8000820 <StartDisplay+0x5fc>)
 8000762:	cb0e      	ldmia	r3, {r1, r2, r3}
 8000764:	f8cd 8000 	str.w	r8, [sp]
 8000768:	f000 fd00 	bl	800116c <ssd1306_WriteString>
	 ssd1306_Line(0, 9, 20, 9, White);
 800076c:	2309      	movs	r3, #9
	 if (channel=='A'){
 800076e:	f8df a0b4 	ldr.w	sl, [pc, #180]	@ 8000824 <StartDisplay+0x600>
	 ssd1306_Line(0, 9, 20, 9, White);
 8000772:	4619      	mov	r1, r3
 8000774:	2214      	movs	r2, #20
 8000776:	4648      	mov	r0, r9
 8000778:	f8cd 8000 	str.w	r8, [sp]
 800077c:	f000 fd12 	bl	80011a4 <ssd1306_Line>
	 if (channel=='A'){
 8000780:	f89a 3000 	ldrb.w	r3, [sl]
 8000784:	2b41      	cmp	r3, #65	@ 0x41
 8000786:	d112      	bne.n	80007ae <StartDisplay+0x58a>
	ssd1306_FillRectangle(0, 0,20,9, White);
 8000788:	2309      	movs	r3, #9
 800078a:	2214      	movs	r2, #20
 800078c:	4649      	mov	r1, r9
 800078e:	4648      	mov	r0, r9
 8000790:	f8cd 8000 	str.w	r8, [sp]
 8000794:	f000 fd4c 	bl	8001230 <ssd1306_FillRectangle>
	ssd1306_SetCursor(1, 0);
 8000798:	4649      	mov	r1, r9
 800079a:	4640      	mov	r0, r8
 800079c:	f000 fcfc 	bl	8001198 <ssd1306_SetCursor>
		  ssd1306_WriteString("A",  Font_6x8, Black);}
 80007a0:	e897 000e 	ldmia.w	r7, {r1, r2, r3}
 80007a4:	4820      	ldr	r0, [pc, #128]	@ (8000828 <StartDisplay+0x604>)
 80007a6:	f8cd 9000 	str.w	r9, [sp]
 80007aa:	f000 fcdf 	bl	800116c <ssd1306_WriteString>
	 if (channel=='B'){
 80007ae:	f89a 3000 	ldrb.w	r3, [sl]
 80007b2:	2b42      	cmp	r3, #66	@ 0x42
 80007b4:	f47f ade0 	bne.w	8000378 <StartDisplay+0x154>
			ssd1306_FillRectangle(0, 9,20,20, White);
 80007b8:	2301      	movs	r3, #1
 80007ba:	9300      	str	r3, [sp, #0]
 80007bc:	2314      	movs	r3, #20
 80007be:	2109      	movs	r1, #9
 80007c0:	461a      	mov	r2, r3
 80007c2:	2000      	movs	r0, #0
 80007c4:	f000 fd34 	bl	8001230 <ssd1306_FillRectangle>
			ssd1306_SetCursor(2, 11);
 80007c8:	210b      	movs	r1, #11
 80007ca:	2002      	movs	r0, #2
 80007cc:	f000 fce4 	bl	8001198 <ssd1306_SetCursor>
		  	ssd1306_WriteString("B",  Font_6x8, Black);
 80007d0:	2200      	movs	r2, #0
 80007d2:	4b09      	ldr	r3, [pc, #36]	@ (80007f8 <StartDisplay+0x5d4>)
 80007d4:	9200      	str	r2, [sp, #0]
 80007d6:	4815      	ldr	r0, [pc, #84]	@ (800082c <StartDisplay+0x608>)
 80007d8:	cb0e      	ldmia	r3, {r1, r2, r3}
 80007da:	e5cb      	b.n	8000374 <StartDisplay+0x150>
	  		{for(int i=85;i<125;i++){
 80007dc:	2755      	movs	r7, #85	@ 0x55
 80007de:	f8df 8050 	ldr.w	r8, [pc, #80]	@ 8000830 <StartDisplay+0x60c>
	  			ssd1306_DrawPixel(i, sine_wave[i-85],White);
 80007e2:	b2f8      	uxtb	r0, r7
 80007e4:	2201      	movs	r2, #1
 80007e6:	f818 1b01 	ldrb.w	r1, [r8], #1
	  		{for(int i=85;i<125;i++){
 80007ea:	3701      	adds	r7, #1
	  			ssd1306_DrawPixel(i, sine_wave[i-85],White);
 80007ec:	f000 fc4a 	bl	8001084 <ssd1306_DrawPixel>
	  		{for(int i=85;i<125;i++){
 80007f0:	2f7d      	cmp	r7, #125	@ 0x7d
 80007f2:	d1f6      	bne.n	80007e2 <StartDisplay+0x5be>
 80007f4:	e669      	b.n	80004ca <StartDisplay+0x2a6>
 80007f6:	bf00      	nop
 80007f8:	0800633c 	.word	0x0800633c
 80007fc:	20000514 	.word	0x20000514
 8000800:	20000539 	.word	0x20000539
 8000804:	08006238 	.word	0x08006238
 8000808:	20000529 	.word	0x20000529
 800080c:	20000534 	.word	0x20000534
 8000810:	20000004 	.word	0x20000004
 8000814:	20000410 	.word	0x20000410
 8000818:	08006248 	.word	0x08006248
 800081c:	08006330 	.word	0x08006330
 8000820:	08006228 	.word	0x08006228
 8000824:	20000000 	.word	0x20000000
 8000828:	0800622b 	.word	0x0800622b
 800082c:	0800622d 	.word	0x0800622d
 8000830:	08006308 	.word	0x08006308
	  	if (window==3){
 8000834:	2b03      	cmp	r3, #3
 8000836:	d154      	bne.n	80008e2 <StartDisplay+0x6be>
				if (select2==0)
 8000838:	7833      	ldrb	r3, [r6, #0]
 800083a:	b903      	cbnz	r3, 800083e <StartDisplay+0x61a>
			  window=0;
 800083c:	7023      	strb	r3, [r4, #0]
				if (select1>1)
 800083e:	4b88      	ldr	r3, [pc, #544]	@ (8000a60 <StartDisplay+0x83c>)
			  ssd1306_WriteString(ports[i],  Font_6x8, White);
 8000840:	f04f 0801 	mov.w	r8, #1
				if (select1>1)
 8000844:	781a      	ldrb	r2, [r3, #0]
			  ssd1306_WriteString(ports[i],  Font_6x8, White);
 8000846:	4f87      	ldr	r7, [pc, #540]	@ (8000a64 <StartDisplay+0x840>)
				if (select1>1)
 8000848:	2a01      	cmp	r2, #1
					select1=0;
 800084a:	bf88      	it	hi
 800084c:	2200      	movhi	r2, #0
			 ssd1306_SetCursor(22, i*10+2);
 800084e:	f04f 0102 	mov.w	r1, #2
 8000852:	f04f 0016 	mov.w	r0, #22
					select1=0;
 8000856:	bf88      	it	hi
 8000858:	701a      	strbhi	r2, [r3, #0]
			 ssd1306_SetCursor(22, i*10+2);
 800085a:	f000 fc9d 	bl	8001198 <ssd1306_SetCursor>
			  ssd1306_WriteString(ports[i],  Font_6x8, White);
 800085e:	e897 000e 	ldmia.w	r7, {r1, r2, r3}
 8000862:	f8cd 8000 	str.w	r8, [sp]
 8000866:	a804      	add	r0, sp, #16
 8000868:	f000 fc80 	bl	800116c <ssd1306_WriteString>
			ssd1306_FillRectangle(20, select1*10, 80, (select1+1)*10, White);
 800086c:	f8df 91f0 	ldr.w	r9, [pc, #496]	@ 8000a60 <StartDisplay+0x83c>
			 ssd1306_SetCursor(22, i*10+2);
 8000870:	210c      	movs	r1, #12
 8000872:	2016      	movs	r0, #22
 8000874:	f000 fc90 	bl	8001198 <ssd1306_SetCursor>
			  ssd1306_WriteString(ports[i],  Font_6x8, White);
 8000878:	e897 000e 	ldmia.w	r7, {r1, r2, r3}
 800087c:	f8cd 8000 	str.w	r8, [sp]
 8000880:	f10d 0012 	add.w	r0, sp, #18
 8000884:	f000 fc72 	bl	800116c <ssd1306_WriteString>
			ssd1306_FillRectangle(20, select1*10, 80, (select1+1)*10, White);
 8000888:	f899 1000 	ldrb.w	r1, [r9]
 800088c:	2250      	movs	r2, #80	@ 0x50
 800088e:	eb01 0181 	add.w	r1, r1, r1, lsl #2
 8000892:	fa01 f108 	lsl.w	r1, r1, r8
 8000896:	b2c9      	uxtb	r1, r1
 8000898:	f101 030a 	add.w	r3, r1, #10
 800089c:	2014      	movs	r0, #20
 800089e:	f003 03fe 	and.w	r3, r3, #254	@ 0xfe
 80008a2:	f8cd 8000 	str.w	r8, [sp]
 80008a6:	f000 fcc3 	bl	8001230 <ssd1306_FillRectangle>
			port=select1;
 80008aa:	f899 1000 	ldrb.w	r1, [r9]
 80008ae:	4b6e      	ldr	r3, [pc, #440]	@ (8000a68 <StartDisplay+0x844>)
			  ssd1306_SetCursor(22, select1*10+2);
 80008b0:	2016      	movs	r0, #22
			port=select1;
 80008b2:	6019      	str	r1, [r3, #0]
			  ssd1306_SetCursor(22, select1*10+2);
 80008b4:	eb01 0181 	add.w	r1, r1, r1, lsl #2
 80008b8:	fa01 f108 	lsl.w	r1, r1, r8
 80008bc:	3102      	adds	r1, #2
 80008be:	f001 01fe 	and.w	r1, r1, #254	@ 0xfe
 80008c2:	f000 fc69 	bl	8001198 <ssd1306_SetCursor>
			  ssd1306_WriteString(ports[select1],  Font_6x8, Black);
 80008c6:	2300      	movs	r3, #0
 80008c8:	f899 0000 	ldrb.w	r0, [r9]
 80008cc:	9300      	str	r3, [sp, #0]
 80008ce:	e897 000e 	ldmia.w	r7, {r1, r2, r3}
 80008d2:	af04      	add	r7, sp, #16
 80008d4:	eb07 0040 	add.w	r0, r7, r0, lsl #1
 80008d8:	f000 fc48 	bl	800116c <ssd1306_WriteString>
			 ch_assig=1;
 80008dc:	4b63      	ldr	r3, [pc, #396]	@ (8000a6c <StartDisplay+0x848>)
 80008de:	f883 8000 	strb.w	r8, [r3]
	  	if (window==4){
 80008e2:	7823      	ldrb	r3, [r4, #0]
 80008e4:	2b04      	cmp	r3, #4
 80008e6:	f47f aef3 	bne.w	80006d0 <StartDisplay+0x4ac>
	  		pwm_log=1;
 80008ea:	2301      	movs	r3, #1
 80008ec:	4a60      	ldr	r2, [pc, #384]	@ (8000a70 <StartDisplay+0x84c>)
 80008ee:	6013      	str	r3, [r2, #0]
	  		if (select2==0){
 80008f0:	7833      	ldrb	r3, [r6, #0]
 80008f2:	b90b      	cbnz	r3, 80008f8 <StartDisplay+0x6d4>
	  			  	  window=0;
 80008f4:	7023      	strb	r3, [r4, #0]
	  			  	  pwm_log=0;
 80008f6:	6013      	str	r3, [r2, #0]
	  			  ssd1306_SetCursor(1,9);
 80008f8:	2109      	movs	r1, #9
 80008fa:	2001      	movs	r0, #1
 80008fc:	f000 fc4c 	bl	8001198 <ssd1306_SetCursor>
				  ssd1306_WriteString(ffreq[select1],  Font_6x8, White);
 8000900:	2301      	movs	r3, #1
 8000902:	f8df 815c 	ldr.w	r8, [pc, #348]	@ 8000a60 <StartDisplay+0x83c>
 8000906:	4f57      	ldr	r7, [pc, #348]	@ (8000a64 <StartDisplay+0x840>)
 8000908:	f898 0000 	ldrb.w	r0, [r8]
 800090c:	f10d 0c14 	add.w	ip, sp, #20
 8000910:	9300      	str	r3, [sp, #0]
 8000912:	eb0c 0080 	add.w	r0, ip, r0, lsl #2
 8000916:	e897 000e 	ldmia.w	r7, {r1, r2, r3}
 800091a:	f000 fc27 	bl	800116c <ssd1306_WriteString>
	  		if (select1==3)
 800091e:	f898 3000 	ldrb.w	r3, [r8]
 8000922:	2b03      	cmp	r3, #3
					select1=0;
 8000924:	bf04      	itt	eq
 8000926:	2300      	moveq	r3, #0
 8000928:	f888 3000 	strbeq.w	r3, [r8]
	  			if (select1==2)
 800092c:	f898 3000 	ldrb.w	r3, [r8]
 8000930:	2b02      	cmp	r3, #2
 8000932:	d105      	bne.n	8000940 <StartDisplay+0x71c>
					if (freq>47)
 8000934:	4a4f      	ldr	r2, [pc, #316]	@ (8000a74 <StartDisplay+0x850>)
 8000936:	6811      	ldr	r1, [r2, #0]
 8000938:	292f      	cmp	r1, #47	@ 0x2f
				freq=47;
 800093a:	bfc4      	itt	gt
 800093c:	212f      	movgt	r1, #47	@ 0x2f
 800093e:	6011      	strgt	r1, [r2, #0]
	  		set_dynamic_frequency(freq*freq_mul[select1],duty_cycle);
 8000940:	a920      	add	r1, sp, #128	@ 0x80
 8000942:	4a4c      	ldr	r2, [pc, #304]	@ (8000a74 <StartDisplay+0x850>)
 8000944:	eb01 0383 	add.w	r3, r1, r3, lsl #2
 8000948:	f8df 912c 	ldr.w	r9, [pc, #300]	@ 8000a78 <StartDisplay+0x854>
 800094c:	6812      	ldr	r2, [r2, #0]
 800094e:	f853 0c60 	ldr.w	r0, [r3, #-96]
 8000952:	f8d9 1000 	ldr.w	r1, [r9]
 8000956:	4350      	muls	r0, r2
	  	ssd1306_Line(25, 5, 25, 20, White);
 8000958:	f04f 0801 	mov.w	r8, #1
	  		set_dynamic_frequency(freq*freq_mul[select1],duty_cycle);
 800095c:	f7ff fc48 	bl	80001f0 <set_dynamic_frequency>
	  	ssd1306_Line(25, 5, 25, 20, White);
 8000960:	2219      	movs	r2, #25
 8000962:	2314      	movs	r3, #20
 8000964:	4610      	mov	r0, r2
 8000966:	2105      	movs	r1, #5
 8000968:	f8cd 8000 	str.w	r8, [sp]
 800096c:	f000 fc1a 	bl	80011a4 <ssd1306_Line>
	  	ssd1306_Line(75, 5, 75, 20, White);
 8000970:	224b      	movs	r2, #75	@ 0x4b
 8000972:	2314      	movs	r3, #20
 8000974:	4610      	mov	r0, r2
 8000976:	2105      	movs	r1, #5
 8000978:	f8cd 8000 	str.w	r8, [sp]
 800097c:	f000 fc12 	bl	80011a4 <ssd1306_Line>
	  	ssd1306_Line(50*duty_cycle/100+25, 5, 50*duty_cycle/100+25, 20,White);
 8000980:	f8d9 2000 	ldr.w	r2, [r9]
 8000984:	2314      	movs	r3, #20
 8000986:	eb02 72d2 	add.w	r2, r2, r2, lsr #31
 800098a:	fa42 f208 	asr.w	r2, r2, r8
 800098e:	3219      	adds	r2, #25
 8000990:	b2d2      	uxtb	r2, r2
 8000992:	4610      	mov	r0, r2
 8000994:	2105      	movs	r1, #5
 8000996:	f8cd 8000 	str.w	r8, [sp]
 800099a:	f000 fc03 	bl	80011a4 <ssd1306_Line>
	  	ssd1306_Line(25,5,50*duty_cycle/100+25,5,White);
 800099e:	2305      	movs	r3, #5
 80009a0:	f8d9 2000 	ldr.w	r2, [r9]
 80009a4:	4619      	mov	r1, r3
 80009a6:	eb02 72d2 	add.w	r2, r2, r2, lsr #31
 80009aa:	fa42 f208 	asr.w	r2, r2, r8
 80009ae:	3219      	adds	r2, #25
 80009b0:	2019      	movs	r0, #25
 80009b2:	f8cd 8000 	str.w	r8, [sp]
 80009b6:	b2d2      	uxtb	r2, r2
 80009b8:	f000 fbf4 	bl	80011a4 <ssd1306_Line>
	  	ssd1306_Line(50*duty_cycle/100+25,20,75,20,White);
 80009bc:	2314      	movs	r3, #20
 80009be:	f8d9 0000 	ldr.w	r0, [r9]
 80009c2:	4619      	mov	r1, r3
 80009c4:	eb00 70d0 	add.w	r0, r0, r0, lsr #31
 80009c8:	fa40 f008 	asr.w	r0, r0, r8
 80009cc:	3019      	adds	r0, #25
 80009ce:	224b      	movs	r2, #75	@ 0x4b
 80009d0:	f8cd 8000 	str.w	r8, [sp]
 80009d4:	b2c0      	uxtb	r0, r0
 80009d6:	f000 fbe5 	bl	80011a4 <ssd1306_Line>
	  	ssd1306_SetCursor(85,1);
 80009da:	4641      	mov	r1, r8
 80009dc:	2055      	movs	r0, #85	@ 0x55
 80009de:	f000 fbdb 	bl	8001198 <ssd1306_SetCursor>
	    ssd1306_WriteString("Freq.=  ",  Font_6x8, White);
 80009e2:	e897 000e 	ldmia.w	r7, {r1, r2, r3}
 80009e6:	f8cd 8000 	str.w	r8, [sp]
 80009ea:	4824      	ldr	r0, [pc, #144]	@ (8000a7c <StartDisplay+0x858>)
 80009ec:	f000 fbbe 	bl	800116c <ssd1306_WriteString>
	  	ssd1306_SetCursor(85,9);
 80009f0:	2109      	movs	r1, #9
 80009f2:	2055      	movs	r0, #85	@ 0x55
 80009f4:	f000 fbd0 	bl	8001198 <ssd1306_SetCursor>
	    ssd1306_WriteString(freq_text,  Font_6x8, White);
 80009f8:	e897 000e 	ldmia.w	r7, {r1, r2, r3}
 80009fc:	f8cd 8000 	str.w	r8, [sp]
 8000a00:	481f      	ldr	r0, [pc, #124]	@ (8000a80 <StartDisplay+0x85c>)
 8000a02:	f000 fbb3 	bl	800116c <ssd1306_WriteString>
	  	ssd1306_Line(80, 17, 128, 17, White);
 8000a06:	2311      	movs	r3, #17
 8000a08:	2280      	movs	r2, #128	@ 0x80
 8000a0a:	4619      	mov	r1, r3
 8000a0c:	2050      	movs	r0, #80	@ 0x50
 8000a0e:	f8cd 8000 	str.w	r8, [sp]
 8000a12:	f000 fbc7 	bl	80011a4 <ssd1306_Line>
	  	ssd1306_SetCursor(85,20);
 8000a16:	2114      	movs	r1, #20
 8000a18:	2055      	movs	r0, #85	@ 0x55
 8000a1a:	f000 fbbd 	bl	8001198 <ssd1306_SetCursor>
	  	ssd1306_WriteString("Dt=",  Font_6x8, White);
 8000a1e:	e897 000e 	ldmia.w	r7, {r1, r2, r3}
 8000a22:	f8cd 8000 	str.w	r8, [sp]
 8000a26:	4817      	ldr	r0, [pc, #92]	@ (8000a84 <StartDisplay+0x860>)
 8000a28:	f000 fba0 	bl	800116c <ssd1306_WriteString>
	  	ssd1306_SetCursor(105,20);
 8000a2c:	2114      	movs	r1, #20
 8000a2e:	2069      	movs	r0, #105	@ 0x69
 8000a30:	f000 fbb2 	bl	8001198 <ssd1306_SetCursor>
	  	ssd1306_WriteString(duty_cyc,  Font_6x8, White);
 8000a34:	e897 000e 	ldmia.w	r7, {r1, r2, r3}
 8000a38:	f8cd 8000 	str.w	r8, [sp]
 8000a3c:	4812      	ldr	r0, [pc, #72]	@ (8000a88 <StartDisplay+0x864>)
 8000a3e:	f000 fb95 	bl	800116c <ssd1306_WriteString>
 8000a42:	e645      	b.n	80006d0 <StartDisplay+0x4ac>
	  if (scroll==3 && select2==1){
 8000a44:	f1bb 0f03 	cmp.w	fp, #3
 8000a48:	f43f ae69 	beq.w	800071e <StartDisplay+0x4fa>
	  if (scroll==4 && select2==1){
 8000a4c:	f1bb 0f04 	cmp.w	fp, #4
 8000a50:	f47f ac2a 	bne.w	80002a8 <StartDisplay+0x84>
 8000a54:	7833      	ldrb	r3, [r6, #0]
 8000a56:	2b01      	cmp	r3, #1
 8000a58:	f47f ac26 	bne.w	80002a8 <StartDisplay+0x84>
		  window=5;
 8000a5c:	2305      	movs	r3, #5
 8000a5e:	e422      	b.n	80002a6 <StartDisplay+0x82>
 8000a60:	20000539 	.word	0x20000539
 8000a64:	0800633c 	.word	0x0800633c
 8000a68:	20000520 	.word	0x20000520
 8000a6c:	2000050c 	.word	0x2000050c
 8000a70:	2000051c 	.word	0x2000051c
 8000a74:	20000534 	.word	0x20000534
 8000a78:	20000004 	.word	0x20000004
 8000a7c:	0800623b 	.word	0x0800623b
 8000a80:	20000529 	.word	0x20000529
 8000a84:	08006244 	.word	0x08006244
 8000a88:	20000524 	.word	0x20000524

08000a8c <HAL_ADC_ConvCpltCallback>:
{
 8000a8c:	b508      	push	{r3, lr}
    if(hadc->Instance == ADC1)
 8000a8e:	4a18      	ldr	r2, [pc, #96]	@ (8000af0 <HAL_ADC_ConvCpltCallback+0x64>)
 8000a90:	6803      	ldr	r3, [r0, #0]
 8000a92:	4293      	cmp	r3, r2
 8000a94:	d119      	bne.n	8000aca <HAL_ADC_ConvCpltCallback+0x3e>
    	raw_adc_value1 = HAL_ADC_GetValue(&hadc1);
 8000a96:	4817      	ldr	r0, [pc, #92]	@ (8000af4 <HAL_ADC_ConvCpltCallback+0x68>)
 8000a98:	f000 fee6 	bl	8001868 <HAL_ADC_GetValue>
 8000a9c:	4b16      	ldr	r3, [pc, #88]	@ (8000af8 <HAL_ADC_ConvCpltCallback+0x6c>)
    	 		          if (value_max<raw_adc_value1)
 8000a9e:	4a17      	ldr	r2, [pc, #92]	@ (8000afc <HAL_ADC_ConvCpltCallback+0x70>)
    	raw_adc_value1 = HAL_ADC_GetValue(&hadc1);
 8000aa0:	6018      	str	r0, [r3, #0]
    	 		          if (value_max<raw_adc_value1)
 8000aa2:	6819      	ldr	r1, [r3, #0]
 8000aa4:	6810      	ldr	r0, [r2, #0]
 8000aa6:	4288      	cmp	r0, r1
    	 		        	 value_max=raw_adc_value1;
 8000aa8:	bfbc      	itt	lt
 8000aaa:	6819      	ldrlt	r1, [r3, #0]
 8000aac:	6011      	strlt	r1, [r2, #0]
    	 		         if (value_min>raw_adc_value1)
 8000aae:	6819      	ldr	r1, [r3, #0]
 8000ab0:	4a13      	ldr	r2, [pc, #76]	@ (8000b00 <HAL_ADC_ConvCpltCallback+0x74>)
			 if (fine_min>raw_adc_value2)
 8000ab2:	6810      	ldr	r0, [r2, #0]
 8000ab4:	4288      	cmp	r0, r1
				 fine_min=raw_adc_value2;
 8000ab6:	bfc4      	itt	gt
 8000ab8:	681b      	ldrgt	r3, [r3, #0]
 8000aba:	6013      	strgt	r3, [r2, #0]
    HAL_GPIO_TogglePin(GPIOC, indi_Pin);
 8000abc:	f44f 5100 	mov.w	r1, #8192	@ 0x2000
}
 8000ac0:	e8bd 4008 	ldmia.w	sp!, {r3, lr}
    HAL_GPIO_TogglePin(GPIOC, indi_Pin);
 8000ac4:	480f      	ldr	r0, [pc, #60]	@ (8000b04 <HAL_ADC_ConvCpltCallback+0x78>)
 8000ac6:	f001 bb08 	b.w	80020da <HAL_GPIO_TogglePin>
    else if (hadc->Instance==ADC2)
 8000aca:	4a0f      	ldr	r2, [pc, #60]	@ (8000b08 <HAL_ADC_ConvCpltCallback+0x7c>)
 8000acc:	4293      	cmp	r3, r2
 8000ace:	d1f5      	bne.n	8000abc <HAL_ADC_ConvCpltCallback+0x30>
    { raw_adc_value2 = HAL_ADC_GetValue(&hadc2);
 8000ad0:	480e      	ldr	r0, [pc, #56]	@ (8000b0c <HAL_ADC_ConvCpltCallback+0x80>)
 8000ad2:	f000 fec9 	bl	8001868 <HAL_ADC_GetValue>
 8000ad6:	4b0e      	ldr	r3, [pc, #56]	@ (8000b10 <HAL_ADC_ConvCpltCallback+0x84>)
	   if (fine_max<raw_adc_value2)
 8000ad8:	4a0e      	ldr	r2, [pc, #56]	@ (8000b14 <HAL_ADC_ConvCpltCallback+0x88>)
    { raw_adc_value2 = HAL_ADC_GetValue(&hadc2);
 8000ada:	6018      	str	r0, [r3, #0]
	   if (fine_max<raw_adc_value2)
 8000adc:	6819      	ldr	r1, [r3, #0]
 8000ade:	6810      	ldr	r0, [r2, #0]
 8000ae0:	4288      	cmp	r0, r1
				 fine_max=raw_adc_value2;
 8000ae2:	bfbc      	itt	lt
 8000ae4:	6819      	ldrlt	r1, [r3, #0]
 8000ae6:	6011      	strlt	r1, [r2, #0]
			 if (fine_min>raw_adc_value2)
 8000ae8:	6819      	ldr	r1, [r3, #0]
 8000aea:	4a0b      	ldr	r2, [pc, #44]	@ (8000b18 <HAL_ADC_ConvCpltCallback+0x8c>)
 8000aec:	e7e1      	b.n	8000ab2 <HAL_ADC_ConvCpltCallback+0x26>
 8000aee:	bf00      	nop
 8000af0:	40012400 	.word	0x40012400
 8000af4:	200004dc 	.word	0x200004dc
 8000af8:	20000540 	.word	0x20000540
 8000afc:	20000010 	.word	0x20000010
 8000b00:	2000000c 	.word	0x2000000c
 8000b04:	40011000 	.word	0x40011000
 8000b08:	40012800 	.word	0x40012800
 8000b0c:	200004ac 	.word	0x200004ac
 8000b10:	2000053c 	.word	0x2000053c
 8000b14:	20000018 	.word	0x20000018
 8000b18:	20000014 	.word	0x20000014

08000b1c <HAL_GPIO_EXTI_Callback>:
	if (select_1==select_1_Pin){
 8000b1c:	2804      	cmp	r0, #4
 8000b1e:	d109      	bne.n	8000b34 <HAL_GPIO_EXTI_Callback+0x18>
flag_1=1;}
 8000b20:	2201      	movs	r2, #1
 8000b22:	4b07      	ldr	r3, [pc, #28]	@ (8000b40 <HAL_GPIO_EXTI_Callback+0x24>)
	flag_1=2;}
 8000b24:	701a      	strb	r2, [r3, #0]
	edit=1;
 8000b26:	2101      	movs	r1, #1
 8000b28:	4b06      	ldr	r3, [pc, #24]	@ (8000b44 <HAL_GPIO_EXTI_Callback+0x28>)
 8000b2a:	6019      	str	r1, [r3, #0]
	osThreadFlagsSet(monitorHandle, 0x01);
 8000b2c:	4b06      	ldr	r3, [pc, #24]	@ (8000b48 <HAL_GPIO_EXTI_Callback+0x2c>)
 8000b2e:	6818      	ldr	r0, [r3, #0]
 8000b30:	f002 bfc9 	b.w	8003ac6 <osThreadFlagsSet>
else if (select_1==select_2_Pin){
 8000b34:	2808      	cmp	r0, #8
 8000b36:	d1f6      	bne.n	8000b26 <HAL_GPIO_EXTI_Callback+0xa>
	flag_1=2;}
 8000b38:	2202      	movs	r2, #2
 8000b3a:	4b01      	ldr	r3, [pc, #4]	@ (8000b40 <HAL_GPIO_EXTI_Callback+0x24>)
 8000b3c:	e7f2      	b.n	8000b24 <HAL_GPIO_EXTI_Callback+0x8>
 8000b3e:	bf00      	nop
 8000b40:	20000533 	.word	0x20000533
 8000b44:	20000510 	.word	0x20000510
 8000b48:	20000098 	.word	0x20000098

08000b4c <SystemClock_Config>:
{
 8000b4c:	b530      	push	{r4, r5, lr}
 8000b4e:	b095      	sub	sp, #84	@ 0x54
  RCC_OscInitTypeDef RCC_OscInitStruct = {0};
 8000b50:	2214      	movs	r2, #20
 8000b52:	2100      	movs	r1, #0
 8000b54:	a80c      	add	r0, sp, #48	@ 0x30
 8000b56:	f004 fe59 	bl	800580c <memset>
  RCC_ClkInitTypeDef RCC_ClkInitStruct = {0};
 8000b5a:	2214      	movs	r2, #20
 8000b5c:	2100      	movs	r1, #0
 8000b5e:	eb0d 0002 	add.w	r0, sp, r2
 8000b62:	f004 fe53 	bl	800580c <memset>
  RCC_PeriphCLKInitTypeDef PeriphClkInit = {0};
 8000b66:	2210      	movs	r2, #16
 8000b68:	2100      	movs	r1, #0
 8000b6a:	a801      	add	r0, sp, #4
 8000b6c:	f004 fe4e 	bl	800580c <memset>
  RCC_OscInitStruct.HSEState = RCC_HSE_ON;
 8000b70:	2401      	movs	r4, #1
 8000b72:	f44f 3380 	mov.w	r3, #65536	@ 0x10000
  RCC_OscInitStruct.PLL.PLLState = RCC_PLL_ON;
 8000b76:	2502      	movs	r5, #2
  RCC_OscInitStruct.HSEState = RCC_HSE_ON;
 8000b78:	e9cd 430a 	strd	r4, r3, [sp, #40]	@ 0x28
  RCC_OscInitStruct.PLL.PLLSource = RCC_PLLSOURCE_HSE;
 8000b7c:	e9cd 5311 	strd	r5, r3, [sp, #68]	@ 0x44
  RCC_OscInitStruct.PLL.PLLMUL = RCC_PLL_MUL6;
 8000b80:	f44f 1380 	mov.w	r3, #1048576	@ 0x100000
  if (HAL_RCC_OscConfig(&RCC_OscInitStruct) != HAL_OK)
 8000b84:	a80a      	add	r0, sp, #40	@ 0x28
  RCC_OscInitStruct.HSIState = RCC_HSI_ON;
 8000b86:	940e      	str	r4, [sp, #56]	@ 0x38
  RCC_OscInitStruct.PLL.PLLMUL = RCC_PLL_MUL6;
 8000b88:	9313      	str	r3, [sp, #76]	@ 0x4c
  if (HAL_RCC_OscConfig(&RCC_OscInitStruct) != HAL_OK)
 8000b8a:	f001 fda1 	bl	80026d0 <HAL_RCC_OscConfig>
 8000b8e:	b108      	cbz	r0, 8000b94 <SystemClock_Config+0x48>
  \details Disables IRQ interrupts by setting the I-bit in the CPSR.
           Can only be executed in Privileged modes.
 */
__STATIC_FORCEINLINE void __disable_irq(void)
{
  __ASM volatile ("cpsid i" : : : "memory");
 8000b90:	b672      	cpsid	i
void Error_Handler(void)
{
  /* USER CODE BEGIN Error_Handler_Debug */
  /* User can add his own implementation to report the HAL error return state */
  __disable_irq();
  while (1)
 8000b92:	e7fe      	b.n	8000b92 <SystemClock_Config+0x46>
  RCC_ClkInitStruct.ClockType = RCC_CLOCKTYPE_HCLK|RCC_CLOCKTYPE_SYSCLK
 8000b94:	230f      	movs	r3, #15
  RCC_ClkInitStruct.SYSCLKSource = RCC_SYSCLKSOURCE_PLLCLK;
 8000b96:	e9cd 3505 	strd	r3, r5, [sp, #20]
  RCC_ClkInitStruct.APB1CLKDivider = RCC_HCLK_DIV2;
 8000b9a:	f44f 6380 	mov.w	r3, #1024	@ 0x400
  RCC_ClkInitStruct.AHBCLKDivider = RCC_SYSCLK_DIV1;
 8000b9e:	9007      	str	r0, [sp, #28]
  RCC_ClkInitStruct.APB2CLKDivider = RCC_HCLK_DIV1;
 8000ba0:	e9cd 3008 	strd	r3, r0, [sp, #32]
  if (HAL_RCC_ClockConfig(&RCC_ClkInitStruct, FLASH_LATENCY_1) != HAL_OK)
 8000ba4:	4621      	mov	r1, r4
 8000ba6:	a805      	add	r0, sp, #20
 8000ba8:	f001 ff54 	bl	8002a54 <HAL_RCC_ClockConfig>
 8000bac:	b108      	cbz	r0, 8000bb2 <SystemClock_Config+0x66>
 8000bae:	b672      	cpsid	i
  while (1)
 8000bb0:	e7fe      	b.n	8000bb0 <SystemClock_Config+0x64>
  PeriphClkInit.PeriphClockSelection = RCC_PERIPHCLK_ADC|RCC_PERIPHCLK_USB;
 8000bb2:	2312      	movs	r3, #18
  PeriphClkInit.UsbClockSelection = RCC_USBCLKSOURCE_PLL;
 8000bb4:	f44f 4100 	mov.w	r1, #32768	@ 0x8000
  PeriphClkInit.PeriphClockSelection = RCC_PERIPHCLK_ADC|RCC_PERIPHCLK_USB;
 8000bb8:	9301      	str	r3, [sp, #4]
  PeriphClkInit.UsbClockSelection = RCC_USBCLKSOURCE_PLL;
 8000bba:	f44f 0380 	mov.w	r3, #4194304	@ 0x400000
  if (HAL_RCCEx_PeriphCLKConfig(&PeriphClkInit) != HAL_OK)
 8000bbe:	a801      	add	r0, sp, #4
  PeriphClkInit.UsbClockSelection = RCC_USBCLKSOURCE_PLL;
 8000bc0:	e9cd 1303 	strd	r1, r3, [sp, #12]
  if (HAL_RCCEx_PeriphCLKConfig(&PeriphClkInit) != HAL_OK)
 8000bc4:	f002 f820 	bl	8002c08 <HAL_RCCEx_PeriphCLKConfig>
 8000bc8:	b108      	cbz	r0, 8000bce <SystemClock_Config+0x82>
 8000bca:	b672      	cpsid	i
  while (1)
 8000bcc:	e7fe      	b.n	8000bcc <SystemClock_Config+0x80>
}
 8000bce:	b015      	add	sp, #84	@ 0x54
 8000bd0:	bd30      	pop	{r4, r5, pc}
	...

08000bd4 <main>:
{
 8000bd4:	b580      	push	{r7, lr}
 8000bd6:	b09a      	sub	sp, #104	@ 0x68
  HAL_Init();
 8000bd8:	f000 fe10 	bl	80017fc <HAL_Init>
  SystemClock_Config();
 8000bdc:	f7ff ffb6 	bl	8000b4c <SystemClock_Config>
  GPIO_InitTypeDef GPIO_InitStruct = {0};
 8000be0:	2210      	movs	r2, #16
 8000be2:	2100      	movs	r1, #0
 8000be4:	a812      	add	r0, sp, #72	@ 0x48
 8000be6:	f004 fe11 	bl	800580c <memset>
  __HAL_RCC_GPIOC_CLK_ENABLE();
 8000bea:	4bac      	ldr	r3, [pc, #688]	@ (8000e9c <main+0x2c8>)
  GPIO_InitStruct.Speed = GPIO_SPEED_FREQ_LOW;
 8000bec:	2400      	movs	r4, #0
  __HAL_RCC_GPIOC_CLK_ENABLE();
 8000bee:	699a      	ldr	r2, [r3, #24]
  GPIO_InitStruct.Speed = GPIO_SPEED_FREQ_LOW;
 8000bf0:	2502      	movs	r5, #2
  GPIO_InitStruct.Mode = GPIO_MODE_OUTPUT_PP;
 8000bf2:	2701      	movs	r7, #1
  __HAL_RCC_GPIOC_CLK_ENABLE();
 8000bf4:	f042 0210 	orr.w	r2, r2, #16
  GPIO_InitStruct.Mode = GPIO_MODE_OUTPUT_PP;
 8000bf8:	f44f 5600 	mov.w	r6, #8192	@ 0x2000
  __HAL_RCC_GPIOC_CLK_ENABLE();
 8000bfc:	619a      	str	r2, [r3, #24]
 8000bfe:	699a      	ldr	r2, [r3, #24]
  HAL_GPIO_WritePin(indi_GPIO_Port, indi_Pin, GPIO_PIN_RESET);
 8000c00:	f44f 5100 	mov.w	r1, #8192	@ 0x2000
  __HAL_RCC_GPIOC_CLK_ENABLE();
 8000c04:	f002 0210 	and.w	r2, r2, #16
 8000c08:	9201      	str	r2, [sp, #4]
 8000c0a:	9a01      	ldr	r2, [sp, #4]
  __HAL_RCC_GPIOD_CLK_ENABLE();
 8000c0c:	699a      	ldr	r2, [r3, #24]
  HAL_GPIO_WritePin(indi_GPIO_Port, indi_Pin, GPIO_PIN_RESET);
 8000c0e:	48a4      	ldr	r0, [pc, #656]	@ (8000ea0 <main+0x2cc>)
  __HAL_RCC_GPIOD_CLK_ENABLE();
 8000c10:	f042 0220 	orr.w	r2, r2, #32
 8000c14:	619a      	str	r2, [r3, #24]
 8000c16:	699a      	ldr	r2, [r3, #24]
 8000c18:	f002 0220 	and.w	r2, r2, #32
 8000c1c:	9202      	str	r2, [sp, #8]
 8000c1e:	9a02      	ldr	r2, [sp, #8]
  __HAL_RCC_GPIOA_CLK_ENABLE();
 8000c20:	699a      	ldr	r2, [r3, #24]
 8000c22:	f042 0204 	orr.w	r2, r2, #4
 8000c26:	619a      	str	r2, [r3, #24]
 8000c28:	699a      	ldr	r2, [r3, #24]
 8000c2a:	f002 0204 	and.w	r2, r2, #4
 8000c2e:	9203      	str	r2, [sp, #12]
 8000c30:	9a03      	ldr	r2, [sp, #12]
  __HAL_RCC_GPIOB_CLK_ENABLE();
 8000c32:	699a      	ldr	r2, [r3, #24]
 8000c34:	f042 0208 	orr.w	r2, r2, #8
 8000c38:	619a      	str	r2, [r3, #24]
 8000c3a:	699b      	ldr	r3, [r3, #24]
  HAL_GPIO_WritePin(indi_GPIO_Port, indi_Pin, GPIO_PIN_RESET);
 8000c3c:	2200      	movs	r2, #0
  __HAL_RCC_GPIOB_CLK_ENABLE();
 8000c3e:	f003 0308 	and.w	r3, r3, #8
 8000c42:	9304      	str	r3, [sp, #16]
 8000c44:	9b04      	ldr	r3, [sp, #16]
  HAL_GPIO_WritePin(indi_GPIO_Port, indi_Pin, GPIO_PIN_RESET);
 8000c46:	f001 fa43 	bl	80020d0 <HAL_GPIO_WritePin>
  HAL_GPIO_WritePin(GPIOB, swdio_Pin|rxd_Pin|txd_Pin, GPIO_PIN_RESET);
 8000c4a:	2200      	movs	r2, #0
 8000c4c:	f44f 4160 	mov.w	r1, #57344	@ 0xe000
 8000c50:	4894      	ldr	r0, [pc, #592]	@ (8000ea4 <main+0x2d0>)
 8000c52:	f001 fa3d 	bl	80020d0 <HAL_GPIO_WritePin>
  HAL_GPIO_Init(indi_GPIO_Port, &GPIO_InitStruct);
 8000c56:	4892      	ldr	r0, [pc, #584]	@ (8000ea0 <main+0x2cc>)
 8000c58:	a912      	add	r1, sp, #72	@ 0x48
  GPIO_InitStruct.Speed = GPIO_SPEED_FREQ_LOW;
 8000c5a:	e9cd 4514 	strd	r4, r5, [sp, #80]	@ 0x50
  GPIO_InitStruct.Mode = GPIO_MODE_OUTPUT_PP;
 8000c5e:	e9cd 6712 	strd	r6, r7, [sp, #72]	@ 0x48
  HAL_GPIO_Init(indi_GPIO_Port, &GPIO_InitStruct);
 8000c62:	f001 f963 	bl	8001f2c <HAL_GPIO_Init>
  GPIO_InitStruct.Mode = GPIO_MODE_IT_FALLING;
 8000c66:	200c      	movs	r0, #12
 8000c68:	4b8f      	ldr	r3, [pc, #572]	@ (8000ea8 <main+0x2d4>)
  HAL_GPIO_Init(GPIOA, &GPIO_InitStruct);
 8000c6a:	a912      	add	r1, sp, #72	@ 0x48
  GPIO_InitStruct.Mode = GPIO_MODE_IT_FALLING;
 8000c6c:	e9cd 0312 	strd	r0, r3, [sp, #72]	@ 0x48
  HAL_GPIO_Init(GPIOA, &GPIO_InitStruct);
 8000c70:	488e      	ldr	r0, [pc, #568]	@ (8000eac <main+0x2d8>)
  GPIO_InitStruct.Pull = GPIO_PULLUP;
 8000c72:	9714      	str	r7, [sp, #80]	@ 0x50
  HAL_GPIO_Init(GPIOA, &GPIO_InitStruct);
 8000c74:	f001 f95a 	bl	8001f2c <HAL_GPIO_Init>
  GPIO_InitStruct.Pin = signal_2_Pin|signal_3_Pin|select_2A7_Pin;
 8000c78:	23b0      	movs	r3, #176	@ 0xb0
  HAL_GPIO_Init(GPIOA, &GPIO_InitStruct);
 8000c7a:	488c      	ldr	r0, [pc, #560]	@ (8000eac <main+0x2d8>)
 8000c7c:	a912      	add	r1, sp, #72	@ 0x48
  GPIO_InitStruct.Mode = GPIO_MODE_INPUT;
 8000c7e:	e9cd 3412 	strd	r3, r4, [sp, #72]	@ 0x48
  GPIO_InitStruct.Pull = GPIO_NOPULL;
 8000c82:	9414      	str	r4, [sp, #80]	@ 0x50
  HAL_GPIO_Init(GPIOA, &GPIO_InitStruct);
 8000c84:	f001 f952 	bl	8001f2c <HAL_GPIO_Init>
  GPIO_InitStruct.Pin = sig_out_3_Pin;
 8000c88:	2340      	movs	r3, #64	@ 0x40
  HAL_GPIO_Init(sig_out_3_GPIO_Port, &GPIO_InitStruct);
 8000c8a:	4888      	ldr	r0, [pc, #544]	@ (8000eac <main+0x2d8>)
 8000c8c:	a912      	add	r1, sp, #72	@ 0x48
  GPIO_InitStruct.Mode = GPIO_MODE_AF_PP;
 8000c8e:	e9cd 3512 	strd	r3, r5, [sp, #72]	@ 0x48
  GPIO_InitStruct.Speed = GPIO_SPEED_FREQ_LOW;
 8000c92:	9515      	str	r5, [sp, #84]	@ 0x54
  HAL_GPIO_Init(sig_out_3_GPIO_Port, &GPIO_InitStruct);
 8000c94:	f001 f94a 	bl	8001f2c <HAL_GPIO_Init>
  GPIO_InitStruct.Pin = swdio_Pin|rxd_Pin|txd_Pin;
 8000c98:	f44f 4360 	mov.w	r3, #57344	@ 0xe000
  HAL_GPIO_Init(GPIOB, &GPIO_InitStruct);
 8000c9c:	4881      	ldr	r0, [pc, #516]	@ (8000ea4 <main+0x2d0>)
 8000c9e:	a912      	add	r1, sp, #72	@ 0x48
  GPIO_InitStruct.Mode = GPIO_MODE_OUTPUT_PP;
 8000ca0:	e9cd 3712 	strd	r3, r7, [sp, #72]	@ 0x48
  GPIO_InitStruct.Speed = GPIO_SPEED_FREQ_LOW;
 8000ca4:	e9cd 4514 	strd	r4, r5, [sp, #80]	@ 0x50
  HAL_GPIO_Init(GPIOB, &GPIO_InitStruct);
 8000ca8:	f001 f940 	bl	8001f2c <HAL_GPIO_Init>
  HAL_NVIC_SetPriority(EXTI2_IRQn, 5, 0);
 8000cac:	4622      	mov	r2, r4
 8000cae:	2105      	movs	r1, #5
 8000cb0:	2008      	movs	r0, #8
 8000cb2:	f001 f897 	bl	8001de4 <HAL_NVIC_SetPriority>
  HAL_NVIC_EnableIRQ(EXTI2_IRQn);
 8000cb6:	2008      	movs	r0, #8
 8000cb8:	f001 f8c4 	bl	8001e44 <HAL_NVIC_EnableIRQ>
  HAL_NVIC_SetPriority(EXTI3_IRQn, 5, 0);
 8000cbc:	4622      	mov	r2, r4
 8000cbe:	2105      	movs	r1, #5
 8000cc0:	2009      	movs	r0, #9
 8000cc2:	f001 f88f 	bl	8001de4 <HAL_NVIC_SetPriority>
  HAL_NVIC_EnableIRQ(EXTI3_IRQn);
 8000cc6:	2009      	movs	r0, #9
 8000cc8:	f001 f8bc 	bl	8001e44 <HAL_NVIC_EnableIRQ>
  hadc1.Instance = ADC1;
 8000ccc:	4d78      	ldr	r5, [pc, #480]	@ (8000eb0 <main+0x2dc>)
 8000cce:	4b79      	ldr	r3, [pc, #484]	@ (8000eb4 <main+0x2e0>)
  if (HAL_ADC_Init(&hadc1) != HAL_OK)
 8000cd0:	4628      	mov	r0, r5
  hadc1.Instance = ADC1;
 8000cd2:	602b      	str	r3, [r5, #0]
  hadc1.Init.ExternalTrigConv = ADC_SOFTWARE_START;
 8000cd4:	f44f 2360 	mov.w	r3, #917504	@ 0xe0000
  ADC_ChannelConfTypeDef sConfig = {0};
 8000cd8:	e9cd 4412 	strd	r4, r4, [sp, #72]	@ 0x48
 8000cdc:	9414      	str	r4, [sp, #80]	@ 0x50
  hadc1.Init.ScanConvMode = ADC_SCAN_DISABLE;
 8000cde:	60ac      	str	r4, [r5, #8]
  hadc1.Init.ContinuousConvMode = DISABLE;
 8000ce0:	732c      	strb	r4, [r5, #12]
  hadc1.Init.DiscontinuousConvMode = DISABLE;
 8000ce2:	752c      	strb	r4, [r5, #20]
  hadc1.Init.ExternalTrigConv = ADC_SOFTWARE_START;
 8000ce4:	61eb      	str	r3, [r5, #28]
  hadc1.Init.DataAlign = ADC_DATAALIGN_RIGHT;
 8000ce6:	606c      	str	r4, [r5, #4]
  hadc1.Init.NbrOfConversion = 1;
 8000ce8:	612f      	str	r7, [r5, #16]
  if (HAL_ADC_Init(&hadc1) != HAL_OK)
 8000cea:	f000 ff79 	bl	8001be0 <HAL_ADC_Init>
 8000cee:	b108      	cbz	r0, 8000cf4 <main+0x120>
 8000cf0:	b672      	cpsid	i
  while (1)
 8000cf2:	e7fe      	b.n	8000cf2 <main+0x11e>
  sConfig.SamplingTime = ADC_SAMPLETIME_71CYCLES_5;
 8000cf4:	2306      	movs	r3, #6
  sConfig.Rank = ADC_REGULAR_RANK_1;
 8000cf6:	e9cd 0712 	strd	r0, r7, [sp, #72]	@ 0x48
  if (HAL_ADC_ConfigChannel(&hadc1, &sConfig) != HAL_OK)
 8000cfa:	a912      	add	r1, sp, #72	@ 0x48
 8000cfc:	4628      	mov	r0, r5
  sConfig.SamplingTime = ADC_SAMPLETIME_71CYCLES_5;
 8000cfe:	9314      	str	r3, [sp, #80]	@ 0x50
  if (HAL_ADC_ConfigChannel(&hadc1, &sConfig) != HAL_OK)
 8000d00:	f000 fe28 	bl	8001954 <HAL_ADC_ConfigChannel>
 8000d04:	4603      	mov	r3, r0
 8000d06:	b108      	cbz	r0, 8000d0c <main+0x138>
 8000d08:	b672      	cpsid	i
  while (1)
 8000d0a:	e7fe      	b.n	8000d0a <main+0x136>
  hi2c1.Instance = I2C1;
 8000d0c:	486a      	ldr	r0, [pc, #424]	@ (8000eb8 <main+0x2e4>)
  hi2c1.Init.ClockSpeed = 100000;
 8000d0e:	496b      	ldr	r1, [pc, #428]	@ (8000ebc <main+0x2e8>)
 8000d10:	4a6b      	ldr	r2, [pc, #428]	@ (8000ec0 <main+0x2ec>)
  hi2c1.Init.OwnAddress1 = 0;
 8000d12:	e9c0 3302 	strd	r3, r3, [r0, #8]
  hi2c1.Init.ClockSpeed = 100000;
 8000d16:	e9c0 1200 	strd	r1, r2, [r0]
  hi2c1.Init.AddressingMode = I2C_ADDRESSINGMODE_7BIT;
 8000d1a:	f44f 4280 	mov.w	r2, #16384	@ 0x4000
  hi2c1.Init.GeneralCallMode = I2C_GENERALCALL_DISABLE;
 8000d1e:	e9c0 3306 	strd	r3, r3, [r0, #24]
  hi2c1.Init.DualAddressMode = I2C_DUALADDRESS_DISABLE;
 8000d22:	e9c0 2304 	strd	r2, r3, [r0, #16]
  hi2c1.Init.NoStretchMode = I2C_NOSTRETCH_DISABLE;
 8000d26:	6203      	str	r3, [r0, #32]
  if (HAL_I2C_Init(&hi2c1) != HAL_OK)
 8000d28:	f001 fb36 	bl	8002398 <HAL_I2C_Init>
 8000d2c:	4605      	mov	r5, r0
 8000d2e:	b108      	cbz	r0, 8000d34 <main+0x160>
 8000d30:	b672      	cpsid	i
  while (1)
 8000d32:	e7fe      	b.n	8000d32 <main+0x15e>
  htim1.Init.Period = 65535;
 8000d34:	f64f 77ff 	movw	r7, #65535	@ 0xffff
  TIM_ClockConfigTypeDef sClockSourceConfig = {0};
 8000d38:	4601      	mov	r1, r0
 8000d3a:	2210      	movs	r2, #16
 8000d3c:	a807      	add	r0, sp, #28
 8000d3e:	f004 fd65 	bl	800580c <memset>
  TIM_OC_InitTypeDef sConfigOC = {0};
 8000d42:	221c      	movs	r2, #28
 8000d44:	4629      	mov	r1, r5
 8000d46:	a80b      	add	r0, sp, #44	@ 0x2c
  htim1.Instance = TIM1;
 8000d48:	4c5e      	ldr	r4, [pc, #376]	@ (8000ec4 <main+0x2f0>)
  TIM_MasterConfigTypeDef sMasterConfig = {0};
 8000d4a:	e9cd 5505 	strd	r5, r5, [sp, #20]
  TIM_OC_InitTypeDef sConfigOC = {0};
 8000d4e:	f004 fd5d 	bl	800580c <memset>
  TIM_BreakDeadTimeConfigTypeDef sBreakDeadTimeConfig = {0};
 8000d52:	2220      	movs	r2, #32
 8000d54:	4629      	mov	r1, r5
 8000d56:	a812      	add	r0, sp, #72	@ 0x48
 8000d58:	f004 fd58 	bl	800580c <memset>
  htim1.Instance = TIM1;
 8000d5c:	4b5a      	ldr	r3, [pc, #360]	@ (8000ec8 <main+0x2f4>)
  if (HAL_TIM_Base_Init(&htim1) != HAL_OK)
 8000d5e:	4620      	mov	r0, r4
  htim1.Init.Prescaler = 0;
 8000d60:	e9c4 3500 	strd	r3, r5, [r4]
  htim1.Init.ClockDivision = TIM_CLOCKDIVISION_DIV1;
 8000d64:	e9c4 7503 	strd	r7, r5, [r4, #12]
  htim1.Init.AutoReloadPreload = TIM_AUTORELOAD_PRELOAD_DISABLE;
 8000d68:	e9c4 5505 	strd	r5, r5, [r4, #20]
  htim1.Init.CounterMode = TIM_COUNTERMODE_UP;
 8000d6c:	60a5      	str	r5, [r4, #8]
  if (HAL_TIM_Base_Init(&htim1) != HAL_OK)
 8000d6e:	f002 f98f 	bl	8003090 <HAL_TIM_Base_Init>
 8000d72:	b108      	cbz	r0, 8000d78 <main+0x1a4>
 8000d74:	b672      	cpsid	i
  while (1)
 8000d76:	e7fe      	b.n	8000d76 <main+0x1a2>
  sClockSourceConfig.ClockSource = TIM_CLOCKSOURCE_INTERNAL;
 8000d78:	f44f 5380 	mov.w	r3, #4096	@ 0x1000
  if (HAL_TIM_ConfigClockSource(&htim1, &sClockSourceConfig) != HAL_OK)
 8000d7c:	4620      	mov	r0, r4
 8000d7e:	a907      	add	r1, sp, #28
  sClockSourceConfig.ClockSource = TIM_CLOCKSOURCE_INTERNAL;
 8000d80:	9307      	str	r3, [sp, #28]
  if (HAL_TIM_ConfigClockSource(&htim1, &sClockSourceConfig) != HAL_OK)
 8000d82:	f002 fa6b 	bl	800325c <HAL_TIM_ConfigClockSource>
 8000d86:	b108      	cbz	r0, 8000d8c <main+0x1b8>
 8000d88:	b672      	cpsid	i
  while (1)
 8000d8a:	e7fe      	b.n	8000d8a <main+0x1b6>
  if (HAL_TIM_PWM_Init(&htim1) != HAL_OK)
 8000d8c:	4620      	mov	r0, r4
 8000d8e:	f002 f9ab 	bl	80030e8 <HAL_TIM_PWM_Init>
 8000d92:	b108      	cbz	r0, 8000d98 <main+0x1c4>
 8000d94:	b672      	cpsid	i
  while (1)
 8000d96:	e7fe      	b.n	8000d96 <main+0x1c2>
  sMasterConfig.MasterSlaveMode = TIM_MASTERSLAVEMODE_DISABLE;
 8000d98:	e9cd 0005 	strd	r0, r0, [sp, #20]
  if (HAL_TIMEx_MasterConfigSynchronization(&htim1, &sMasterConfig) != HAL_OK)
 8000d9c:	a905      	add	r1, sp, #20
 8000d9e:	4620      	mov	r0, r4
 8000da0:	f002 fb50 	bl	8003444 <HAL_TIMEx_MasterConfigSynchronization>
 8000da4:	b108      	cbz	r0, 8000daa <main+0x1d6>
 8000da6:	b672      	cpsid	i
  while (1)
 8000da8:	e7fe      	b.n	8000da8 <main+0x1d4>
  sConfigOC.OCMode = TIM_OCMODE_PWM1;
 8000daa:	2360      	movs	r3, #96	@ 0x60
  sConfigOC.OCNPolarity = TIM_OCNPOLARITY_HIGH;
 8000dac:	e9cd 000d 	strd	r0, r0, [sp, #52]	@ 0x34
  sConfigOC.Pulse = 0;
 8000db0:	e9cd 300b 	strd	r3, r0, [sp, #44]	@ 0x2c
  sConfigOC.OCIdleState = TIM_OCIDLESTATE_RESET;
 8000db4:	e9cd 000f 	strd	r0, r0, [sp, #60]	@ 0x3c
  sConfigOC.OCNIdleState = TIM_OCNIDLESTATE_RESET;
 8000db8:	9011      	str	r0, [sp, #68]	@ 0x44
  if (HAL_TIM_PWM_ConfigChannel(&htim1, &sConfigOC, TIM_CHANNEL_2) != HAL_OK)
 8000dba:	2204      	movs	r2, #4
 8000dbc:	4620      	mov	r0, r4
 8000dbe:	a90b      	add	r1, sp, #44	@ 0x2c
 8000dc0:	f002 f9ea 	bl	8003198 <HAL_TIM_PWM_ConfigChannel>
 8000dc4:	b108      	cbz	r0, 8000dca <main+0x1f6>
 8000dc6:	b672      	cpsid	i
  while (1)
 8000dc8:	e7fe      	b.n	8000dc8 <main+0x1f4>
  sBreakDeadTimeConfig.OffStateIDLEMode = TIM_OSSI_DISABLE;
 8000dca:	e9cd 0012 	strd	r0, r0, [sp, #72]	@ 0x48
  sBreakDeadTimeConfig.DeadTime = 0;
 8000dce:	e9cd 0014 	strd	r0, r0, [sp, #80]	@ 0x50
  sBreakDeadTimeConfig.BreakPolarity = TIM_BREAKPOLARITY_HIGH;
 8000dd2:	e9cd 0616 	strd	r0, r6, [sp, #88]	@ 0x58
  sBreakDeadTimeConfig.AutomaticOutput = TIM_AUTOMATICOUTPUT_DISABLE;
 8000dd6:	9019      	str	r0, [sp, #100]	@ 0x64
  if (HAL_TIMEx_ConfigBreakDeadTime(&htim1, &sBreakDeadTimeConfig) != HAL_OK)
 8000dd8:	a912      	add	r1, sp, #72	@ 0x48
 8000dda:	4620      	mov	r0, r4
 8000ddc:	f002 fb5c 	bl	8003498 <HAL_TIMEx_ConfigBreakDeadTime>
 8000de0:	4605      	mov	r5, r0
 8000de2:	b108      	cbz	r0, 8000de8 <main+0x214>
 8000de4:	b672      	cpsid	i
  while (1)
 8000de6:	e7fe      	b.n	8000de6 <main+0x212>
  HAL_TIM_MspPostInit(&htim1);
 8000de8:	4620      	mov	r0, r4
 8000dea:	f000 fba1 	bl	8001530 <HAL_TIM_MspPostInit>
  TIM_ClockConfigTypeDef sClockSourceConfig = {0};
 8000dee:	2210      	movs	r2, #16
 8000df0:	4629      	mov	r1, r5
 8000df2:	a80b      	add	r0, sp, #44	@ 0x2c
 8000df4:	f004 fd0a 	bl	800580c <memset>
  TIM_OC_InitTypeDef sConfigOC = {0};
 8000df8:	221c      	movs	r2, #28
 8000dfa:	4629      	mov	r1, r5
 8000dfc:	a812      	add	r0, sp, #72	@ 0x48
  TIM_MasterConfigTypeDef sMasterConfig = {0};
 8000dfe:	e9cd 5507 	strd	r5, r5, [sp, #28]
  TIM_OC_InitTypeDef sConfigOC = {0};
 8000e02:	f004 fd03 	bl	800580c <memset>
  htim2.Instance = TIM2;
 8000e06:	f04f 4380 	mov.w	r3, #1073741824	@ 0x40000000
 8000e0a:	4830      	ldr	r0, [pc, #192]	@ (8000ecc <main+0x2f8>)
  htim2.Init.Prescaler = 0;
 8000e0c:	e9c0 3500 	strd	r3, r5, [r0]
  htim2.Init.Period = 65535;
 8000e10:	e9c0 5702 	strd	r5, r7, [r0, #8]
  htim2.Init.ClockDivision = TIM_CLOCKDIVISION_DIV1;
 8000e14:	6105      	str	r5, [r0, #16]
  htim2.Init.AutoReloadPreload = TIM_AUTORELOAD_PRELOAD_DISABLE;
 8000e16:	6185      	str	r5, [r0, #24]
  if (HAL_TIM_Base_Init(&htim2) != HAL_OK)
 8000e18:	f002 f93a 	bl	8003090 <HAL_TIM_Base_Init>
 8000e1c:	b108      	cbz	r0, 8000e22 <main+0x24e>
 8000e1e:	b672      	cpsid	i
  while (1)
 8000e20:	e7fe      	b.n	8000e20 <main+0x24c>
  sClockSourceConfig.ClockSource = TIM_CLOCKSOURCE_INTERNAL;
 8000e22:	f44f 5380 	mov.w	r3, #4096	@ 0x1000
  if (HAL_TIM_ConfigClockSource(&htim2, &sClockSourceConfig) != HAL_OK)
 8000e26:	4829      	ldr	r0, [pc, #164]	@ (8000ecc <main+0x2f8>)
 8000e28:	a90b      	add	r1, sp, #44	@ 0x2c
  sClockSourceConfig.ClockSource = TIM_CLOCKSOURCE_INTERNAL;
 8000e2a:	930b      	str	r3, [sp, #44]	@ 0x2c
  if (HAL_TIM_ConfigClockSource(&htim2, &sClockSourceConfig) != HAL_OK)
 8000e2c:	f002 fa16 	bl	800325c <HAL_TIM_ConfigClockSource>
 8000e30:	b108      	cbz	r0, 8000e36 <main+0x262>
 8000e32:	b672      	cpsid	i
  while (1)
 8000e34:	e7fe      	b.n	8000e34 <main+0x260>
  if (HAL_TIM_PWM_Init(&htim2) != HAL_OK)
 8000e36:	4825      	ldr	r0, [pc, #148]	@ (8000ecc <main+0x2f8>)
 8000e38:	f002 f956 	bl	80030e8 <HAL_TIM_PWM_Init>
 8000e3c:	b108      	cbz	r0, 8000e42 <main+0x26e>
 8000e3e:	b672      	cpsid	i
  while (1)
 8000e40:	e7fe      	b.n	8000e40 <main+0x26c>
  sMasterConfig.MasterSlaveMode = TIM_MASTERSLAVEMODE_DISABLE;
 8000e42:	e9cd 0007 	strd	r0, r0, [sp, #28]
  if (HAL_TIMEx_MasterConfigSynchronization(&htim2, &sMasterConfig) != HAL_OK)
 8000e46:	a907      	add	r1, sp, #28
 8000e48:	4820      	ldr	r0, [pc, #128]	@ (8000ecc <main+0x2f8>)
 8000e4a:	f002 fafb 	bl	8003444 <HAL_TIMEx_MasterConfigSynchronization>
 8000e4e:	4602      	mov	r2, r0
 8000e50:	b108      	cbz	r0, 8000e56 <main+0x282>
 8000e52:	b672      	cpsid	i
  while (1)
 8000e54:	e7fe      	b.n	8000e54 <main+0x280>
  sConfigOC.OCMode = TIM_OCMODE_PWM1;
 8000e56:	2360      	movs	r3, #96	@ 0x60
  sConfigOC.OCPolarity = TIM_OCPOLARITY_HIGH;
 8000e58:	9014      	str	r0, [sp, #80]	@ 0x50
  sConfigOC.Pulse = 0;
 8000e5a:	e9cd 3012 	strd	r3, r0, [sp, #72]	@ 0x48
  sConfigOC.OCFastMode = TIM_OCFAST_DISABLE;
 8000e5e:	9016      	str	r0, [sp, #88]	@ 0x58
  if (HAL_TIM_PWM_ConfigChannel(&htim2, &sConfigOC, TIM_CHANNEL_1) != HAL_OK)
 8000e60:	a912      	add	r1, sp, #72	@ 0x48
 8000e62:	481a      	ldr	r0, [pc, #104]	@ (8000ecc <main+0x2f8>)
 8000e64:	f002 f998 	bl	8003198 <HAL_TIM_PWM_ConfigChannel>
 8000e68:	4604      	mov	r4, r0
 8000e6a:	b108      	cbz	r0, 8000e70 <main+0x29c>
 8000e6c:	b672      	cpsid	i
  while (1)
 8000e6e:	e7fe      	b.n	8000e6e <main+0x29a>
  HAL_TIM_MspPostInit(&htim2);
 8000e70:	4816      	ldr	r0, [pc, #88]	@ (8000ecc <main+0x2f8>)
 8000e72:	f000 fb5d 	bl	8001530 <HAL_TIM_MspPostInit>
  huart1.Init.BaudRate = 9600;
 8000e76:	f44f 5316 	mov.w	r3, #9600	@ 0x2580
  huart1.Instance = USART1;
 8000e7a:	4815      	ldr	r0, [pc, #84]	@ (8000ed0 <main+0x2fc>)
  huart1.Init.BaudRate = 9600;
 8000e7c:	4a15      	ldr	r2, [pc, #84]	@ (8000ed4 <main+0x300>)
  huart1.Init.StopBits = UART_STOPBITS_1;
 8000e7e:	e9c0 4402 	strd	r4, r4, [r0, #8]
  huart1.Init.BaudRate = 9600;
 8000e82:	e9c0 2300 	strd	r2, r3, [r0]
  huart1.Init.Mode = UART_MODE_TX_RX;
 8000e86:	230c      	movs	r3, #12
  huart1.Init.Parity = UART_PARITY_NONE;
 8000e88:	6104      	str	r4, [r0, #16]
  huart1.Init.HwFlowCtl = UART_HWCONTROL_NONE;
 8000e8a:	e9c0 3405 	strd	r3, r4, [r0, #20]
  huart1.Init.OverSampling = UART_OVERSAMPLING_16;
 8000e8e:	61c4      	str	r4, [r0, #28]
  if (HAL_UART_Init(&huart1) != HAL_OK)
 8000e90:	f002 fb92 	bl	80035b8 <HAL_UART_Init>
 8000e94:	4603      	mov	r3, r0
 8000e96:	b1f8      	cbz	r0, 8000ed8 <main+0x304>
 8000e98:	b672      	cpsid	i
  while (1)
 8000e9a:	e7fe      	b.n	8000e9a <main+0x2c6>
 8000e9c:	40021000 	.word	0x40021000
 8000ea0:	40011000 	.word	0x40011000
 8000ea4:	40010c00 	.word	0x40010c00
 8000ea8:	10210000 	.word	0x10210000
 8000eac:	40010800 	.word	0x40010800
 8000eb0:	200004dc 	.word	0x200004dc
 8000eb4:	40012400 	.word	0x40012400
 8000eb8:	20000458 	.word	0x20000458
 8000ebc:	40005400 	.word	0x40005400
 8000ec0:	000186a0 	.word	0x000186a0
 8000ec4:	20000410 	.word	0x20000410
 8000ec8:	40012c00 	.word	0x40012c00
 8000ecc:	200003c8 	.word	0x200003c8
 8000ed0:	20000380 	.word	0x20000380
 8000ed4:	40013800 	.word	0x40013800
  hpcd_USB_FS.Instance = USB;
 8000ed8:	482c      	ldr	r0, [pc, #176]	@ (8000f8c <main+0x3b8>)
 8000eda:	4a2d      	ldr	r2, [pc, #180]	@ (8000f90 <main+0x3bc>)
  hpcd_USB_FS.Init.low_power_enable = DISABLE;
 8000edc:	8143      	strh	r3, [r0, #10]
  hpcd_USB_FS.Instance = USB;
 8000ede:	6002      	str	r2, [r0, #0]
  hpcd_USB_FS.Init.dev_endpoints = 8;
 8000ee0:	2208      	movs	r2, #8
 8000ee2:	7102      	strb	r2, [r0, #4]
  hpcd_USB_FS.Init.speed = PCD_SPEED_FULL;
 8000ee4:	2202      	movs	r2, #2
  hpcd_USB_FS.Init.battery_charging_enable = DISABLE;
 8000ee6:	7303      	strb	r3, [r0, #12]
  hpcd_USB_FS.Init.speed = PCD_SPEED_FULL;
 8000ee8:	7182      	strb	r2, [r0, #6]
  if (HAL_PCD_Init(&hpcd_USB_FS) != HAL_OK)
 8000eea:	f001 fb8d 	bl	8002608 <HAL_PCD_Init>
 8000eee:	b108      	cbz	r0, 8000ef4 <main+0x320>
 8000ef0:	b672      	cpsid	i
  while (1)
 8000ef2:	e7fe      	b.n	8000ef2 <main+0x31e>
  hadc2.Instance = ADC2;
 8000ef4:	4c27      	ldr	r4, [pc, #156]	@ (8000f94 <main+0x3c0>)
 8000ef6:	4b28      	ldr	r3, [pc, #160]	@ (8000f98 <main+0x3c4>)
  hadc2.Init.NbrOfConversion = 1;
 8000ef8:	2501      	movs	r5, #1
  hadc2.Instance = ADC2;
 8000efa:	6023      	str	r3, [r4, #0]
  hadc2.Init.ExternalTrigConv = ADC_SOFTWARE_START;
 8000efc:	f44f 2360 	mov.w	r3, #917504	@ 0xe0000
  ADC_ChannelConfTypeDef sConfig = {0};
 8000f00:	e9cd 0012 	strd	r0, r0, [sp, #72]	@ 0x48
 8000f04:	9014      	str	r0, [sp, #80]	@ 0x50
  hadc2.Init.ScanConvMode = ADC_SCAN_DISABLE;
 8000f06:	60a0      	str	r0, [r4, #8]
  hadc2.Init.ContinuousConvMode = DISABLE;
 8000f08:	7320      	strb	r0, [r4, #12]
  hadc2.Init.DiscontinuousConvMode = DISABLE;
 8000f0a:	7520      	strb	r0, [r4, #20]
  hadc2.Init.DataAlign = ADC_DATAALIGN_RIGHT;
 8000f0c:	6060      	str	r0, [r4, #4]
  if (HAL_ADC_Init(&hadc2) != HAL_OK)
 8000f0e:	4620      	mov	r0, r4
  hadc2.Init.ExternalTrigConv = ADC_SOFTWARE_START;
 8000f10:	61e3      	str	r3, [r4, #28]
  hadc2.Init.NbrOfConversion = 1;
 8000f12:	6125      	str	r5, [r4, #16]
  if (HAL_ADC_Init(&hadc2) != HAL_OK)
 8000f14:	f000 fe64 	bl	8001be0 <HAL_ADC_Init>
 8000f18:	b108      	cbz	r0, 8000f1e <main+0x34a>
 8000f1a:	b672      	cpsid	i
  while (1)
 8000f1c:	e7fe      	b.n	8000f1c <main+0x348>
  sConfig.SamplingTime = ADC_SAMPLETIME_71CYCLES_5;
 8000f1e:	2306      	movs	r3, #6
  if (HAL_ADC_ConfigChannel(&hadc2, &sConfig) != HAL_OK)
 8000f20:	4620      	mov	r0, r4
 8000f22:	a912      	add	r1, sp, #72	@ 0x48
  sConfig.Rank = ADC_REGULAR_RANK_1;
 8000f24:	e9cd 5512 	strd	r5, r5, [sp, #72]	@ 0x48
  sConfig.SamplingTime = ADC_SAMPLETIME_71CYCLES_5;
 8000f28:	9314      	str	r3, [sp, #80]	@ 0x50
  if (HAL_ADC_ConfigChannel(&hadc2, &sConfig) != HAL_OK)
 8000f2a:	f000 fd13 	bl	8001954 <HAL_ADC_ConfigChannel>
 8000f2e:	4605      	mov	r5, r0
 8000f30:	b108      	cbz	r0, 8000f36 <main+0x362>
 8000f32:	b672      	cpsid	i
  while (1)
 8000f34:	e7fe      	b.n	8000f34 <main+0x360>
  HAL_ADCEx_Calibration_Start(&hadc1);
 8000f36:	4819      	ldr	r0, [pc, #100]	@ (8000f9c <main+0x3c8>)
 8000f38:	f000 fed0 	bl	8001cdc <HAL_ADCEx_Calibration_Start>
    HAL_ADCEx_Calibration_Start(&hadc2);
 8000f3c:	4620      	mov	r0, r4
 8000f3e:	f000 fecd 	bl	8001cdc <HAL_ADCEx_Calibration_Start>
    HAL_TIM_PWM_Start(&htim1, TIM_CHANNEL_2);
 8000f42:	2104      	movs	r1, #4
 8000f44:	4816      	ldr	r0, [pc, #88]	@ (8000fa0 <main+0x3cc>)
 8000f46:	f002 fa7b 	bl	8003440 <HAL_TIM_PWM_Start>
  osKernelInitialize();
 8000f4a:	f002 fd49 	bl	80039e0 <osKernelInitialize>
  wave_genHandle = osThreadNew(start_wave_gen, NULL, &wave_gen_attributes);
 8000f4e:	4629      	mov	r1, r5
 8000f50:	4a14      	ldr	r2, [pc, #80]	@ (8000fa4 <main+0x3d0>)
 8000f52:	4815      	ldr	r0, [pc, #84]	@ (8000fa8 <main+0x3d4>)
 8000f54:	f002 fd70 	bl	8003a38 <osThreadNew>
 8000f58:	4b14      	ldr	r3, [pc, #80]	@ (8000fac <main+0x3d8>)
  read_waveHandle = osThreadNew(StartRead, NULL, &read_wave_attributes);
 8000f5a:	4629      	mov	r1, r5
  wave_genHandle = osThreadNew(start_wave_gen, NULL, &wave_gen_attributes);
 8000f5c:	6018      	str	r0, [r3, #0]
  read_waveHandle = osThreadNew(StartRead, NULL, &read_wave_attributes);
 8000f5e:	4a14      	ldr	r2, [pc, #80]	@ (8000fb0 <main+0x3dc>)
 8000f60:	4814      	ldr	r0, [pc, #80]	@ (8000fb4 <main+0x3e0>)
 8000f62:	f002 fd69 	bl	8003a38 <osThreadNew>
 8000f66:	4b14      	ldr	r3, [pc, #80]	@ (8000fb8 <main+0x3e4>)
  displayHandle = osThreadNew(StartDisplay, NULL, &display_attributes);
 8000f68:	4629      	mov	r1, r5
  read_waveHandle = osThreadNew(StartRead, NULL, &read_wave_attributes);
 8000f6a:	6018      	str	r0, [r3, #0]
  displayHandle = osThreadNew(StartDisplay, NULL, &display_attributes);
 8000f6c:	4a13      	ldr	r2, [pc, #76]	@ (8000fbc <main+0x3e8>)
 8000f6e:	4814      	ldr	r0, [pc, #80]	@ (8000fc0 <main+0x3ec>)
 8000f70:	f002 fd62 	bl	8003a38 <osThreadNew>
 8000f74:	4b13      	ldr	r3, [pc, #76]	@ (8000fc4 <main+0x3f0>)
  monitorHandle = osThreadNew(StartMonitor, NULL, &monitor_attributes);
 8000f76:	4629      	mov	r1, r5
  displayHandle = osThreadNew(StartDisplay, NULL, &display_attributes);
 8000f78:	6018      	str	r0, [r3, #0]
  monitorHandle = osThreadNew(StartMonitor, NULL, &monitor_attributes);
 8000f7a:	4a13      	ldr	r2, [pc, #76]	@ (8000fc8 <main+0x3f4>)
 8000f7c:	4813      	ldr	r0, [pc, #76]	@ (8000fcc <main+0x3f8>)
 8000f7e:	f002 fd5b 	bl	8003a38 <osThreadNew>
 8000f82:	4b13      	ldr	r3, [pc, #76]	@ (8000fd0 <main+0x3fc>)
 8000f84:	6018      	str	r0, [r3, #0]
  osKernelStart();
 8000f86:	f002 fd3d 	bl	8003a04 <osKernelStart>
  while (1)
 8000f8a:	e7fe      	b.n	8000f8a <main+0x3b6>
 8000f8c:	200000a8 	.word	0x200000a8
 8000f90:	40005c00 	.word	0x40005c00
 8000f94:	200004ac 	.word	0x200004ac
 8000f98:	40012800 	.word	0x40012800
 8000f9c:	200004dc 	.word	0x200004dc
 8000fa0:	20000410 	.word	0x20000410
 8000fa4:	080062e4 	.word	0x080062e4
 8000fa8:	080001c9 	.word	0x080001c9
 8000fac:	200000a4 	.word	0x200000a4
 8000fb0:	080062c0 	.word	0x080062c0
 8000fb4:	08000151 	.word	0x08000151
 8000fb8:	200000a0 	.word	0x200000a0
 8000fbc:	0800629c 	.word	0x0800629c
 8000fc0:	08000225 	.word	0x08000225
 8000fc4:	2000009c 	.word	0x2000009c
 8000fc8:	08006278 	.word	0x08006278
 8000fcc:	0800015d 	.word	0x0800015d
 8000fd0:	20000098 	.word	0x20000098

08000fd4 <HAL_TIM_PeriodElapsedCallback>:
  if (htim->Instance == TIM3) {
 8000fd4:	6802      	ldr	r2, [r0, #0]
 8000fd6:	4b03      	ldr	r3, [pc, #12]	@ (8000fe4 <HAL_TIM_PeriodElapsedCallback+0x10>)
 8000fd8:	429a      	cmp	r2, r3
 8000fda:	d101      	bne.n	8000fe0 <HAL_TIM_PeriodElapsedCallback+0xc>
    HAL_IncTick();
 8000fdc:	f000 bc20 	b.w	8001820 <HAL_IncTick>
}
 8000fe0:	4770      	bx	lr
 8000fe2:	bf00      	nop
 8000fe4:	40000400 	.word	0x40000400

08000fe8 <ssd1306_WriteCommand>:
void ssd1306_Reset(void) {
    /* for I2C - do nothing */
}

// Send a byte to the command register
void ssd1306_WriteCommand(uint8_t byte) {
 8000fe8:	b57f      	push	{r0, r1, r2, r3, r4, r5, r6, lr}
    HAL_I2C_Mem_Write(&SSD1306_I2C_PORT, SSD1306_I2C_ADDR, 0x00, 1, &byte, 1, HAL_MAX_DELAY);
 8000fea:	2301      	movs	r3, #1
 8000fec:	f04f 32ff 	mov.w	r2, #4294967295	@ 0xffffffff
 8000ff0:	e9cd 3201 	strd	r3, r2, [sp, #4]
 8000ff4:	f10d 0217 	add.w	r2, sp, #23
void ssd1306_WriteCommand(uint8_t byte) {
 8000ff8:	f88d 0017 	strb.w	r0, [sp, #23]
    HAL_I2C_Mem_Write(&SSD1306_I2C_PORT, SSD1306_I2C_ADDR, 0x00, 1, &byte, 1, HAL_MAX_DELAY);
 8000ffc:	9200      	str	r2, [sp, #0]
 8000ffe:	2178      	movs	r1, #120	@ 0x78
 8001000:	2200      	movs	r2, #0
 8001002:	4803      	ldr	r0, [pc, #12]	@ (8001010 <ssd1306_WriteCommand+0x28>)
 8001004:	f001 fa70 	bl	80024e8 <HAL_I2C_Mem_Write>
}
 8001008:	b007      	add	sp, #28
 800100a:	f85d fb04 	ldr.w	pc, [sp], #4
 800100e:	bf00      	nop
 8001010:	20000458 	.word	0x20000458

08001014 <ssd1306_WriteData>:

// Send data
void ssd1306_WriteData(uint8_t* buffer, size_t buff_size) {
 8001014:	b51f      	push	{r0, r1, r2, r3, r4, lr}
    HAL_I2C_Mem_Write(&SSD1306_I2C_PORT, SSD1306_I2C_ADDR, 0x40, 1, buffer, buff_size, HAL_MAX_DELAY);
 8001016:	f04f 33ff 	mov.w	r3, #4294967295	@ 0xffffffff
 800101a:	b289      	uxth	r1, r1
 800101c:	e9cd 0100 	strd	r0, r1, [sp]
 8001020:	9302      	str	r3, [sp, #8]
 8001022:	2240      	movs	r2, #64	@ 0x40
 8001024:	2301      	movs	r3, #1
 8001026:	2178      	movs	r1, #120	@ 0x78
 8001028:	4802      	ldr	r0, [pc, #8]	@ (8001034 <ssd1306_WriteData+0x20>)
 800102a:	f001 fa5d 	bl	80024e8 <HAL_I2C_Mem_Write>
}
 800102e:	b005      	add	sp, #20
 8001030:	f85d fb04 	ldr.w	pc, [sp], #4
 8001034:	20000458 	.word	0x20000458

08001038 <ssd1306_Fill>:
    SSD1306.Initialized = 1;
}

/* Fill the whole screen with the given color */
void ssd1306_Fill(SSD1306_COLOR color) {
    memset(SSD1306_Buffer, (color == Black) ? 0x00 : 0xFF, sizeof(SSD1306_Buffer));
 8001038:	2800      	cmp	r0, #0
 800103a:	f44f 7200 	mov.w	r2, #512	@ 0x200
 800103e:	bf14      	ite	ne
 8001040:	21ff      	movne	r1, #255	@ 0xff
 8001042:	2100      	moveq	r1, #0
 8001044:	4801      	ldr	r0, [pc, #4]	@ (800104c <ssd1306_Fill+0x14>)
 8001046:	f004 bbe1 	b.w	800580c <memset>
 800104a:	bf00      	nop
 800104c:	2000054a 	.word	0x2000054a

08001050 <ssd1306_UpdateScreen>:
}

/* Write the screenbuffer with changed to the screen */
void ssd1306_UpdateScreen(void) {
 8001050:	b538      	push	{r3, r4, r5, lr}
 8001052:	24b0      	movs	r4, #176	@ 0xb0
 8001054:	4d0a      	ldr	r5, [pc, #40]	@ (8001080 <ssd1306_UpdateScreen+0x30>)
    //
    //  * 32px   ==  4 pages
    //  * 64px   ==  8 pages
    //  * 128px  ==  16 pages
    for(uint8_t i = 0; i < SSD1306_HEIGHT/8; i++) {
        ssd1306_WriteCommand(0xB0 + i); // Set the current RAM page address.
 8001056:	4620      	mov	r0, r4
 8001058:	f7ff ffc6 	bl	8000fe8 <ssd1306_WriteCommand>
        ssd1306_WriteCommand(0x00 + SSD1306_X_OFFSET_LOWER);
 800105c:	2000      	movs	r0, #0
 800105e:	f7ff ffc3 	bl	8000fe8 <ssd1306_WriteCommand>
    for(uint8_t i = 0; i < SSD1306_HEIGHT/8; i++) {
 8001062:	3401      	adds	r4, #1
        ssd1306_WriteCommand(0x10 + SSD1306_X_OFFSET_UPPER);
 8001064:	2010      	movs	r0, #16
 8001066:	f7ff ffbf 	bl	8000fe8 <ssd1306_WriteCommand>
    for(uint8_t i = 0; i < SSD1306_HEIGHT/8; i++) {
 800106a:	b2e4      	uxtb	r4, r4
        ssd1306_WriteData(&SSD1306_Buffer[SSD1306_WIDTH*i],SSD1306_WIDTH);
 800106c:	4628      	mov	r0, r5
 800106e:	2180      	movs	r1, #128	@ 0x80
 8001070:	f7ff ffd0 	bl	8001014 <ssd1306_WriteData>
    for(uint8_t i = 0; i < SSD1306_HEIGHT/8; i++) {
 8001074:	2cb4      	cmp	r4, #180	@ 0xb4
 8001076:	f105 0580 	add.w	r5, r5, #128	@ 0x80
 800107a:	d1ec      	bne.n	8001056 <ssd1306_UpdateScreen+0x6>
    }
}
 800107c:	bd38      	pop	{r3, r4, r5, pc}
 800107e:	bf00      	nop
 8001080:	2000054a 	.word	0x2000054a

08001084 <ssd1306_DrawPixel>:
 * X => X Coordinate
 * Y => Y Coordinate
 * color => Pixel color
 */
void ssd1306_DrawPixel(uint8_t x, uint8_t y, SSD1306_COLOR color) {
    if(x >= SSD1306_WIDTH || y >= SSD1306_HEIGHT) {
 8001084:	0603      	lsls	r3, r0, #24
void ssd1306_DrawPixel(uint8_t x, uint8_t y, SSD1306_COLOR color) {
 8001086:	b530      	push	{r4, r5, lr}
    if(x >= SSD1306_WIDTH || y >= SSD1306_HEIGHT) {
 8001088:	d410      	bmi.n	80010ac <ssd1306_DrawPixel+0x28>
 800108a:	291f      	cmp	r1, #31
 800108c:	d80e      	bhi.n	80010ac <ssd1306_DrawPixel+0x28>
        return;
    }
   
    // Draw in the right color
    if(color == White) {
        SSD1306_Buffer[x + (y / 8) * SSD1306_WIDTH] |= 1 << (y % 8);
 800108e:	2401      	movs	r4, #1
 8001090:	08cb      	lsrs	r3, r1, #3
 8001092:	4d07      	ldr	r5, [pc, #28]	@ (80010b0 <ssd1306_DrawPixel+0x2c>)
 8001094:	eb00 10c3 	add.w	r0, r0, r3, lsl #7
 8001098:	5c2b      	ldrb	r3, [r5, r0]
 800109a:	f001 0107 	and.w	r1, r1, #7
 800109e:	fa04 f101 	lsl.w	r1, r4, r1
    if(color == White) {
 80010a2:	42a2      	cmp	r2, r4
        SSD1306_Buffer[x + (y / 8) * SSD1306_WIDTH] |= 1 << (y % 8);
 80010a4:	bf0c      	ite	eq
 80010a6:	430b      	orreq	r3, r1
    } else { 
        SSD1306_Buffer[x + (y / 8) * SSD1306_WIDTH] &= ~(1 << (y % 8));
 80010a8:	438b      	bicne	r3, r1
 80010aa:	542b      	strb	r3, [r5, r0]
    }
}
 80010ac:	bd30      	pop	{r4, r5, pc}
 80010ae:	bf00      	nop
 80010b0:	2000054a 	.word	0x2000054a

080010b4 <ssd1306_WriteChar>:
 * Draw 1 char to the screen buffer
 * ch       => char om weg te schrijven
 * Font     => Font waarmee we gaan schrijven
 * color    => Black or White
 */
char ssd1306_WriteChar(char ch, SSD1306_Font_t Font, SSD1306_COLOR color) {
 80010b4:	e92d 4ff0 	stmdb	sp!, {r4, r5, r6, r7, r8, r9, sl, fp, lr}
 80010b8:	4604      	mov	r4, r0
 80010ba:	b089      	sub	sp, #36	@ 0x24
 80010bc:	a808      	add	r0, sp, #32
 80010be:	e900 000e 	stmdb	r0, {r1, r2, r3}
 80010c2:	f89d 3048 	ldrb.w	r3, [sp, #72]	@ 0x48
    uint32_t i, b, j;
    
    // Check if character is valid
    if (ch < 32 || ch > 126)
 80010c6:	f1a4 0520 	sub.w	r5, r4, #32
char ssd1306_WriteChar(char ch, SSD1306_Font_t Font, SSD1306_COLOR color) {
 80010ca:	9302      	str	r3, [sp, #8]
    if (ch < 32 || ch > 126)
 80010cc:	b2eb      	uxtb	r3, r5
 80010ce:	2b5e      	cmp	r3, #94	@ 0x5e
 80010d0:	d848      	bhi.n	8001164 <ssd1306_WriteChar+0xb0>
 80010d2:	9b07      	ldr	r3, [sp, #28]
        return 0;
    
    // Char width is not equal to font width for proportional font
    const uint8_t char_width = Font.char_width ? Font.char_width[ch-32] : Font.width;
 80010d4:	b30b      	cbz	r3, 800111a <ssd1306_WriteChar+0x66>
 80010d6:	4423      	add	r3, r4
 80010d8:	f813 6c20 	ldrb.w	r6, [r3, #-32]
    // Check remaining space on current line
    if (SSD1306_WIDTH < (SSD1306.CurrentX + char_width) ||
 80010dc:	f8df 9088 	ldr.w	r9, [pc, #136]	@ 8001168 <ssd1306_WriteChar+0xb4>
 80010e0:	f8b9 a000 	ldrh.w	sl, [r9]
 80010e4:	eb0a 0306 	add.w	r3, sl, r6
 80010e8:	2b80      	cmp	r3, #128	@ 0x80
 80010ea:	dc3b      	bgt.n	8001164 <ssd1306_WriteChar+0xb0>
        SSD1306_HEIGHT < (SSD1306.CurrentY + Font.height))
 80010ec:	f8b9 3002 	ldrh.w	r3, [r9, #2]
 80010f0:	f89d b015 	ldrb.w	fp, [sp, #21]
 80010f4:	9301      	str	r3, [sp, #4]
 80010f6:	eb03 020b 	add.w	r2, r3, fp
    if (SSD1306_WIDTH < (SSD1306.CurrentX + char_width) ||
 80010fa:	2a20      	cmp	r2, #32
 80010fc:	dc32      	bgt.n	8001164 <ssd1306_WriteChar+0xb0>
        // Not enough space on current line
        return 0;
    }
    
    // Use the font to write
    for(i = 0; i < Font.height; i++) {
 80010fe:	f04f 0800 	mov.w	r8, #0
 8001102:	fb0b f505 	mul.w	r5, fp, r5
 8001106:	006d      	lsls	r5, r5, #1
 8001108:	45c3      	cmp	fp, r8
 800110a:	d809      	bhi.n	8001120 <ssd1306_WriteChar+0x6c>
            }
        }
    }
    
    // The current space is now taken
    SSD1306.CurrentX += char_width;
 800110c:	4456      	add	r6, sl
 800110e:	f8a9 6000 	strh.w	r6, [r9]
    
    // Return written char for validation
    return ch;
}
 8001112:	4620      	mov	r0, r4
 8001114:	b009      	add	sp, #36	@ 0x24
 8001116:	e8bd 8ff0 	ldmia.w	sp!, {r4, r5, r6, r7, r8, r9, sl, fp, pc}
    const uint8_t char_width = Font.char_width ? Font.char_width[ch-32] : Font.width;
 800111a:	f89d 6014 	ldrb.w	r6, [sp, #20]
 800111e:	e7dd      	b.n	80010dc <ssd1306_WriteChar+0x28>
        for(j = 0; j < char_width; j++) {
 8001120:	2700      	movs	r7, #0
        b = Font.data[(ch - 32) * Font.height + i];
 8001122:	9a06      	ldr	r2, [sp, #24]
 8001124:	5b53      	ldrh	r3, [r2, r5]
 8001126:	9304      	str	r3, [sp, #16]
                ssd1306_DrawPixel(SSD1306.CurrentX + j, (SSD1306.CurrentY + i), (SSD1306_COLOR) color);
 8001128:	9b01      	ldr	r3, [sp, #4]
 800112a:	eb08 0203 	add.w	r2, r8, r3
 800112e:	b2d3      	uxtb	r3, r2
 8001130:	9303      	str	r3, [sp, #12]
        for(j = 0; j < char_width; j++) {
 8001132:	42be      	cmp	r6, r7
 8001134:	d803      	bhi.n	800113e <ssd1306_WriteChar+0x8a>
    for(i = 0; i < Font.height; i++) {
 8001136:	f108 0801 	add.w	r8, r8, #1
 800113a:	3502      	adds	r5, #2
 800113c:	e7e4      	b.n	8001108 <ssd1306_WriteChar+0x54>
            if((b << j) & 0x8000)  {
 800113e:	9b04      	ldr	r3, [sp, #16]
                ssd1306_DrawPixel(SSD1306.CurrentX + j, (SSD1306.CurrentY + i), (SSD1306_COLOR) color);
 8001140:	eb07 000a 	add.w	r0, r7, sl
            if((b << j) & 0x8000)  {
 8001144:	fa03 f207 	lsl.w	r2, r3, r7
 8001148:	0413      	lsls	r3, r2, #16
                ssd1306_DrawPixel(SSD1306.CurrentX + j, (SSD1306.CurrentY + i), (SSD1306_COLOR)!color);
 800114a:	bf56      	itet	pl
 800114c:	9b02      	ldrpl	r3, [sp, #8]
                ssd1306_DrawPixel(SSD1306.CurrentX + j, (SSD1306.CurrentY + i), (SSD1306_COLOR) color);
 800114e:	9a02      	ldrmi	r2, [sp, #8]
                ssd1306_DrawPixel(SSD1306.CurrentX + j, (SSD1306.CurrentY + i), (SSD1306_COLOR)!color);
 8001150:	fab3 f283 	clzpl	r2, r3
 8001154:	9903      	ldr	r1, [sp, #12]
                ssd1306_DrawPixel(SSD1306.CurrentX + j, (SSD1306.CurrentY + i), (SSD1306_COLOR) color);
 8001156:	b2c0      	uxtb	r0, r0
                ssd1306_DrawPixel(SSD1306.CurrentX + j, (SSD1306.CurrentY + i), (SSD1306_COLOR)!color);
 8001158:	bf58      	it	pl
 800115a:	0952      	lsrpl	r2, r2, #5
 800115c:	f7ff ff92 	bl	8001084 <ssd1306_DrawPixel>
        for(j = 0; j < char_width; j++) {
 8001160:	3701      	adds	r7, #1
 8001162:	e7e6      	b.n	8001132 <ssd1306_WriteChar+0x7e>
        return 0;
 8001164:	2400      	movs	r4, #0
 8001166:	e7d4      	b.n	8001112 <ssd1306_WriteChar+0x5e>
 8001168:	20000544 	.word	0x20000544

0800116c <ssd1306_WriteString>:

/* Write full string to screenbuffer */
char ssd1306_WriteString(char* str, SSD1306_Font_t Font, SSD1306_COLOR color) {
 800116c:	b570      	push	{r4, r5, r6, lr}
 800116e:	b086      	sub	sp, #24
 8001170:	ac03      	add	r4, sp, #12
 8001172:	e884 000e 	stmia.w	r4, {r1, r2, r3}
 8001176:	f89d 6028 	ldrb.w	r6, [sp, #40]	@ 0x28
 800117a:	1e45      	subs	r5, r0, #1
    while (*str) {
 800117c:	f815 0f01 	ldrb.w	r0, [r5, #1]!
 8001180:	b140      	cbz	r0, 8001194 <ssd1306_WriteString+0x28>
        if (ssd1306_WriteChar(*str, Font, color) != *str) {
 8001182:	9600      	str	r6, [sp, #0]
 8001184:	e894 000e 	ldmia.w	r4, {r1, r2, r3}
 8001188:	f7ff ff94 	bl	80010b4 <ssd1306_WriteChar>
 800118c:	4603      	mov	r3, r0
 800118e:	7828      	ldrb	r0, [r5, #0]
 8001190:	4283      	cmp	r3, r0
 8001192:	d0f3      	beq.n	800117c <ssd1306_WriteString+0x10>
        str++;
    }
    
    // Everything ok
    return *str;
}
 8001194:	b006      	add	sp, #24
 8001196:	bd70      	pop	{r4, r5, r6, pc}

08001198 <ssd1306_SetCursor>:

/* Position the cursor */
void ssd1306_SetCursor(uint8_t x, uint8_t y) {
    SSD1306.CurrentX = x;
 8001198:	4b01      	ldr	r3, [pc, #4]	@ (80011a0 <ssd1306_SetCursor+0x8>)
 800119a:	8018      	strh	r0, [r3, #0]
    SSD1306.CurrentY = y;
 800119c:	8059      	strh	r1, [r3, #2]
}
 800119e:	4770      	bx	lr
 80011a0:	20000544 	.word	0x20000544

080011a4 <ssd1306_Line>:

/* Draw line by Bresenhem's algorithm */
void ssd1306_Line(uint8_t x1, uint8_t y1, uint8_t x2, uint8_t y2, SSD1306_COLOR color) {
 80011a4:	e92d 4ff7 	stmdb	sp!, {r0, r1, r2, r4, r5, r6, r7, r8, r9, sl, fp, lr}
 80011a8:	4690      	mov	r8, r2
    int32_t deltaX = abs(x2 - x1);
 80011aa:	eba8 0900 	sub.w	r9, r8, r0
    int32_t deltaY = abs(y2 - y1);
 80011ae:	eba3 0a01 	sub.w	sl, r3, r1
    int32_t deltaX = abs(x2 - x1);
 80011b2:	f1b9 0f00 	cmp.w	r9, #0
void ssd1306_Line(uint8_t x1, uint8_t y1, uint8_t x2, uint8_t y2, SSD1306_COLOR color) {
 80011b6:	461e      	mov	r6, r3
    int32_t deltaX = abs(x2 - x1);
 80011b8:	bfb8      	it	lt
 80011ba:	f1c9 0900 	rsblt	r9, r9, #0
    int32_t deltaY = abs(y2 - y1);
 80011be:	f1ba 0f00 	cmp.w	sl, #0
 80011c2:	bfb8      	it	lt
 80011c4:	f1ca 0a00 	rsblt	sl, sl, #0
    int32_t signX = ((x1 < x2) ? 1 : -1);
 80011c8:	4580      	cmp	r8, r0
 80011ca:	bf8c      	ite	hi
 80011cc:	2301      	movhi	r3, #1
 80011ce:	f04f 33ff 	movls.w	r3, #4294967295	@ 0xffffffff
void ssd1306_Line(uint8_t x1, uint8_t y1, uint8_t x2, uint8_t y2, SSD1306_COLOR color) {
 80011d2:	4605      	mov	r5, r0
 80011d4:	460c      	mov	r4, r1
    int32_t signY = ((y1 < y2) ? 1 : -1);
 80011d6:	428e      	cmp	r6, r1
 80011d8:	bf8c      	ite	hi
 80011da:	f04f 0b01 	movhi.w	fp, #1
 80011de:	f04f 3bff 	movls.w	fp, #4294967295	@ 0xffffffff
    int32_t error = deltaX - deltaY;
    int32_t error2;
    
    ssd1306_DrawPixel(x2, y2, color);
 80011e2:	4640      	mov	r0, r8
 80011e4:	4631      	mov	r1, r6
void ssd1306_Line(uint8_t x1, uint8_t y1, uint8_t x2, uint8_t y2, SSD1306_COLOR color) {
 80011e6:	f89d 2030 	ldrb.w	r2, [sp, #48]	@ 0x30
    int32_t signX = ((x1 < x2) ? 1 : -1);
 80011ea:	9300      	str	r3, [sp, #0]
    int32_t error = deltaX - deltaY;
 80011ec:	eba9 070a 	sub.w	r7, r9, sl
    ssd1306_DrawPixel(x2, y2, color);
 80011f0:	f7ff ff48 	bl	8001084 <ssd1306_DrawPixel>

    while((x1 != x2) || (y1 != y2)) {
        ssd1306_DrawPixel(x1, y1, color);
        error2 = error * 2;
        if(error2 > -deltaY) {
 80011f4:	f1ca 0300 	rsb	r3, sl, #0
    while((x1 != x2) || (y1 != y2)) {
 80011f8:	4545      	cmp	r5, r8
 80011fa:	d104      	bne.n	8001206 <ssd1306_Line+0x62>
 80011fc:	42b4      	cmp	r4, r6
 80011fe:	d102      	bne.n	8001206 <ssd1306_Line+0x62>
            error += deltaX;
            y1 += signY;
        }
    }
    return;
}
 8001200:	b003      	add	sp, #12
 8001202:	e8bd 8ff0 	ldmia.w	sp!, {r4, r5, r6, r7, r8, r9, sl, fp, pc}
        ssd1306_DrawPixel(x1, y1, color);
 8001206:	4621      	mov	r1, r4
 8001208:	4628      	mov	r0, r5
 800120a:	9301      	str	r3, [sp, #4]
 800120c:	f7ff ff3a 	bl	8001084 <ssd1306_DrawPixel>
        if(error2 > -deltaY) {
 8001210:	9b01      	ldr	r3, [sp, #4]
        error2 = error * 2;
 8001212:	0079      	lsls	r1, r7, #1
        if(error2 > -deltaY) {
 8001214:	ebb3 0f47 	cmp.w	r3, r7, lsl #1
            x1 += signX;
 8001218:	bfbf      	itttt	lt
 800121a:	9800      	ldrlt	r0, [sp, #0]
            error -= deltaY;
 800121c:	eba7 070a 	sublt.w	r7, r7, sl
            x1 += signX;
 8001220:	182d      	addlt	r5, r5, r0
 8001222:	b2ed      	uxtblt	r5, r5
        if(error2 < deltaX) {
 8001224:	4589      	cmp	r9, r1
            y1 += signY;
 8001226:	bfc2      	ittt	gt
 8001228:	445c      	addgt	r4, fp
            error += deltaX;
 800122a:	444f      	addgt	r7, r9
            y1 += signY;
 800122c:	b2e4      	uxtbgt	r4, r4
 800122e:	e7e3      	b.n	80011f8 <ssd1306_Line+0x54>

08001230 <ssd1306_FillRectangle>:

    return;
}

/* Draw a filled rectangle */
void ssd1306_FillRectangle(uint8_t x1, uint8_t y1, uint8_t x2, uint8_t y2, SSD1306_COLOR color) {
 8001230:	e92d 41f0 	stmdb	sp!, {r4, r5, r6, r7, r8, lr}
 8001234:	4614      	mov	r4, r2
    uint8_t x_start = ((x1<=x2) ? x1 : x2);
 8001236:	42a0      	cmp	r0, r4
 8001238:	4680      	mov	r8, r0
 800123a:	bf28      	it	cs
 800123c:	46a0      	movcs	r8, r4
    uint8_t x_end   = ((x1<=x2) ? x2 : x1);
 800123e:	42a0      	cmp	r0, r4
void ssd1306_FillRectangle(uint8_t x1, uint8_t y1, uint8_t x2, uint8_t y2, SSD1306_COLOR color) {
 8001240:	4606      	mov	r6, r0
    uint8_t x_end   = ((x1<=x2) ? x2 : x1);
 8001242:	bf38      	it	cc
 8001244:	4626      	movcc	r6, r4
    uint8_t y_start = ((y1<=y2) ? y1 : y2);
 8001246:	4299      	cmp	r1, r3
 8001248:	460c      	mov	r4, r1
 800124a:	bf28      	it	cs
 800124c:	461c      	movcs	r4, r3
    uint8_t y_end   = ((y1<=y2) ? y2 : y1);
 800124e:	4299      	cmp	r1, r3
 8001250:	bf38      	it	cc
 8001252:	4619      	movcc	r1, r3
 8001254:	460f      	mov	r7, r1
void ssd1306_FillRectangle(uint8_t x1, uint8_t y1, uint8_t x2, uint8_t y2, SSD1306_COLOR color) {
 8001256:	f89d 2018 	ldrb.w	r2, [sp, #24]

    for (uint8_t y= y_start; (y<= y_end)&&(y<SSD1306_HEIGHT); y++) {
 800125a:	42bc      	cmp	r4, r7
 800125c:	d801      	bhi.n	8001262 <ssd1306_FillRectangle+0x32>
 800125e:	2c1f      	cmp	r4, #31
 8001260:	d90e      	bls.n	8001280 <ssd1306_FillRectangle+0x50>
        for (uint8_t x= x_start; (x<= x_end)&&(x<SSD1306_WIDTH); x++) {
            ssd1306_DrawPixel(x, y, color);
        }
    }
    return;
}
 8001262:	e8bd 81f0 	ldmia.w	sp!, {r4, r5, r6, r7, r8, pc}
            ssd1306_DrawPixel(x, y, color);
 8001266:	4628      	mov	r0, r5
 8001268:	4621      	mov	r1, r4
 800126a:	f7ff ff0b 	bl	8001084 <ssd1306_DrawPixel>
        for (uint8_t x= x_start; (x<= x_end)&&(x<SSD1306_WIDTH); x++) {
 800126e:	3501      	adds	r5, #1
 8001270:	b2ed      	uxtb	r5, r5
 8001272:	42b5      	cmp	r5, r6
 8001274:	d801      	bhi.n	800127a <ssd1306_FillRectangle+0x4a>
 8001276:	062b      	lsls	r3, r5, #24
 8001278:	d5f5      	bpl.n	8001266 <ssd1306_FillRectangle+0x36>
    for (uint8_t y= y_start; (y<= y_end)&&(y<SSD1306_HEIGHT); y++) {
 800127a:	3401      	adds	r4, #1
 800127c:	b2e4      	uxtb	r4, r4
 800127e:	e7ec      	b.n	800125a <ssd1306_FillRectangle+0x2a>
        for (uint8_t x= x_start; (x<= x_end)&&(x<SSD1306_WIDTH); x++) {
 8001280:	4645      	mov	r5, r8
 8001282:	e7f6      	b.n	8001272 <ssd1306_FillRectangle+0x42>

08001284 <ssd1306_SetContrast>:
        }
    }
    return;
}

void ssd1306_SetContrast(const uint8_t value) {
 8001284:	b510      	push	{r4, lr}
 8001286:	4604      	mov	r4, r0
    const uint8_t kSetContrastControlRegister = 0x81;
    ssd1306_WriteCommand(kSetContrastControlRegister);
 8001288:	2081      	movs	r0, #129	@ 0x81
 800128a:	f7ff fead 	bl	8000fe8 <ssd1306_WriteCommand>
    ssd1306_WriteCommand(value);
 800128e:	4620      	mov	r0, r4
}
 8001290:	e8bd 4010 	ldmia.w	sp!, {r4, lr}
    ssd1306_WriteCommand(value);
 8001294:	f7ff bea8 	b.w	8000fe8 <ssd1306_WriteCommand>

08001298 <ssd1306_SetDisplayOn>:

void ssd1306_SetDisplayOn(const uint8_t on) {
    uint8_t value;
    if (on) {
        value = 0xAF;   // Display on
        SSD1306.DisplayOn = 1;
 8001298:	2800      	cmp	r0, #0
    if (on) {
 800129a:	4603      	mov	r3, r0
        SSD1306.DisplayOn = 1;
 800129c:	bf0c      	ite	eq
 800129e:	4603      	moveq	r3, r0
 80012a0:	2301      	movne	r3, #1
 80012a2:	4a03      	ldr	r2, [pc, #12]	@ (80012b0 <ssd1306_SetDisplayOn+0x18>)
 80012a4:	bf0c      	ite	eq
 80012a6:	20ae      	moveq	r0, #174	@ 0xae
 80012a8:	20af      	movne	r0, #175	@ 0xaf
 80012aa:	7153      	strb	r3, [r2, #5]
    } else {
        value = 0xAE;   // Display off
        SSD1306.DisplayOn = 0;
    }
    ssd1306_WriteCommand(value);
 80012ac:	f7ff be9c 	b.w	8000fe8 <ssd1306_WriteCommand>
 80012b0:	20000544 	.word	0x20000544

080012b4 <ssd1306_Init>:
void ssd1306_Init(void) {
 80012b4:	b508      	push	{r3, lr}
    HAL_Delay(100);
 80012b6:	2064      	movs	r0, #100	@ 0x64
 80012b8:	f000 fac4 	bl	8001844 <HAL_Delay>
    ssd1306_SetDisplayOn(0); //display off
 80012bc:	2000      	movs	r0, #0
 80012be:	f7ff ffeb 	bl	8001298 <ssd1306_SetDisplayOn>
    ssd1306_WriteCommand(0x20); //Set Memory Addressing Mode
 80012c2:	2020      	movs	r0, #32
 80012c4:	f7ff fe90 	bl	8000fe8 <ssd1306_WriteCommand>
    ssd1306_WriteCommand(0x00); // 00b,Horizontal Addressing Mode; 01b,Vertical Addressing Mode;
 80012c8:	2000      	movs	r0, #0
 80012ca:	f7ff fe8d 	bl	8000fe8 <ssd1306_WriteCommand>
    ssd1306_WriteCommand(0xB0); //Set Page Start Address for Page Addressing Mode,0-7
 80012ce:	20b0      	movs	r0, #176	@ 0xb0
 80012d0:	f7ff fe8a 	bl	8000fe8 <ssd1306_WriteCommand>
    ssd1306_WriteCommand(0xC8); //Set COM Output Scan Direction
 80012d4:	20c8      	movs	r0, #200	@ 0xc8
 80012d6:	f7ff fe87 	bl	8000fe8 <ssd1306_WriteCommand>
    ssd1306_WriteCommand(0x00); //---set low column address
 80012da:	2000      	movs	r0, #0
 80012dc:	f7ff fe84 	bl	8000fe8 <ssd1306_WriteCommand>
    ssd1306_WriteCommand(0x10); //---set high column address
 80012e0:	2010      	movs	r0, #16
 80012e2:	f7ff fe81 	bl	8000fe8 <ssd1306_WriteCommand>
    ssd1306_WriteCommand(0x40); //--set start line address - CHECK
 80012e6:	2040      	movs	r0, #64	@ 0x40
 80012e8:	f7ff fe7e 	bl	8000fe8 <ssd1306_WriteCommand>
    ssd1306_SetContrast(0xFF);
 80012ec:	20ff      	movs	r0, #255	@ 0xff
 80012ee:	f7ff ffc9 	bl	8001284 <ssd1306_SetContrast>
    ssd1306_WriteCommand(0xA1); //--set segment re-map 0 to 127 - CHECK
 80012f2:	20a1      	movs	r0, #161	@ 0xa1
 80012f4:	f7ff fe78 	bl	8000fe8 <ssd1306_WriteCommand>
    ssd1306_WriteCommand(0xA6); //--set normal color
 80012f8:	20a6      	movs	r0, #166	@ 0xa6
 80012fa:	f7ff fe75 	bl	8000fe8 <ssd1306_WriteCommand>
    ssd1306_WriteCommand(0xA8); //--set multiplex ratio(1 to 64) - CHECK
 80012fe:	20a8      	movs	r0, #168	@ 0xa8
 8001300:	f7ff fe72 	bl	8000fe8 <ssd1306_WriteCommand>
    ssd1306_WriteCommand(0x1F); //
 8001304:	201f      	movs	r0, #31
 8001306:	f7ff fe6f 	bl	8000fe8 <ssd1306_WriteCommand>
    ssd1306_WriteCommand(0xA4); //0xa4,Output follows RAM content;0xa5,Output ignores RAM content
 800130a:	20a4      	movs	r0, #164	@ 0xa4
 800130c:	f7ff fe6c 	bl	8000fe8 <ssd1306_WriteCommand>
    ssd1306_WriteCommand(0xD3); //-set display offset - CHECK
 8001310:	20d3      	movs	r0, #211	@ 0xd3
 8001312:	f7ff fe69 	bl	8000fe8 <ssd1306_WriteCommand>
    ssd1306_WriteCommand(0x00); //-not offset
 8001316:	2000      	movs	r0, #0
 8001318:	f7ff fe66 	bl	8000fe8 <ssd1306_WriteCommand>
    ssd1306_WriteCommand(0xD5); //--set display clock divide ratio/oscillator frequency
 800131c:	20d5      	movs	r0, #213	@ 0xd5
 800131e:	f7ff fe63 	bl	8000fe8 <ssd1306_WriteCommand>
    ssd1306_WriteCommand(0xF0); //--set divide ratio
 8001322:	20f0      	movs	r0, #240	@ 0xf0
 8001324:	f7ff fe60 	bl	8000fe8 <ssd1306_WriteCommand>
    ssd1306_WriteCommand(0xD9); //--set pre-charge period
 8001328:	20d9      	movs	r0, #217	@ 0xd9
 800132a:	f7ff fe5d 	bl	8000fe8 <ssd1306_WriteCommand>
    ssd1306_WriteCommand(0x22); //
 800132e:	2022      	movs	r0, #34	@ 0x22
 8001330:	f7ff fe5a 	bl	8000fe8 <ssd1306_WriteCommand>
    ssd1306_WriteCommand(0xDA); //--set com pins hardware configuration - CHECK
 8001334:	20da      	movs	r0, #218	@ 0xda
 8001336:	f7ff fe57 	bl	8000fe8 <ssd1306_WriteCommand>
    ssd1306_WriteCommand(0x02);
 800133a:	2002      	movs	r0, #2
 800133c:	f7ff fe54 	bl	8000fe8 <ssd1306_WriteCommand>
    ssd1306_WriteCommand(0xDB); //--set vcomh
 8001340:	20db      	movs	r0, #219	@ 0xdb
 8001342:	f7ff fe51 	bl	8000fe8 <ssd1306_WriteCommand>
    ssd1306_WriteCommand(0x20); //0x20,0.77xVcc
 8001346:	2020      	movs	r0, #32
 8001348:	f7ff fe4e 	bl	8000fe8 <ssd1306_WriteCommand>
    ssd1306_WriteCommand(0x8D); //--set DC-DC enable
 800134c:	208d      	movs	r0, #141	@ 0x8d
 800134e:	f7ff fe4b 	bl	8000fe8 <ssd1306_WriteCommand>
    ssd1306_WriteCommand(0x14); //
 8001352:	2014      	movs	r0, #20
 8001354:	f7ff fe48 	bl	8000fe8 <ssd1306_WriteCommand>
    ssd1306_SetDisplayOn(1); //--turn on SSD1306 panel
 8001358:	2001      	movs	r0, #1
 800135a:	f7ff ff9d 	bl	8001298 <ssd1306_SetDisplayOn>
    ssd1306_Fill(Black);
 800135e:	2000      	movs	r0, #0
 8001360:	f7ff fe6a 	bl	8001038 <ssd1306_Fill>
    ssd1306_UpdateScreen();
 8001364:	f7ff fe74 	bl	8001050 <ssd1306_UpdateScreen>
    SSD1306.CurrentX = 0;
 8001368:	2200      	movs	r2, #0
 800136a:	4b03      	ldr	r3, [pc, #12]	@ (8001378 <ssd1306_Init+0xc4>)
 800136c:	801a      	strh	r2, [r3, #0]
    SSD1306.CurrentY = 0;
 800136e:	805a      	strh	r2, [r3, #2]
    SSD1306.Initialized = 1;
 8001370:	2201      	movs	r2, #1
 8001372:	711a      	strb	r2, [r3, #4]
}
 8001374:	bd08      	pop	{r3, pc}
 8001376:	bf00      	nop
 8001378:	20000544 	.word	0x20000544

0800137c <HAL_MspInit>:

  /* USER CODE BEGIN MspInit 0 */

  /* USER CODE END MspInit 0 */

  __HAL_RCC_AFIO_CLK_ENABLE();
 800137c:	4b11      	ldr	r3, [pc, #68]	@ (80013c4 <HAL_MspInit+0x48>)
{
 800137e:	b507      	push	{r0, r1, r2, lr}
  __HAL_RCC_AFIO_CLK_ENABLE();
 8001380:	699a      	ldr	r2, [r3, #24]
  __HAL_RCC_PWR_CLK_ENABLE();

  /* System interrupt init*/
  /* PendSV_IRQn interrupt configuration */
  HAL_NVIC_SetPriority(PendSV_IRQn, 15, 0);
 8001382:	210f      	movs	r1, #15
  __HAL_RCC_AFIO_CLK_ENABLE();
 8001384:	f042 0201 	orr.w	r2, r2, #1
 8001388:	619a      	str	r2, [r3, #24]
 800138a:	699a      	ldr	r2, [r3, #24]
  HAL_NVIC_SetPriority(PendSV_IRQn, 15, 0);
 800138c:	f06f 0001 	mvn.w	r0, #1
  __HAL_RCC_AFIO_CLK_ENABLE();
 8001390:	f002 0201 	and.w	r2, r2, #1
 8001394:	9200      	str	r2, [sp, #0]
 8001396:	9a00      	ldr	r2, [sp, #0]
  __HAL_RCC_PWR_CLK_ENABLE();
 8001398:	69da      	ldr	r2, [r3, #28]
 800139a:	f042 5280 	orr.w	r2, r2, #268435456	@ 0x10000000
 800139e:	61da      	str	r2, [r3, #28]
 80013a0:	69db      	ldr	r3, [r3, #28]
  HAL_NVIC_SetPriority(PendSV_IRQn, 15, 0);
 80013a2:	2200      	movs	r2, #0
  __HAL_RCC_PWR_CLK_ENABLE();
 80013a4:	f003 5380 	and.w	r3, r3, #268435456	@ 0x10000000
 80013a8:	9301      	str	r3, [sp, #4]
 80013aa:	9b01      	ldr	r3, [sp, #4]
  HAL_NVIC_SetPriority(PendSV_IRQn, 15, 0);
 80013ac:	f000 fd1a 	bl	8001de4 <HAL_NVIC_SetPriority>

  /** NOJTAG: JTAG-DP Disabled and SW-DP Enabled
  */
  __HAL_AFIO_REMAP_SWJ_NOJTAG();
 80013b0:	4a05      	ldr	r2, [pc, #20]	@ (80013c8 <HAL_MspInit+0x4c>)
 80013b2:	6853      	ldr	r3, [r2, #4]
 80013b4:	f023 63e0 	bic.w	r3, r3, #117440512	@ 0x7000000
 80013b8:	f043 7300 	orr.w	r3, r3, #33554432	@ 0x2000000
 80013bc:	6053      	str	r3, [r2, #4]

  /* USER CODE BEGIN MspInit 1 */

  /* USER CODE END MspInit 1 */
}
 80013be:	b003      	add	sp, #12
 80013c0:	f85d fb04 	ldr.w	pc, [sp], #4
 80013c4:	40021000 	.word	0x40021000
 80013c8:	40010000 	.word	0x40010000

080013cc <HAL_ADC_MspInit>:
* @param hadc: ADC handle pointer
* @retval None
*/
void HAL_ADC_MspInit(ADC_HandleTypeDef* hadc)
{
  GPIO_InitTypeDef GPIO_InitStruct = {0};
 80013cc:	2210      	movs	r2, #16
{
 80013ce:	b510      	push	{r4, lr}
 80013d0:	4604      	mov	r4, r0
 80013d2:	b088      	sub	sp, #32
  GPIO_InitTypeDef GPIO_InitStruct = {0};
 80013d4:	eb0d 0002 	add.w	r0, sp, r2
 80013d8:	2100      	movs	r1, #0
 80013da:	f004 fa17 	bl	800580c <memset>
  if(hadc->Instance==ADC1)
 80013de:	6823      	ldr	r3, [r4, #0]
 80013e0:	4a1f      	ldr	r2, [pc, #124]	@ (8001460 <HAL_ADC_MspInit+0x94>)
 80013e2:	4293      	cmp	r3, r2
 80013e4:	d124      	bne.n	8001430 <HAL_ADC_MspInit+0x64>
  {
  /* USER CODE BEGIN ADC1_MspInit 0 */

  /* USER CODE END ADC1_MspInit 0 */
    /* Peripheral clock enable */
    __HAL_RCC_ADC1_CLK_ENABLE();
 80013e6:	4b1f      	ldr	r3, [pc, #124]	@ (8001464 <HAL_ADC_MspInit+0x98>)
 80013e8:	699a      	ldr	r2, [r3, #24]
 80013ea:	f442 7200 	orr.w	r2, r2, #512	@ 0x200
 80013ee:	619a      	str	r2, [r3, #24]
 80013f0:	699a      	ldr	r2, [r3, #24]
 80013f2:	f402 7200 	and.w	r2, r2, #512	@ 0x200
 80013f6:	9200      	str	r2, [sp, #0]
 80013f8:	9a00      	ldr	r2, [sp, #0]

    __HAL_RCC_GPIOA_CLK_ENABLE();
 80013fa:	699a      	ldr	r2, [r3, #24]
 80013fc:	f042 0204 	orr.w	r2, r2, #4
 8001400:	619a      	str	r2, [r3, #24]
 8001402:	699b      	ldr	r3, [r3, #24]
 8001404:	f003 0304 	and.w	r3, r3, #4
 8001408:	9301      	str	r3, [sp, #4]
 800140a:	9b01      	ldr	r3, [sp, #4]
    /**ADC1 GPIO Configuration
    PA0-WKUP     ------> ADC1_IN0
    */
    GPIO_InitStruct.Pin = GPIO_PIN_0;
 800140c:	2301      	movs	r3, #1

    __HAL_RCC_GPIOA_CLK_ENABLE();
    /**ADC2 GPIO Configuration
    PA1     ------> ADC2_IN1
    */
    GPIO_InitStruct.Pin = GPIO_PIN_1;
 800140e:	9304      	str	r3, [sp, #16]
    GPIO_InitStruct.Mode = GPIO_MODE_ANALOG;
 8001410:	2303      	movs	r3, #3
    HAL_GPIO_Init(GPIOA, &GPIO_InitStruct);
 8001412:	4815      	ldr	r0, [pc, #84]	@ (8001468 <HAL_ADC_MspInit+0x9c>)
 8001414:	a904      	add	r1, sp, #16
    GPIO_InitStruct.Mode = GPIO_MODE_ANALOG;
 8001416:	9305      	str	r3, [sp, #20]
    HAL_GPIO_Init(GPIOA, &GPIO_InitStruct);
 8001418:	f000 fd88 	bl	8001f2c <HAL_GPIO_Init>

    /* ADC2 interrupt Init */
    HAL_NVIC_SetPriority(ADC1_2_IRQn, 5, 0);
 800141c:	2012      	movs	r0, #18
 800141e:	2200      	movs	r2, #0
 8001420:	2105      	movs	r1, #5
 8001422:	f000 fcdf 	bl	8001de4 <HAL_NVIC_SetPriority>
    HAL_NVIC_EnableIRQ(ADC1_2_IRQn);
 8001426:	2012      	movs	r0, #18
 8001428:	f000 fd0c 	bl	8001e44 <HAL_NVIC_EnableIRQ>
  /* USER CODE BEGIN ADC2_MspInit 1 */

  /* USER CODE END ADC2_MspInit 1 */
  }

}
 800142c:	b008      	add	sp, #32
 800142e:	bd10      	pop	{r4, pc}
  else if(hadc->Instance==ADC2)
 8001430:	4a0e      	ldr	r2, [pc, #56]	@ (800146c <HAL_ADC_MspInit+0xa0>)
 8001432:	4293      	cmp	r3, r2
 8001434:	d1fa      	bne.n	800142c <HAL_ADC_MspInit+0x60>
    __HAL_RCC_ADC2_CLK_ENABLE();
 8001436:	4b0b      	ldr	r3, [pc, #44]	@ (8001464 <HAL_ADC_MspInit+0x98>)
 8001438:	699a      	ldr	r2, [r3, #24]
 800143a:	f442 6280 	orr.w	r2, r2, #1024	@ 0x400
 800143e:	619a      	str	r2, [r3, #24]
 8001440:	699a      	ldr	r2, [r3, #24]
 8001442:	f402 6280 	and.w	r2, r2, #1024	@ 0x400
 8001446:	9202      	str	r2, [sp, #8]
 8001448:	9a02      	ldr	r2, [sp, #8]
    __HAL_RCC_GPIOA_CLK_ENABLE();
 800144a:	699a      	ldr	r2, [r3, #24]
 800144c:	f042 0204 	orr.w	r2, r2, #4
 8001450:	619a      	str	r2, [r3, #24]
 8001452:	699b      	ldr	r3, [r3, #24]
 8001454:	f003 0304 	and.w	r3, r3, #4
 8001458:	9303      	str	r3, [sp, #12]
 800145a:	9b03      	ldr	r3, [sp, #12]
    GPIO_InitStruct.Pin = GPIO_PIN_1;
 800145c:	2302      	movs	r3, #2
 800145e:	e7d6      	b.n	800140e <HAL_ADC_MspInit+0x42>
 8001460:	40012400 	.word	0x40012400
 8001464:	40021000 	.word	0x40021000
 8001468:	40010800 	.word	0x40010800
 800146c:	40012800 	.word	0x40012800

08001470 <HAL_I2C_MspInit>:
* This function configures the hardware resources used in this example
* @param hi2c: I2C handle pointer
* @retval None
*/
void HAL_I2C_MspInit(I2C_HandleTypeDef* hi2c)
{
 8001470:	b510      	push	{r4, lr}
 8001472:	4604      	mov	r4, r0
 8001474:	b086      	sub	sp, #24
  GPIO_InitTypeDef GPIO_InitStruct = {0};
 8001476:	2210      	movs	r2, #16
 8001478:	2100      	movs	r1, #0
 800147a:	a802      	add	r0, sp, #8
 800147c:	f004 f9c6 	bl	800580c <memset>
  if(hi2c->Instance==I2C1)
 8001480:	6822      	ldr	r2, [r4, #0]
 8001482:	4b15      	ldr	r3, [pc, #84]	@ (80014d8 <HAL_I2C_MspInit+0x68>)
 8001484:	429a      	cmp	r2, r3
 8001486:	d124      	bne.n	80014d2 <HAL_I2C_MspInit+0x62>
  {
  /* USER CODE BEGIN I2C1_MspInit 0 */

  /* USER CODE END I2C1_MspInit 0 */

    __HAL_RCC_GPIOB_CLK_ENABLE();
 8001488:	4c14      	ldr	r4, [pc, #80]	@ (80014dc <HAL_I2C_MspInit+0x6c>)
    /**I2C1 GPIO Configuration
    PB8     ------> I2C1_SCL
    PB9     ------> I2C1_SDA
    */
    GPIO_InitStruct.Pin = GPIO_PIN_8|GPIO_PIN_9;
    GPIO_InitStruct.Mode = GPIO_MODE_AF_OD;
 800148a:	f44f 7240 	mov.w	r2, #768	@ 0x300
    __HAL_RCC_GPIOB_CLK_ENABLE();
 800148e:	69a3      	ldr	r3, [r4, #24]
    GPIO_InitStruct.Pull = GPIO_NOPULL;
    GPIO_InitStruct.Speed = GPIO_SPEED_FREQ_HIGH;
    HAL_GPIO_Init(GPIOB, &GPIO_InitStruct);
 8001490:	4813      	ldr	r0, [pc, #76]	@ (80014e0 <HAL_I2C_MspInit+0x70>)
    __HAL_RCC_GPIOB_CLK_ENABLE();
 8001492:	f043 0308 	orr.w	r3, r3, #8
 8001496:	61a3      	str	r3, [r4, #24]
 8001498:	69a3      	ldr	r3, [r4, #24]
    HAL_GPIO_Init(GPIOB, &GPIO_InitStruct);
 800149a:	a902      	add	r1, sp, #8
    __HAL_RCC_GPIOB_CLK_ENABLE();
 800149c:	f003 0308 	and.w	r3, r3, #8
 80014a0:	9300      	str	r3, [sp, #0]
 80014a2:	9b00      	ldr	r3, [sp, #0]
    GPIO_InitStruct.Mode = GPIO_MODE_AF_OD;
 80014a4:	2312      	movs	r3, #18
 80014a6:	e9cd 2302 	strd	r2, r3, [sp, #8]
    GPIO_InitStruct.Speed = GPIO_SPEED_FREQ_HIGH;
 80014aa:	2303      	movs	r3, #3
 80014ac:	9305      	str	r3, [sp, #20]
    HAL_GPIO_Init(GPIOB, &GPIO_InitStruct);
 80014ae:	f000 fd3d 	bl	8001f2c <HAL_GPIO_Init>

    __HAL_AFIO_REMAP_I2C1_ENABLE();
 80014b2:	4a0c      	ldr	r2, [pc, #48]	@ (80014e4 <HAL_I2C_MspInit+0x74>)
 80014b4:	6853      	ldr	r3, [r2, #4]
 80014b6:	f043 63e0 	orr.w	r3, r3, #117440512	@ 0x7000000
 80014ba:	f043 0302 	orr.w	r3, r3, #2
 80014be:	6053      	str	r3, [r2, #4]

    /* Peripheral clock enable */
    __HAL_RCC_I2C1_CLK_ENABLE();
 80014c0:	69e3      	ldr	r3, [r4, #28]
 80014c2:	f443 1300 	orr.w	r3, r3, #2097152	@ 0x200000
 80014c6:	61e3      	str	r3, [r4, #28]
 80014c8:	69e3      	ldr	r3, [r4, #28]
 80014ca:	f403 1300 	and.w	r3, r3, #2097152	@ 0x200000
 80014ce:	9301      	str	r3, [sp, #4]
 80014d0:	9b01      	ldr	r3, [sp, #4]
  /* USER CODE BEGIN I2C1_MspInit 1 */

  /* USER CODE END I2C1_MspInit 1 */
  }

}
 80014d2:	b006      	add	sp, #24
 80014d4:	bd10      	pop	{r4, pc}
 80014d6:	bf00      	nop
 80014d8:	40005400 	.word	0x40005400
 80014dc:	40021000 	.word	0x40021000
 80014e0:	40010c00 	.word	0x40010c00
 80014e4:	40010000 	.word	0x40010000

080014e8 <HAL_TIM_Base_MspInit>:
* @param htim_base: TIM_Base handle pointer
* @retval None
*/
void HAL_TIM_Base_MspInit(TIM_HandleTypeDef* htim_base)
{
  if(htim_base->Instance==TIM1)
 80014e8:	6803      	ldr	r3, [r0, #0]
 80014ea:	4a0f      	ldr	r2, [pc, #60]	@ (8001528 <HAL_TIM_Base_MspInit+0x40>)
{
 80014ec:	b082      	sub	sp, #8
  if(htim_base->Instance==TIM1)
 80014ee:	4293      	cmp	r3, r2
 80014f0:	d10b      	bne.n	800150a <HAL_TIM_Base_MspInit+0x22>
  {
  /* USER CODE BEGIN TIM1_MspInit 0 */

  /* USER CODE END TIM1_MspInit 0 */
    /* Peripheral clock enable */
    __HAL_RCC_TIM1_CLK_ENABLE();
 80014f2:	4b0e      	ldr	r3, [pc, #56]	@ (800152c <HAL_TIM_Base_MspInit+0x44>)
 80014f4:	699a      	ldr	r2, [r3, #24]
 80014f6:	f442 6200 	orr.w	r2, r2, #2048	@ 0x800
 80014fa:	619a      	str	r2, [r3, #24]
 80014fc:	699b      	ldr	r3, [r3, #24]
 80014fe:	f403 6300 	and.w	r3, r3, #2048	@ 0x800
 8001502:	9300      	str	r3, [sp, #0]
 8001504:	9b00      	ldr	r3, [sp, #0]
  /* USER CODE BEGIN TIM2_MspInit 1 */

  /* USER CODE END TIM2_MspInit 1 */
  }

}
 8001506:	b002      	add	sp, #8
 8001508:	4770      	bx	lr
  else if(htim_base->Instance==TIM2)
 800150a:	f1b3 4f80 	cmp.w	r3, #1073741824	@ 0x40000000
 800150e:	d1fa      	bne.n	8001506 <HAL_TIM_Base_MspInit+0x1e>
    __HAL_RCC_TIM2_CLK_ENABLE();
 8001510:	f503 3304 	add.w	r3, r3, #135168	@ 0x21000
 8001514:	69da      	ldr	r2, [r3, #28]
 8001516:	f042 0201 	orr.w	r2, r2, #1
 800151a:	61da      	str	r2, [r3, #28]
 800151c:	69db      	ldr	r3, [r3, #28]
 800151e:	f003 0301 	and.w	r3, r3, #1
 8001522:	9301      	str	r3, [sp, #4]
 8001524:	9b01      	ldr	r3, [sp, #4]
}
 8001526:	e7ee      	b.n	8001506 <HAL_TIM_Base_MspInit+0x1e>
 8001528:	40012c00 	.word	0x40012c00
 800152c:	40021000 	.word	0x40021000

08001530 <HAL_TIM_MspPostInit>:

void HAL_TIM_MspPostInit(TIM_HandleTypeDef* htim)
{
 8001530:	b510      	push	{r4, lr}
 8001532:	4604      	mov	r4, r0
 8001534:	b086      	sub	sp, #24
  GPIO_InitTypeDef GPIO_InitStruct = {0};
 8001536:	2210      	movs	r2, #16
 8001538:	2100      	movs	r1, #0
 800153a:	a802      	add	r0, sp, #8
 800153c:	f004 f966 	bl	800580c <memset>
  if(htim->Instance==TIM1)
 8001540:	6823      	ldr	r3, [r4, #0]
 8001542:	4a1d      	ldr	r2, [pc, #116]	@ (80015b8 <HAL_TIM_MspPostInit+0x88>)
 8001544:	4293      	cmp	r3, r2
 8001546:	d115      	bne.n	8001574 <HAL_TIM_MspPostInit+0x44>
  {
  /* USER CODE BEGIN TIM1_MspPostInit 0 */

  /* USER CODE END TIM1_MspPostInit 0 */
    __HAL_RCC_GPIOA_CLK_ENABLE();
 8001548:	4b1c      	ldr	r3, [pc, #112]	@ (80015bc <HAL_TIM_MspPostInit+0x8c>)
    /**TIM1 GPIO Configuration
    PA9     ------> TIM1_CH2
    */
    GPIO_InitStruct.Pin = GPIO_PIN_9;
    GPIO_InitStruct.Mode = GPIO_MODE_AF_PP;
 800154a:	f44f 7100 	mov.w	r1, #512	@ 0x200
    __HAL_RCC_GPIOA_CLK_ENABLE();
 800154e:	699a      	ldr	r2, [r3, #24]
    GPIO_InitStruct.Speed = GPIO_SPEED_FREQ_LOW;
    HAL_GPIO_Init(GPIOA, &GPIO_InitStruct);
 8001550:	481b      	ldr	r0, [pc, #108]	@ (80015c0 <HAL_TIM_MspPostInit+0x90>)
    __HAL_RCC_GPIOA_CLK_ENABLE();
 8001552:	f042 0204 	orr.w	r2, r2, #4
 8001556:	619a      	str	r2, [r3, #24]
 8001558:	699b      	ldr	r3, [r3, #24]
 800155a:	f003 0304 	and.w	r3, r3, #4
 800155e:	9300      	str	r3, [sp, #0]
 8001560:	9b00      	ldr	r3, [sp, #0]
    GPIO_InitStruct.Mode = GPIO_MODE_AF_PP;
 8001562:	2302      	movs	r3, #2
 8001564:	e9cd 1302 	strd	r1, r3, [sp, #8]
    HAL_GPIO_Init(GPIOA, &GPIO_InitStruct);
 8001568:	a902      	add	r1, sp, #8
    GPIO_InitStruct.Speed = GPIO_SPEED_FREQ_LOW;
 800156a:	9305      	str	r3, [sp, #20]
    HAL_GPIO_Init(GPIOA, &GPIO_InitStruct);
 800156c:	f000 fcde 	bl	8001f2c <HAL_GPIO_Init>
  /* USER CODE BEGIN TIM2_MspPostInit 1 */

  /* USER CODE END TIM2_MspPostInit 1 */
  }

}
 8001570:	b006      	add	sp, #24
 8001572:	bd10      	pop	{r4, pc}
  else if(htim->Instance==TIM2)
 8001574:	f1b3 4f80 	cmp.w	r3, #1073741824	@ 0x40000000
 8001578:	d1fa      	bne.n	8001570 <HAL_TIM_MspPostInit+0x40>
    __HAL_RCC_GPIOA_CLK_ENABLE();
 800157a:	f503 3304 	add.w	r3, r3, #135168	@ 0x21000
 800157e:	699a      	ldr	r2, [r3, #24]
    HAL_GPIO_Init(sig_out_2_GPIO_Port, &GPIO_InitStruct);
 8001580:	480f      	ldr	r0, [pc, #60]	@ (80015c0 <HAL_TIM_MspPostInit+0x90>)
    __HAL_RCC_GPIOA_CLK_ENABLE();
 8001582:	f042 0204 	orr.w	r2, r2, #4
 8001586:	619a      	str	r2, [r3, #24]
 8001588:	699b      	ldr	r3, [r3, #24]
    GPIO_InitStruct.Mode = GPIO_MODE_AF_PP;
 800158a:	f44f 4200 	mov.w	r2, #32768	@ 0x8000
    __HAL_RCC_GPIOA_CLK_ENABLE();
 800158e:	f003 0304 	and.w	r3, r3, #4
 8001592:	9301      	str	r3, [sp, #4]
 8001594:	9b01      	ldr	r3, [sp, #4]
    GPIO_InitStruct.Mode = GPIO_MODE_AF_PP;
 8001596:	2302      	movs	r3, #2
    HAL_GPIO_Init(sig_out_2_GPIO_Port, &GPIO_InitStruct);
 8001598:	a902      	add	r1, sp, #8
    GPIO_InitStruct.Mode = GPIO_MODE_AF_PP;
 800159a:	e9cd 2302 	strd	r2, r3, [sp, #8]
    GPIO_InitStruct.Speed = GPIO_SPEED_FREQ_LOW;
 800159e:	9305      	str	r3, [sp, #20]
    HAL_GPIO_Init(sig_out_2_GPIO_Port, &GPIO_InitStruct);
 80015a0:	f000 fcc4 	bl	8001f2c <HAL_GPIO_Init>
    __HAL_AFIO_REMAP_TIM2_PARTIAL_1();
 80015a4:	4a07      	ldr	r2, [pc, #28]	@ (80015c4 <HAL_TIM_MspPostInit+0x94>)
 80015a6:	6853      	ldr	r3, [r2, #4]
 80015a8:	f423 7340 	bic.w	r3, r3, #768	@ 0x300
 80015ac:	f043 63e0 	orr.w	r3, r3, #117440512	@ 0x7000000
 80015b0:	f443 7380 	orr.w	r3, r3, #256	@ 0x100
 80015b4:	6053      	str	r3, [r2, #4]
}
 80015b6:	e7db      	b.n	8001570 <HAL_TIM_MspPostInit+0x40>
 80015b8:	40012c00 	.word	0x40012c00
 80015bc:	40021000 	.word	0x40021000
 80015c0:	40010800 	.word	0x40010800
 80015c4:	40010000 	.word	0x40010000

080015c8 <HAL_UART_MspInit>:
* This function configures the hardware resources used in this example
* @param huart: UART handle pointer
* @retval None
*/
void HAL_UART_MspInit(UART_HandleTypeDef* huart)
{
 80015c8:	b510      	push	{r4, lr}
 80015ca:	4604      	mov	r4, r0
 80015cc:	b086      	sub	sp, #24
  GPIO_InitTypeDef GPIO_InitStruct = {0};
 80015ce:	2210      	movs	r2, #16
 80015d0:	2100      	movs	r1, #0
 80015d2:	a802      	add	r0, sp, #8
 80015d4:	f004 f91a 	bl	800580c <memset>
  if(huart->Instance==USART1)
 80015d8:	6822      	ldr	r2, [r4, #0]
 80015da:	4b1d      	ldr	r3, [pc, #116]	@ (8001650 <HAL_UART_MspInit+0x88>)
 80015dc:	429a      	cmp	r2, r3
 80015de:	d135      	bne.n	800164c <HAL_UART_MspInit+0x84>
  {
  /* USER CODE BEGIN USART1_MspInit 0 */

  /* USER CODE END USART1_MspInit 0 */
    /* Peripheral clock enable */
    __HAL_RCC_USART1_CLK_ENABLE();
 80015e0:	f503 4358 	add.w	r3, r3, #55296	@ 0xd800
 80015e4:	699a      	ldr	r2, [r3, #24]
    PB7     ------> USART1_RX
    */
    GPIO_InitStruct.Pin = GPIO_PIN_6;
    GPIO_InitStruct.Mode = GPIO_MODE_AF_PP;
    GPIO_InitStruct.Speed = GPIO_SPEED_FREQ_HIGH;
    HAL_GPIO_Init(GPIOB, &GPIO_InitStruct);
 80015e6:	481b      	ldr	r0, [pc, #108]	@ (8001654 <HAL_UART_MspInit+0x8c>)
    __HAL_RCC_USART1_CLK_ENABLE();
 80015e8:	f442 4280 	orr.w	r2, r2, #16384	@ 0x4000
 80015ec:	619a      	str	r2, [r3, #24]
 80015ee:	699a      	ldr	r2, [r3, #24]
    HAL_GPIO_Init(GPIOB, &GPIO_InitStruct);
 80015f0:	a902      	add	r1, sp, #8
    __HAL_RCC_USART1_CLK_ENABLE();
 80015f2:	f402 4280 	and.w	r2, r2, #16384	@ 0x4000
 80015f6:	9200      	str	r2, [sp, #0]
 80015f8:	9a00      	ldr	r2, [sp, #0]
    __HAL_RCC_GPIOB_CLK_ENABLE();
 80015fa:	699a      	ldr	r2, [r3, #24]

    GPIO_InitStruct.Pin = GPIO_PIN_7;
    GPIO_InitStruct.Mode = GPIO_MODE_INPUT;
 80015fc:	2400      	movs	r4, #0
    __HAL_RCC_GPIOB_CLK_ENABLE();
 80015fe:	f042 0208 	orr.w	r2, r2, #8
 8001602:	619a      	str	r2, [r3, #24]
 8001604:	699b      	ldr	r3, [r3, #24]
    GPIO_InitStruct.Mode = GPIO_MODE_AF_PP;
 8001606:	2240      	movs	r2, #64	@ 0x40
    __HAL_RCC_GPIOB_CLK_ENABLE();
 8001608:	f003 0308 	and.w	r3, r3, #8
 800160c:	9301      	str	r3, [sp, #4]
 800160e:	9b01      	ldr	r3, [sp, #4]
    GPIO_InitStruct.Mode = GPIO_MODE_AF_PP;
 8001610:	2302      	movs	r3, #2
 8001612:	e9cd 2302 	strd	r2, r3, [sp, #8]
    GPIO_InitStruct.Speed = GPIO_SPEED_FREQ_HIGH;
 8001616:	2303      	movs	r3, #3
 8001618:	9305      	str	r3, [sp, #20]
    HAL_GPIO_Init(GPIOB, &GPIO_InitStruct);
 800161a:	f000 fc87 	bl	8001f2c <HAL_GPIO_Init>
    GPIO_InitStruct.Mode = GPIO_MODE_INPUT;
 800161e:	2380      	movs	r3, #128	@ 0x80
    GPIO_InitStruct.Pull = GPIO_NOPULL;
    HAL_GPIO_Init(GPIOB, &GPIO_InitStruct);
 8001620:	480c      	ldr	r0, [pc, #48]	@ (8001654 <HAL_UART_MspInit+0x8c>)
 8001622:	a902      	add	r1, sp, #8
    GPIO_InitStruct.Mode = GPIO_MODE_INPUT;
 8001624:	e9cd 3402 	strd	r3, r4, [sp, #8]
    GPIO_InitStruct.Pull = GPIO_NOPULL;
 8001628:	9404      	str	r4, [sp, #16]
    HAL_GPIO_Init(GPIOB, &GPIO_InitStruct);
 800162a:	f000 fc7f 	bl	8001f2c <HAL_GPIO_Init>

    __HAL_AFIO_REMAP_USART1_ENABLE();
 800162e:	4a0a      	ldr	r2, [pc, #40]	@ (8001658 <HAL_UART_MspInit+0x90>)

    /* USART1 interrupt Init */
    HAL_NVIC_SetPriority(USART1_IRQn, 5, 0);
 8001630:	2025      	movs	r0, #37	@ 0x25
    __HAL_AFIO_REMAP_USART1_ENABLE();
 8001632:	6853      	ldr	r3, [r2, #4]
    HAL_NVIC_SetPriority(USART1_IRQn, 5, 0);
 8001634:	2105      	movs	r1, #5
    __HAL_AFIO_REMAP_USART1_ENABLE();
 8001636:	f043 63e0 	orr.w	r3, r3, #117440512	@ 0x7000000
 800163a:	f043 0304 	orr.w	r3, r3, #4
 800163e:	6053      	str	r3, [r2, #4]
    HAL_NVIC_SetPriority(USART1_IRQn, 5, 0);
 8001640:	4622      	mov	r2, r4
 8001642:	f000 fbcf 	bl	8001de4 <HAL_NVIC_SetPriority>
    HAL_NVIC_EnableIRQ(USART1_IRQn);
 8001646:	2025      	movs	r0, #37	@ 0x25
 8001648:	f000 fbfc 	bl	8001e44 <HAL_NVIC_EnableIRQ>
  /* USER CODE BEGIN USART1_MspInit 1 */

  /* USER CODE END USART1_MspInit 1 */
  }

}
 800164c:	b006      	add	sp, #24
 800164e:	bd10      	pop	{r4, pc}
 8001650:	40013800 	.word	0x40013800
 8001654:	40010c00 	.word	0x40010c00
 8001658:	40010000 	.word	0x40010000

0800165c <HAL_PCD_MspInit>:
* @param hpcd: PCD handle pointer
* @retval None
*/
void HAL_PCD_MspInit(PCD_HandleTypeDef* hpcd)
{
  if(hpcd->Instance==USB)
 800165c:	6802      	ldr	r2, [r0, #0]
 800165e:	4b08      	ldr	r3, [pc, #32]	@ (8001680 <HAL_PCD_MspInit+0x24>)
{
 8001660:	b082      	sub	sp, #8
  if(hpcd->Instance==USB)
 8001662:	429a      	cmp	r2, r3
 8001664:	d10a      	bne.n	800167c <HAL_PCD_MspInit+0x20>
  {
  /* USER CODE BEGIN USB_MspInit 0 */

  /* USER CODE END USB_MspInit 0 */
    /* Peripheral clock enable */
    __HAL_RCC_USB_CLK_ENABLE();
 8001666:	f503 33da 	add.w	r3, r3, #111616	@ 0x1b400
 800166a:	69da      	ldr	r2, [r3, #28]
 800166c:	f442 0200 	orr.w	r2, r2, #8388608	@ 0x800000
 8001670:	61da      	str	r2, [r3, #28]
 8001672:	69db      	ldr	r3, [r3, #28]
 8001674:	f403 0300 	and.w	r3, r3, #8388608	@ 0x800000
 8001678:	9301      	str	r3, [sp, #4]
 800167a:	9b01      	ldr	r3, [sp, #4]
  /* USER CODE BEGIN USB_MspInit 1 */

  /* USER CODE END USB_MspInit 1 */
  }

}
 800167c:	b002      	add	sp, #8
 800167e:	4770      	bx	lr
 8001680:	40005c00 	.word	0x40005c00

08001684 <HAL_InitTick>:
  uint32_t              uwPrescalerValue = 0U;
  uint32_t              pFLatency;
  HAL_StatusTypeDef     status = HAL_OK;

  /* Enable TIM3 clock */
  __HAL_RCC_TIM3_CLK_ENABLE();
 8001684:	4b21      	ldr	r3, [pc, #132]	@ (800170c <HAL_InitTick+0x88>)
{
 8001686:	b570      	push	{r4, r5, r6, lr}
  __HAL_RCC_TIM3_CLK_ENABLE();
 8001688:	69da      	ldr	r2, [r3, #28]
{
 800168a:	b088      	sub	sp, #32
  __HAL_RCC_TIM3_CLK_ENABLE();
 800168c:	f042 0202 	orr.w	r2, r2, #2
 8001690:	61da      	str	r2, [r3, #28]
 8001692:	69db      	ldr	r3, [r3, #28]
{
 8001694:	4605      	mov	r5, r0
  __HAL_RCC_TIM3_CLK_ENABLE();
 8001696:	f003 0302 	and.w	r3, r3, #2
 800169a:	9302      	str	r3, [sp, #8]

  /* Get clock configuration */
  HAL_RCC_GetClockConfig(&clkconfig, &pFLatency);
 800169c:	a901      	add	r1, sp, #4
 800169e:	a803      	add	r0, sp, #12
  __HAL_RCC_TIM3_CLK_ENABLE();
 80016a0:	9b02      	ldr	r3, [sp, #8]
  HAL_RCC_GetClockConfig(&clkconfig, &pFLatency);
 80016a2:	f001 fa93 	bl	8002bcc <HAL_RCC_GetClockConfig>

  /* Get APB1 prescaler */
  uwAPB1Prescaler = clkconfig.APB1CLKDivider;
  /* Compute TIM3 clock */
  if (uwAPB1Prescaler == RCC_HCLK_DIV1)
 80016a6:	9b06      	ldr	r3, [sp, #24]
 80016a8:	bb4b      	cbnz	r3, 80016fe <HAL_InitTick+0x7a>
  {
    uwTimclock = HAL_RCC_GetPCLK1Freq();
 80016aa:	f001 fa6f 	bl	8002b8c <HAL_RCC_GetPCLK1Freq>

  /* Compute the prescaler value to have TIM3 counter clock equal to 1MHz */
  uwPrescalerValue = (uint32_t) ((uwTimclock / 1000000U) - 1U);

  /* Initialize TIM3 */
  htim3.Instance = TIM3;
 80016ae:	4e18      	ldr	r6, [pc, #96]	@ (8001710 <HAL_InitTick+0x8c>)
 80016b0:	4b18      	ldr	r3, [pc, #96]	@ (8001714 <HAL_InitTick+0x90>)
 80016b2:	6033      	str	r3, [r6, #0]
  + Period = [(TIM3CLK/1000) - 1]. to have a (1/1000) s time base.
  + Prescaler = (uwTimclock/1000000 - 1) to have a 1MHz counter clock.
  + ClockDivision = 0
  + Counter direction = Up
  */
  htim3.Init.Period = (1000000U / 1000U) - 1U;
 80016b4:	f240 33e7 	movw	r3, #999	@ 0x3e7
 80016b8:	60f3      	str	r3, [r6, #12]
  uwPrescalerValue = (uint32_t) ((uwTimclock / 1000000U) - 1U);
 80016ba:	4b17      	ldr	r3, [pc, #92]	@ (8001718 <HAL_InitTick+0x94>)
 80016bc:	fbb0 f3f3 	udiv	r3, r0, r3
 80016c0:	3b01      	subs	r3, #1
  htim3.Init.Prescaler = uwPrescalerValue;
 80016c2:	6073      	str	r3, [r6, #4]
  htim3.Init.ClockDivision = 0;
 80016c4:	2300      	movs	r3, #0
  htim3.Init.CounterMode = TIM_COUNTERMODE_UP;
  htim3.Init.AutoReloadPreload = TIM_AUTORELOAD_PRELOAD_DISABLE;

  status = HAL_TIM_Base_Init(&htim3);
 80016c6:	4630      	mov	r0, r6
  htim3.Init.ClockDivision = 0;
 80016c8:	6133      	str	r3, [r6, #16]
  htim3.Init.CounterMode = TIM_COUNTERMODE_UP;
 80016ca:	60b3      	str	r3, [r6, #8]
  htim3.Init.AutoReloadPreload = TIM_AUTORELOAD_PRELOAD_DISABLE;
 80016cc:	61b3      	str	r3, [r6, #24]
  status = HAL_TIM_Base_Init(&htim3);
 80016ce:	f001 fcdf 	bl	8003090 <HAL_TIM_Base_Init>
  if (status == HAL_OK)
 80016d2:	4604      	mov	r4, r0
 80016d4:	b980      	cbnz	r0, 80016f8 <HAL_InitTick+0x74>
  {
    /* Start the TIM time Base generation in interrupt mode */
    status = HAL_TIM_Base_Start_IT(&htim3);
 80016d6:	4630      	mov	r0, r6
 80016d8:	f001 fbe2 	bl	8002ea0 <HAL_TIM_Base_Start_IT>
    if (status == HAL_OK)
 80016dc:	4604      	mov	r4, r0
 80016de:	b958      	cbnz	r0, 80016f8 <HAL_InitTick+0x74>
    {
    /* Enable the TIM3 global Interrupt */
        HAL_NVIC_EnableIRQ(TIM3_IRQn);
 80016e0:	201d      	movs	r0, #29
 80016e2:	f000 fbaf 	bl	8001e44 <HAL_NVIC_EnableIRQ>
      /* Configure the SysTick IRQ priority */
      if (TickPriority < (1UL << __NVIC_PRIO_BITS))
 80016e6:	2d0f      	cmp	r5, #15
 80016e8:	d80d      	bhi.n	8001706 <HAL_InitTick+0x82>
      {
        /* Configure the TIM IRQ priority */
        HAL_NVIC_SetPriority(TIM3_IRQn, TickPriority, 0U);
 80016ea:	4622      	mov	r2, r4
 80016ec:	4629      	mov	r1, r5
 80016ee:	201d      	movs	r0, #29
 80016f0:	f000 fb78 	bl	8001de4 <HAL_NVIC_SetPriority>
        uwTickPrio = TickPriority;
 80016f4:	4b09      	ldr	r3, [pc, #36]	@ (800171c <HAL_InitTick+0x98>)
 80016f6:	601d      	str	r5, [r3, #0]
    }
  }

 /* Return function status */
  return status;
}
 80016f8:	4620      	mov	r0, r4
 80016fa:	b008      	add	sp, #32
 80016fc:	bd70      	pop	{r4, r5, r6, pc}
    uwTimclock = 2UL * HAL_RCC_GetPCLK1Freq();
 80016fe:	f001 fa45 	bl	8002b8c <HAL_RCC_GetPCLK1Freq>
 8001702:	0040      	lsls	r0, r0, #1
 8001704:	e7d3      	b.n	80016ae <HAL_InitTick+0x2a>
        status = HAL_ERROR;
 8001706:	2401      	movs	r4, #1
 8001708:	e7f6      	b.n	80016f8 <HAL_InitTick+0x74>
 800170a:	bf00      	nop
 800170c:	40021000 	.word	0x40021000
 8001710:	2000074c 	.word	0x2000074c
 8001714:	40000400 	.word	0x40000400
 8001718:	000f4240 	.word	0x000f4240
 800171c:	20000024 	.word	0x20000024

08001720 <NMI_Handler>:
{
  /* USER CODE BEGIN NonMaskableInt_IRQn 0 */

  /* USER CODE END NonMaskableInt_IRQn 0 */
  /* USER CODE BEGIN NonMaskableInt_IRQn 1 */
   while (1)
 8001720:	e7fe      	b.n	8001720 <NMI_Handler>

08001722 <HardFault_Handler>:
void HardFault_Handler(void)
{
  /* USER CODE BEGIN HardFault_IRQn 0 */

  /* USER CODE END HardFault_IRQn 0 */
  while (1)
 8001722:	e7fe      	b.n	8001722 <HardFault_Handler>

08001724 <MemManage_Handler>:
void MemManage_Handler(void)
{
  /* USER CODE BEGIN MemoryManagement_IRQn 0 */

  /* USER CODE END MemoryManagement_IRQn 0 */
  while (1)
 8001724:	e7fe      	b.n	8001724 <MemManage_Handler>

08001726 <BusFault_Handler>:
void BusFault_Handler(void)
{
  /* USER CODE BEGIN BusFault_IRQn 0 */

  /* USER CODE END BusFault_IRQn 0 */
  while (1)
 8001726:	e7fe      	b.n	8001726 <BusFault_Handler>

08001728 <UsageFault_Handler>:
void UsageFault_Handler(void)
{
  /* USER CODE BEGIN UsageFault_IRQn 0 */

  /* USER CODE END UsageFault_IRQn 0 */
  while (1)
 8001728:	e7fe      	b.n	8001728 <UsageFault_Handler>

0800172a <DebugMon_Handler>:

  /* USER CODE END DebugMonitor_IRQn 0 */
  /* USER CODE BEGIN DebugMonitor_IRQn 1 */

  /* USER CODE END DebugMonitor_IRQn 1 */
}
 800172a:	4770      	bx	lr

0800172c <EXTI2_IRQHandler>:
void EXTI2_IRQHandler(void)
{
  /* USER CODE BEGIN EXTI2_IRQn 0 */

  /* USER CODE END EXTI2_IRQn 0 */
  HAL_GPIO_EXTI_IRQHandler(select_1_Pin);
 800172c:	2004      	movs	r0, #4
 800172e:	f000 bcdd 	b.w	80020ec <HAL_GPIO_EXTI_IRQHandler>

08001732 <EXTI3_IRQHandler>:
void EXTI3_IRQHandler(void)
{
  /* USER CODE BEGIN EXTI3_IRQn 0 */

  /* USER CODE END EXTI3_IRQn 0 */
  HAL_GPIO_EXTI_IRQHandler(select_2_Pin);
 8001732:	2008      	movs	r0, #8
 8001734:	f000 bcda 	b.w	80020ec <HAL_GPIO_EXTI_IRQHandler>

08001738 <ADC1_2_IRQHandler>:

/**
  * @brief This function handles ADC1 and ADC2 global interrupts.
  */
void ADC1_2_IRQHandler(void)
{
 8001738:	b508      	push	{r3, lr}
  /* USER CODE BEGIN ADC1_2_IRQn 0 */

  /* USER CODE END ADC1_2_IRQn 0 */
  HAL_ADC_IRQHandler(&hadc1);
 800173a:	4804      	ldr	r0, [pc, #16]	@ (800174c <ADC1_2_IRQHandler+0x14>)
 800173c:	f000 f898 	bl	8001870 <HAL_ADC_IRQHandler>
  HAL_ADC_IRQHandler(&hadc2);
  /* USER CODE BEGIN ADC1_2_IRQn 1 */

  /* USER CODE END ADC1_2_IRQn 1 */
}
 8001740:	e8bd 4008 	ldmia.w	sp!, {r3, lr}
  HAL_ADC_IRQHandler(&hadc2);
 8001744:	4802      	ldr	r0, [pc, #8]	@ (8001750 <ADC1_2_IRQHandler+0x18>)
 8001746:	f000 b893 	b.w	8001870 <HAL_ADC_IRQHandler>
 800174a:	bf00      	nop
 800174c:	200004dc 	.word	0x200004dc
 8001750:	200004ac 	.word	0x200004ac

08001754 <TIM3_IRQHandler>:
void TIM3_IRQHandler(void)
{
  /* USER CODE BEGIN TIM3_IRQn 0 */

  /* USER CODE END TIM3_IRQn 0 */
  HAL_TIM_IRQHandler(&htim3);
 8001754:	4801      	ldr	r0, [pc, #4]	@ (800175c <TIM3_IRQHandler+0x8>)
 8001756:	f001 bbce 	b.w	8002ef6 <HAL_TIM_IRQHandler>
 800175a:	bf00      	nop
 800175c:	2000074c 	.word	0x2000074c

08001760 <USART1_IRQHandler>:
void USART1_IRQHandler(void)
{
  /* USER CODE BEGIN USART1_IRQn 0 */

  /* USER CODE END USART1_IRQn 0 */
  HAL_UART_IRQHandler(&huart1);
 8001760:	4801      	ldr	r0, [pc, #4]	@ (8001768 <USART1_IRQHandler+0x8>)
 8001762:	f001 bfbf 	b.w	80036e4 <HAL_UART_IRQHandler>
 8001766:	bf00      	nop
 8001768:	20000380 	.word	0x20000380

0800176c <_sbrk>:
  const uint32_t stack_limit = (uint32_t)&_estack - (uint32_t)&_Min_Stack_Size;
  const uint8_t *max_heap = (uint8_t *)stack_limit;
  uint8_t *prev_heap_end;

  /* Initialize heap end at first call */
  if (NULL == __sbrk_heap_end)
 800176c:	4a0b      	ldr	r2, [pc, #44]	@ (800179c <_sbrk+0x30>)
{
 800176e:	4603      	mov	r3, r0
  if (NULL == __sbrk_heap_end)
 8001770:	6811      	ldr	r1, [r2, #0]
{
 8001772:	b510      	push	{r4, lr}
  if (NULL == __sbrk_heap_end)
 8001774:	b909      	cbnz	r1, 800177a <_sbrk+0xe>
  {
    __sbrk_heap_end = &_end;
 8001776:	490a      	ldr	r1, [pc, #40]	@ (80017a0 <_sbrk+0x34>)
 8001778:	6011      	str	r1, [r2, #0]
  }

  /* Protect heap from growing into the reserved MSP stack */
  if (__sbrk_heap_end + incr > max_heap)
 800177a:	6810      	ldr	r0, [r2, #0]
 800177c:	4909      	ldr	r1, [pc, #36]	@ (80017a4 <_sbrk+0x38>)
 800177e:	4c0a      	ldr	r4, [pc, #40]	@ (80017a8 <_sbrk+0x3c>)
 8001780:	4403      	add	r3, r0
 8001782:	1b09      	subs	r1, r1, r4
 8001784:	428b      	cmp	r3, r1
 8001786:	d906      	bls.n	8001796 <_sbrk+0x2a>
  {
    errno = ENOMEM;
 8001788:	f004 f89e 	bl	80058c8 <__errno>
 800178c:	230c      	movs	r3, #12
 800178e:	6003      	str	r3, [r0, #0]
    return (void *)-1;
 8001790:	f04f 30ff 	mov.w	r0, #4294967295	@ 0xffffffff

  prev_heap_end = __sbrk_heap_end;
  __sbrk_heap_end += incr;

  return (void *)prev_heap_end;
}
 8001794:	bd10      	pop	{r4, pc}
  __sbrk_heap_end += incr;
 8001796:	6013      	str	r3, [r2, #0]
  return (void *)prev_heap_end;
 8001798:	e7fc      	b.n	8001794 <_sbrk+0x28>
 800179a:	bf00      	nop
 800179c:	20000794 	.word	0x20000794
 80017a0:	200021b8 	.word	0x200021b8
 80017a4:	20002800 	.word	0x20002800
 80017a8:	00000400 	.word	0x00000400

080017ac <SystemInit>:

  /* Configure the Vector Table location -------------------------------------*/
#if defined(USER_VECT_TAB_ADDRESS)
  SCB->VTOR = VECT_TAB_BASE_ADDRESS | VECT_TAB_OFFSET; /* Vector Table Relocation in Internal SRAM. */
#endif /* USER_VECT_TAB_ADDRESS */
}
 80017ac:	4770      	bx	lr
	...

080017b0 <Reset_Handler>:
  .weak Reset_Handler
  .type Reset_Handler, %function
Reset_Handler:

/* Call the clock system initialization function.*/
    bl  SystemInit
 80017b0:	f7ff fffc 	bl	80017ac <SystemInit>

/* Copy the data segment initializers from flash to SRAM */
  ldr r0, =_sdata
 80017b4:	480b      	ldr	r0, [pc, #44]	@ (80017e4 <LoopFillZerobss+0xe>)
  ldr r1, =_edata
 80017b6:	490c      	ldr	r1, [pc, #48]	@ (80017e8 <LoopFillZerobss+0x12>)
  ldr r2, =_sidata
 80017b8:	4a0c      	ldr	r2, [pc, #48]	@ (80017ec <LoopFillZerobss+0x16>)
  movs r3, #0
 80017ba:	2300      	movs	r3, #0
  b LoopCopyDataInit
 80017bc:	e002      	b.n	80017c4 <LoopCopyDataInit>

080017be <CopyDataInit>:

CopyDataInit:
  ldr r4, [r2, r3]
 80017be:	58d4      	ldr	r4, [r2, r3]
  str r4, [r0, r3]
 80017c0:	50c4      	str	r4, [r0, r3]
  adds r3, r3, #4
 80017c2:	3304      	adds	r3, #4

080017c4 <LoopCopyDataInit>:

LoopCopyDataInit:
  adds r4, r0, r3
 80017c4:	18c4      	adds	r4, r0, r3
  cmp r4, r1
 80017c6:	428c      	cmp	r4, r1
  bcc CopyDataInit
 80017c8:	d3f9      	bcc.n	80017be <CopyDataInit>
  
/* Zero fill the bss segment. */
  ldr r2, =_sbss
 80017ca:	4a09      	ldr	r2, [pc, #36]	@ (80017f0 <LoopFillZerobss+0x1a>)
  ldr r4, =_ebss
 80017cc:	4c09      	ldr	r4, [pc, #36]	@ (80017f4 <LoopFillZerobss+0x1e>)
  movs r3, #0
 80017ce:	2300      	movs	r3, #0
  b LoopFillZerobss
 80017d0:	e001      	b.n	80017d6 <LoopFillZerobss>

080017d2 <FillZerobss>:

FillZerobss:
  str  r3, [r2]
 80017d2:	6013      	str	r3, [r2, #0]
  adds r2, r2, #4
 80017d4:	3204      	adds	r2, #4

080017d6 <LoopFillZerobss>:

LoopFillZerobss:
  cmp r2, r4
 80017d6:	42a2      	cmp	r2, r4
  bcc FillZerobss
 80017d8:	d3fb      	bcc.n	80017d2 <FillZerobss>

/* Call static constructors */
    bl __libc_init_array
 80017da:	f004 f87b 	bl	80058d4 <__libc_init_array>
/* Call the application's entry point.*/
  bl main
 80017de:	f7ff f9f9 	bl	8000bd4 <main>
  bx lr
 80017e2:	4770      	bx	lr
  ldr r0, =_sdata
 80017e4:	20000000 	.word	0x20000000
  ldr r1, =_edata
 80017e8:	2000007c 	.word	0x2000007c
  ldr r2, =_sidata
 80017ec:	08007130 	.word	0x08007130
  ldr r2, =_sbss
 80017f0:	2000007c 	.word	0x2000007c
  ldr r4, =_ebss
 80017f4:	200021b8 	.word	0x200021b8

080017f8 <CAN1_RX1_IRQHandler>:
 * @retval : None
*/
    .section .text.Default_Handler,"ax",%progbits
Default_Handler:
Infinite_Loop:
  b Infinite_Loop
 80017f8:	e7fe      	b.n	80017f8 <CAN1_RX1_IRQHandler>
	...

080017fc <HAL_Init>:
    defined(STM32F102x6) || defined(STM32F102xB) || \
    defined(STM32F103x6) || defined(STM32F103xB) || defined(STM32F103xE) || defined(STM32F103xG) || \
    defined(STM32F105xC) || defined(STM32F107xC)

  /* Prefetch buffer is not available on value line devices */
  __HAL_FLASH_PREFETCH_BUFFER_ENABLE();
 80017fc:	4a07      	ldr	r2, [pc, #28]	@ (800181c <HAL_Init+0x20>)
{
 80017fe:	b508      	push	{r3, lr}
  __HAL_FLASH_PREFETCH_BUFFER_ENABLE();
 8001800:	6813      	ldr	r3, [r2, #0]
#endif
#endif /* PREFETCH_ENABLE */

  /* Set Interrupt Group Priority */
  HAL_NVIC_SetPriorityGrouping(NVIC_PRIORITYGROUP_4);
 8001802:	2003      	movs	r0, #3
  __HAL_FLASH_PREFETCH_BUFFER_ENABLE();
 8001804:	f043 0310 	orr.w	r3, r3, #16
 8001808:	6013      	str	r3, [r2, #0]
  HAL_NVIC_SetPriorityGrouping(NVIC_PRIORITYGROUP_4);
 800180a:	f000 fad9 	bl	8001dc0 <HAL_NVIC_SetPriorityGrouping>

  /* Use systick as time base source and configure 1ms tick (default clock after Reset is HSI) */
  HAL_InitTick(TICK_INT_PRIORITY);
 800180e:	200f      	movs	r0, #15
 8001810:	f7ff ff38 	bl	8001684 <HAL_InitTick>

  /* Init the low level hardware */
  HAL_MspInit();
 8001814:	f7ff fdb2 	bl	800137c <HAL_MspInit>

  /* Return function status */
  return HAL_OK;
}
 8001818:	2000      	movs	r0, #0
 800181a:	bd08      	pop	{r3, pc}
 800181c:	40022000 	.word	0x40022000

08001820 <HAL_IncTick>:
  *      implementations in user file.
  * @retval None
  */
__weak void HAL_IncTick(void)
{
  uwTick += uwTickFreq;
 8001820:	4a03      	ldr	r2, [pc, #12]	@ (8001830 <HAL_IncTick+0x10>)
 8001822:	4b04      	ldr	r3, [pc, #16]	@ (8001834 <HAL_IncTick+0x14>)
 8001824:	6811      	ldr	r1, [r2, #0]
 8001826:	781b      	ldrb	r3, [r3, #0]
 8001828:	440b      	add	r3, r1
 800182a:	6013      	str	r3, [r2, #0]
}
 800182c:	4770      	bx	lr
 800182e:	bf00      	nop
 8001830:	20000798 	.word	0x20000798
 8001834:	20000020 	.word	0x20000020

08001838 <HAL_GetTick>:
  *       implementations in user file.
  * @retval tick value
  */
__weak uint32_t HAL_GetTick(void)
{
  return uwTick;
 8001838:	4b01      	ldr	r3, [pc, #4]	@ (8001840 <HAL_GetTick+0x8>)
 800183a:	6818      	ldr	r0, [r3, #0]
}
 800183c:	4770      	bx	lr
 800183e:	bf00      	nop
 8001840:	20000798 	.word	0x20000798

08001844 <HAL_Delay>:
  *       implementations in user file.
  * @param Delay specifies the delay time length, in milliseconds.
  * @retval None
  */
__weak void HAL_Delay(uint32_t Delay)
{
 8001844:	b538      	push	{r3, r4, r5, lr}
 8001846:	4604      	mov	r4, r0
  uint32_t tickstart = HAL_GetTick();
 8001848:	f7ff fff6 	bl	8001838 <HAL_GetTick>
 800184c:	4605      	mov	r5, r0
  uint32_t wait = Delay;

  /* Add a freq to guarantee minimum wait */
  if (wait < HAL_MAX_DELAY)
 800184e:	1c63      	adds	r3, r4, #1
  {
    wait += (uint32_t)(uwTickFreq);
 8001850:	bf1e      	ittt	ne
 8001852:	4b04      	ldrne	r3, [pc, #16]	@ (8001864 <HAL_Delay+0x20>)
 8001854:	781b      	ldrbne	r3, [r3, #0]
 8001856:	18e4      	addne	r4, r4, r3
  }

  while ((HAL_GetTick() - tickstart) < wait)
 8001858:	f7ff ffee 	bl	8001838 <HAL_GetTick>
 800185c:	1b43      	subs	r3, r0, r5
 800185e:	42a3      	cmp	r3, r4
 8001860:	d3fa      	bcc.n	8001858 <HAL_Delay+0x14>
  {
  }
}
 8001862:	bd38      	pop	{r3, r4, r5, pc}
 8001864:	20000020 	.word	0x20000020

08001868 <HAL_ADC_GetValue>:

  /* Note: EOC flag is not cleared here by software because automatically     */
  /*       cleared by hardware when reading register DR.                      */
  
  /* Return ADC converted value */ 
  return hadc->Instance->DR;
 8001868:	6803      	ldr	r3, [r0, #0]
 800186a:	6cd8      	ldr	r0, [r3, #76]	@ 0x4c
}
 800186c:	4770      	bx	lr

0800186e <HAL_ADC_LevelOutOfWindowCallback>:
/**
  * @brief  Analog watchdog callback in non blocking mode. 
  * @param  hadc: ADC handle
  * @retval None
  */
__weak void HAL_ADC_LevelOutOfWindowCallback(ADC_HandleTypeDef* hadc)
 800186e:	4770      	bx	lr

08001870 <HAL_ADC_IRQHandler>:
  uint32_t tmp_sr = hadc->Instance->SR;
 8001870:	6803      	ldr	r3, [r0, #0]
{
 8001872:	b570      	push	{r4, r5, r6, lr}
  uint32_t tmp_sr = hadc->Instance->SR;
 8001874:	681d      	ldr	r5, [r3, #0]
  uint32_t tmp_cr1 = hadc->Instance->CR1;
 8001876:	685e      	ldr	r6, [r3, #4]
{
 8001878:	4604      	mov	r4, r0
  if((tmp_cr1 & ADC_IT_EOC) == ADC_IT_EOC)
 800187a:	06b0      	lsls	r0, r6, #26
 800187c:	d526      	bpl.n	80018cc <HAL_ADC_IRQHandler+0x5c>
    if((tmp_sr & ADC_FLAG_EOC) == ADC_FLAG_EOC)
 800187e:	07a9      	lsls	r1, r5, #30
 8001880:	d524      	bpl.n	80018cc <HAL_ADC_IRQHandler+0x5c>
      if (HAL_IS_BIT_CLR(hadc->State, HAL_ADC_STATE_ERROR_INTERNAL))
 8001882:	6aa2      	ldr	r2, [r4, #40]	@ 0x28
 8001884:	06d2      	lsls	r2, r2, #27
        SET_BIT(hadc->State, HAL_ADC_STATE_REG_EOC); 
 8001886:	bf5e      	ittt	pl
 8001888:	6aa2      	ldrpl	r2, [r4, #40]	@ 0x28
 800188a:	f442 7200 	orrpl.w	r2, r2, #512	@ 0x200
 800188e:	62a2      	strpl	r2, [r4, #40]	@ 0x28
      if(ADC_IS_SOFTWARE_START_REGULAR(hadc)        && 
 8001890:	689a      	ldr	r2, [r3, #8]
 8001892:	f402 2260 	and.w	r2, r2, #917504	@ 0xe0000
 8001896:	f5b2 2f60 	cmp.w	r2, #917504	@ 0xe0000
 800189a:	d110      	bne.n	80018be <HAL_ADC_IRQHandler+0x4e>
 800189c:	7b22      	ldrb	r2, [r4, #12]
 800189e:	b972      	cbnz	r2, 80018be <HAL_ADC_IRQHandler+0x4e>
        __HAL_ADC_DISABLE_IT(hadc, ADC_IT_EOC);
 80018a0:	685a      	ldr	r2, [r3, #4]
 80018a2:	f022 0220 	bic.w	r2, r2, #32
 80018a6:	605a      	str	r2, [r3, #4]
        CLEAR_BIT(hadc->State, HAL_ADC_STATE_REG_BUSY);   
 80018a8:	6aa3      	ldr	r3, [r4, #40]	@ 0x28
 80018aa:	f423 7380 	bic.w	r3, r3, #256	@ 0x100
 80018ae:	62a3      	str	r3, [r4, #40]	@ 0x28
        if (HAL_IS_BIT_CLR(hadc->State, HAL_ADC_STATE_INJ_BUSY))
 80018b0:	6aa3      	ldr	r3, [r4, #40]	@ 0x28
 80018b2:	04d8      	lsls	r0, r3, #19
          SET_BIT(hadc->State, HAL_ADC_STATE_READY);
 80018b4:	bf5e      	ittt	pl
 80018b6:	6aa3      	ldrpl	r3, [r4, #40]	@ 0x28
 80018b8:	f043 0301 	orrpl.w	r3, r3, #1
 80018bc:	62a3      	strpl	r3, [r4, #40]	@ 0x28
      HAL_ADC_ConvCpltCallback(hadc);
 80018be:	4620      	mov	r0, r4
 80018c0:	f7ff f8e4 	bl	8000a8c <HAL_ADC_ConvCpltCallback>
      __HAL_ADC_CLEAR_FLAG(hadc, ADC_FLAG_STRT | ADC_FLAG_EOC);
 80018c4:	f06f 0212 	mvn.w	r2, #18
 80018c8:	6823      	ldr	r3, [r4, #0]
 80018ca:	601a      	str	r2, [r3, #0]
  if((tmp_cr1 & ADC_IT_JEOC) == ADC_IT_JEOC)
 80018cc:	0631      	lsls	r1, r6, #24
 80018ce:	d530      	bpl.n	8001932 <HAL_ADC_IRQHandler+0xc2>
    if((tmp_sr & ADC_FLAG_JEOC) == ADC_FLAG_JEOC)
 80018d0:	076a      	lsls	r2, r5, #29
 80018d2:	d52e      	bpl.n	8001932 <HAL_ADC_IRQHandler+0xc2>
      if (HAL_IS_BIT_CLR(hadc->State, HAL_ADC_STATE_ERROR_INTERNAL))
 80018d4:	6aa3      	ldr	r3, [r4, #40]	@ 0x28
 80018d6:	06db      	lsls	r3, r3, #27
        SET_BIT(hadc->State, HAL_ADC_STATE_INJ_EOC);
 80018d8:	bf5e      	ittt	pl
 80018da:	6aa3      	ldrpl	r3, [r4, #40]	@ 0x28
 80018dc:	f443 5300 	orrpl.w	r3, r3, #8192	@ 0x2000
 80018e0:	62a3      	strpl	r3, [r4, #40]	@ 0x28
      if(ADC_IS_SOFTWARE_START_INJECTED(hadc)                     || 
 80018e2:	6823      	ldr	r3, [r4, #0]
 80018e4:	689a      	ldr	r2, [r3, #8]
 80018e6:	f402 42e0 	and.w	r2, r2, #28672	@ 0x7000
 80018ea:	f5b2 4fe0 	cmp.w	r2, #28672	@ 0x7000
 80018ee:	d00a      	beq.n	8001906 <HAL_ADC_IRQHandler+0x96>
         (HAL_IS_BIT_CLR(hadc->Instance->CR1, ADC_CR1_JAUTO) &&     
 80018f0:	685a      	ldr	r2, [r3, #4]
      if(ADC_IS_SOFTWARE_START_INJECTED(hadc)                     || 
 80018f2:	0550      	lsls	r0, r2, #21
 80018f4:	d416      	bmi.n	8001924 <HAL_ADC_IRQHandler+0xb4>
         (ADC_IS_SOFTWARE_START_REGULAR(hadc)        &&
 80018f6:	689a      	ldr	r2, [r3, #8]
 80018f8:	f402 2260 	and.w	r2, r2, #917504	@ 0xe0000
         (HAL_IS_BIT_CLR(hadc->Instance->CR1, ADC_CR1_JAUTO) &&     
 80018fc:	f5b2 2f60 	cmp.w	r2, #917504	@ 0xe0000
 8001900:	d110      	bne.n	8001924 <HAL_ADC_IRQHandler+0xb4>
         (ADC_IS_SOFTWARE_START_REGULAR(hadc)        &&
 8001902:	7b22      	ldrb	r2, [r4, #12]
 8001904:	b972      	cbnz	r2, 8001924 <HAL_ADC_IRQHandler+0xb4>
        __HAL_ADC_DISABLE_IT(hadc, ADC_IT_JEOC);
 8001906:	685a      	ldr	r2, [r3, #4]
 8001908:	f022 0280 	bic.w	r2, r2, #128	@ 0x80
 800190c:	605a      	str	r2, [r3, #4]
        CLEAR_BIT(hadc->State, HAL_ADC_STATE_INJ_BUSY);   
 800190e:	6aa3      	ldr	r3, [r4, #40]	@ 0x28
 8001910:	f423 5380 	bic.w	r3, r3, #4096	@ 0x1000
 8001914:	62a3      	str	r3, [r4, #40]	@ 0x28
        if (HAL_IS_BIT_CLR(hadc->State, HAL_ADC_STATE_REG_BUSY))
 8001916:	6aa3      	ldr	r3, [r4, #40]	@ 0x28
 8001918:	05d9      	lsls	r1, r3, #23
          SET_BIT(hadc->State, HAL_ADC_STATE_READY);
 800191a:	bf5e      	ittt	pl
 800191c:	6aa3      	ldrpl	r3, [r4, #40]	@ 0x28
 800191e:	f043 0301 	orrpl.w	r3, r3, #1
 8001922:	62a3      	strpl	r3, [r4, #40]	@ 0x28
      HAL_ADCEx_InjectedConvCpltCallback(hadc);
 8001924:	4620      	mov	r0, r4
 8001926:	f000 fa49 	bl	8001dbc <HAL_ADCEx_InjectedConvCpltCallback>
      __HAL_ADC_CLEAR_FLAG(hadc, (ADC_FLAG_JSTRT | ADC_FLAG_JEOC));
 800192a:	f06f 020c 	mvn.w	r2, #12
 800192e:	6823      	ldr	r3, [r4, #0]
 8001930:	601a      	str	r2, [r3, #0]
  if((tmp_cr1 & ADC_IT_AWD) == ADC_IT_AWD)
 8001932:	0672      	lsls	r2, r6, #25
 8001934:	d50c      	bpl.n	8001950 <HAL_ADC_IRQHandler+0xe0>
    if((tmp_sr & ADC_FLAG_AWD) == ADC_FLAG_AWD)
 8001936:	07eb      	lsls	r3, r5, #31
 8001938:	d50a      	bpl.n	8001950 <HAL_ADC_IRQHandler+0xe0>
      SET_BIT(hadc->State, HAL_ADC_STATE_AWD1);
 800193a:	6aa3      	ldr	r3, [r4, #40]	@ 0x28
      HAL_ADC_LevelOutOfWindowCallback(hadc);
 800193c:	4620      	mov	r0, r4
      SET_BIT(hadc->State, HAL_ADC_STATE_AWD1);
 800193e:	f443 3380 	orr.w	r3, r3, #65536	@ 0x10000
 8001942:	62a3      	str	r3, [r4, #40]	@ 0x28
      HAL_ADC_LevelOutOfWindowCallback(hadc);
 8001944:	f7ff ff93 	bl	800186e <HAL_ADC_LevelOutOfWindowCallback>
      __HAL_ADC_CLEAR_FLAG(hadc, ADC_FLAG_AWD);
 8001948:	f06f 0201 	mvn.w	r2, #1
 800194c:	6823      	ldr	r3, [r4, #0]
 800194e:	601a      	str	r2, [r3, #0]
}
 8001950:	bd70      	pop	{r4, r5, r6, pc}
	...

08001954 <HAL_ADC_ConfigChannel>:
  * @retval HAL status
  */
HAL_StatusTypeDef HAL_ADC_ConfigChannel(ADC_HandleTypeDef* hadc, ADC_ChannelConfTypeDef* sConfig)
{ 
  HAL_StatusTypeDef tmp_hal_status = HAL_OK;
  __IO uint32_t wait_loop_index = 0U;
 8001954:	2300      	movs	r3, #0
{ 
 8001956:	b573      	push	{r0, r1, r4, r5, r6, lr}
  __IO uint32_t wait_loop_index = 0U;
 8001958:	9301      	str	r3, [sp, #4]
  assert_param(IS_ADC_CHANNEL(sConfig->Channel));
  assert_param(IS_ADC_REGULAR_RANK(sConfig->Rank));
  assert_param(IS_ADC_SAMPLE_TIME(sConfig->SamplingTime));
  
  /* Process locked */
  __HAL_LOCK(hadc);
 800195a:	f890 3024 	ldrb.w	r3, [r0, #36]	@ 0x24
{ 
 800195e:	4604      	mov	r4, r0
  __HAL_LOCK(hadc);
 8001960:	2b01      	cmp	r3, #1
 8001962:	d06c      	beq.n	8001a3e <HAL_ADC_ConfigChannel+0xea>
 8001964:	2301      	movs	r3, #1
 8001966:	f880 3024 	strb.w	r3, [r0, #36]	@ 0x24
  
  
  /* Regular sequence configuration */
  /* For Rank 1 to 6 */
  if (sConfig->Rank < 7U)
 800196a:	684d      	ldr	r5, [r1, #4]
  {
    MODIFY_REG(hadc->Instance->SQR3                        ,
 800196c:	6802      	ldr	r2, [r0, #0]
  if (sConfig->Rank < 7U)
 800196e:	2d06      	cmp	r5, #6
    MODIFY_REG(hadc->Instance->SQR3                        ,
 8001970:	6808      	ldr	r0, [r1, #0]
 8001972:	eb05 0385 	add.w	r3, r5, r5, lsl #2
  if (sConfig->Rank < 7U)
 8001976:	d822      	bhi.n	80019be <HAL_ADC_ConfigChannel+0x6a>
    MODIFY_REG(hadc->Instance->SQR3                        ,
 8001978:	261f      	movs	r6, #31
 800197a:	6b55      	ldr	r5, [r2, #52]	@ 0x34
 800197c:	3b05      	subs	r3, #5
 800197e:	409e      	lsls	r6, r3
 8001980:	ea25 0506 	bic.w	r5, r5, r6
 8001984:	fa00 f303 	lsl.w	r3, r0, r3
 8001988:	432b      	orrs	r3, r5
 800198a:	6353      	str	r3, [r2, #52]	@ 0x34
  }
  
  
  /* Channel sampling time configuration */
  /* For channels 10 to 17 */
  if (sConfig->Channel >= ADC_CHANNEL_10)
 800198c:	2809      	cmp	r0, #9
  {
    MODIFY_REG(hadc->Instance->SMPR1                             ,
 800198e:	688b      	ldr	r3, [r1, #8]
 8001990:	eb00 0540 	add.w	r5, r0, r0, lsl #1
 8001994:	f04f 0107 	mov.w	r1, #7
  if (sConfig->Channel >= ADC_CHANNEL_10)
 8001998:	d929      	bls.n	80019ee <HAL_ADC_ConfigChannel+0x9a>
    MODIFY_REG(hadc->Instance->SMPR1                             ,
 800199a:	68d6      	ldr	r6, [r2, #12]
 800199c:	3d1e      	subs	r5, #30
 800199e:	40a9      	lsls	r1, r5
 80019a0:	ea26 0101 	bic.w	r1, r6, r1
 80019a4:	40ab      	lsls	r3, r5
 80019a6:	430b      	orrs	r3, r1
 80019a8:	60d3      	str	r3, [r2, #12]
               ADC_SMPR2(sConfig->SamplingTime, sConfig->Channel) );
  }
  
  /* If ADC1 Channel_16 or Channel_17 is selected, enable Temperature sensor  */
  /* and VREFINT measurement path.                                            */
  if ((sConfig->Channel == ADC_CHANNEL_TEMPSENSOR) ||
 80019aa:	f1a0 0310 	sub.w	r3, r0, #16
 80019ae:	2b01      	cmp	r3, #1
 80019b0:	d925      	bls.n	80019fe <HAL_ADC_ConfigChannel+0xaa>
  HAL_StatusTypeDef tmp_hal_status = HAL_OK;
 80019b2:	2000      	movs	r0, #0
      tmp_hal_status = HAL_ERROR;
    }
  }
  
  /* Process unlocked */
  __HAL_UNLOCK(hadc);
 80019b4:	2300      	movs	r3, #0
 80019b6:	f884 3024 	strb.w	r3, [r4, #36]	@ 0x24
  
  /* Return function status */
  return tmp_hal_status;
}
 80019ba:	b002      	add	sp, #8
 80019bc:	bd70      	pop	{r4, r5, r6, pc}
  else if (sConfig->Rank < 13U)
 80019be:	2d0c      	cmp	r5, #12
 80019c0:	f04f 051f 	mov.w	r5, #31
 80019c4:	d809      	bhi.n	80019da <HAL_ADC_ConfigChannel+0x86>
    MODIFY_REG(hadc->Instance->SQR2                        ,
 80019c6:	6b16      	ldr	r6, [r2, #48]	@ 0x30
 80019c8:	3b23      	subs	r3, #35	@ 0x23
 80019ca:	409d      	lsls	r5, r3
 80019cc:	ea26 0505 	bic.w	r5, r6, r5
 80019d0:	fa00 f303 	lsl.w	r3, r0, r3
 80019d4:	432b      	orrs	r3, r5
 80019d6:	6313      	str	r3, [r2, #48]	@ 0x30
 80019d8:	e7d8      	b.n	800198c <HAL_ADC_ConfigChannel+0x38>
    MODIFY_REG(hadc->Instance->SQR1                        ,
 80019da:	6ad6      	ldr	r6, [r2, #44]	@ 0x2c
 80019dc:	3b41      	subs	r3, #65	@ 0x41
 80019de:	409d      	lsls	r5, r3
 80019e0:	ea26 0505 	bic.w	r5, r6, r5
 80019e4:	fa00 f303 	lsl.w	r3, r0, r3
 80019e8:	432b      	orrs	r3, r5
 80019ea:	62d3      	str	r3, [r2, #44]	@ 0x2c
 80019ec:	e7ce      	b.n	800198c <HAL_ADC_ConfigChannel+0x38>
    MODIFY_REG(hadc->Instance->SMPR2                             ,
 80019ee:	6910      	ldr	r0, [r2, #16]
 80019f0:	40a9      	lsls	r1, r5
 80019f2:	ea20 0101 	bic.w	r1, r0, r1
 80019f6:	40ab      	lsls	r3, r5
 80019f8:	430b      	orrs	r3, r1
 80019fa:	6113      	str	r3, [r2, #16]
  if ((sConfig->Channel == ADC_CHANNEL_TEMPSENSOR) ||
 80019fc:	e7d9      	b.n	80019b2 <HAL_ADC_ConfigChannel+0x5e>
    if (hadc->Instance == ADC1)
 80019fe:	4b11      	ldr	r3, [pc, #68]	@ (8001a44 <HAL_ADC_ConfigChannel+0xf0>)
 8001a00:	429a      	cmp	r2, r3
 8001a02:	d116      	bne.n	8001a32 <HAL_ADC_ConfigChannel+0xde>
      if (READ_BIT(hadc->Instance->CR2, ADC_CR2_TSVREFE) == RESET)
 8001a04:	6893      	ldr	r3, [r2, #8]
 8001a06:	021b      	lsls	r3, r3, #8
 8001a08:	d4d3      	bmi.n	80019b2 <HAL_ADC_ConfigChannel+0x5e>
        SET_BIT(hadc->Instance->CR2, ADC_CR2_TSVREFE);
 8001a0a:	6893      	ldr	r3, [r2, #8]
        if (sConfig->Channel == ADC_CHANNEL_TEMPSENSOR)
 8001a0c:	2810      	cmp	r0, #16
        SET_BIT(hadc->Instance->CR2, ADC_CR2_TSVREFE);
 8001a0e:	f443 0300 	orr.w	r3, r3, #8388608	@ 0x800000
 8001a12:	6093      	str	r3, [r2, #8]
        if (sConfig->Channel == ADC_CHANNEL_TEMPSENSOR)
 8001a14:	d1cd      	bne.n	80019b2 <HAL_ADC_ConfigChannel+0x5e>
          wait_loop_index = (ADC_TEMPSENSOR_DELAY_US * (SystemCoreClock / 1000000U));
 8001a16:	4b0c      	ldr	r3, [pc, #48]	@ (8001a48 <HAL_ADC_ConfigChannel+0xf4>)
 8001a18:	4a0c      	ldr	r2, [pc, #48]	@ (8001a4c <HAL_ADC_ConfigChannel+0xf8>)
 8001a1a:	681b      	ldr	r3, [r3, #0]
 8001a1c:	fbb3 f3f2 	udiv	r3, r3, r2
 8001a20:	220a      	movs	r2, #10
 8001a22:	4353      	muls	r3, r2
            wait_loop_index--;
 8001a24:	9301      	str	r3, [sp, #4]
          while(wait_loop_index != 0U)
 8001a26:	9b01      	ldr	r3, [sp, #4]
 8001a28:	2b00      	cmp	r3, #0
 8001a2a:	d0c2      	beq.n	80019b2 <HAL_ADC_ConfigChannel+0x5e>
            wait_loop_index--;
 8001a2c:	9b01      	ldr	r3, [sp, #4]
 8001a2e:	3b01      	subs	r3, #1
 8001a30:	e7f8      	b.n	8001a24 <HAL_ADC_ConfigChannel+0xd0>
      SET_BIT(hadc->State, HAL_ADC_STATE_ERROR_CONFIG);
 8001a32:	6aa3      	ldr	r3, [r4, #40]	@ 0x28
      tmp_hal_status = HAL_ERROR;
 8001a34:	2001      	movs	r0, #1
      SET_BIT(hadc->State, HAL_ADC_STATE_ERROR_CONFIG);
 8001a36:	f043 0320 	orr.w	r3, r3, #32
 8001a3a:	62a3      	str	r3, [r4, #40]	@ 0x28
      tmp_hal_status = HAL_ERROR;
 8001a3c:	e7ba      	b.n	80019b4 <HAL_ADC_ConfigChannel+0x60>
  __HAL_LOCK(hadc);
 8001a3e:	2002      	movs	r0, #2
 8001a40:	e7bb      	b.n	80019ba <HAL_ADC_ConfigChannel+0x66>
 8001a42:	bf00      	nop
 8001a44:	40012400 	.word	0x40012400
 8001a48:	2000001c 	.word	0x2000001c
 8001a4c:	000f4240 	.word	0x000f4240

08001a50 <ADC_Enable>:
  * @retval HAL status.
  */
HAL_StatusTypeDef ADC_Enable(ADC_HandleTypeDef* hadc)
{
  uint32_t tickstart = 0U;
  __IO uint32_t wait_loop_index = 0U;
 8001a50:	2300      	movs	r3, #0
{
 8001a52:	b537      	push	{r0, r1, r2, r4, r5, lr}
  __IO uint32_t wait_loop_index = 0U;
 8001a54:	9301      	str	r3, [sp, #4]
  
  /* ADC enable and wait for ADC ready (in case of ADC is disabled or         */
  /* enabling phase not yet completed: flag ADC ready not yet set).           */
  /* Timeout implemented to not be stuck if ADC cannot be enabled (possible   */
  /* causes: ADC clock not running, ...).                                     */
  if (ADC_IS_ENABLE(hadc) == RESET)
 8001a56:	6803      	ldr	r3, [r0, #0]
{
 8001a58:	4604      	mov	r4, r0
  if (ADC_IS_ENABLE(hadc) == RESET)
 8001a5a:	689a      	ldr	r2, [r3, #8]
 8001a5c:	07d2      	lsls	r2, r2, #31
 8001a5e:	d502      	bpl.n	8001a66 <ADC_Enable+0x16>
      }
    }
  }
   
  /* Return HAL status */
  return HAL_OK;
 8001a60:	2000      	movs	r0, #0
}
 8001a62:	b003      	add	sp, #12
 8001a64:	bd30      	pop	{r4, r5, pc}
    __HAL_ADC_ENABLE(hadc);
 8001a66:	689a      	ldr	r2, [r3, #8]
 8001a68:	f042 0201 	orr.w	r2, r2, #1
 8001a6c:	609a      	str	r2, [r3, #8]
    wait_loop_index = (ADC_STAB_DELAY_US * (SystemCoreClock / 1000000U));
 8001a6e:	4b14      	ldr	r3, [pc, #80]	@ (8001ac0 <ADC_Enable+0x70>)
 8001a70:	4a14      	ldr	r2, [pc, #80]	@ (8001ac4 <ADC_Enable+0x74>)
 8001a72:	681b      	ldr	r3, [r3, #0]
 8001a74:	fbb3 f3f2 	udiv	r3, r3, r2
      wait_loop_index--;
 8001a78:	9301      	str	r3, [sp, #4]
    while(wait_loop_index != 0U)
 8001a7a:	9b01      	ldr	r3, [sp, #4]
 8001a7c:	b9e3      	cbnz	r3, 8001ab8 <ADC_Enable+0x68>
    tickstart = HAL_GetTick();
 8001a7e:	f7ff fedb 	bl	8001838 <HAL_GetTick>
 8001a82:	4605      	mov	r5, r0
    while(ADC_IS_ENABLE(hadc) == RESET)
 8001a84:	6823      	ldr	r3, [r4, #0]
 8001a86:	689b      	ldr	r3, [r3, #8]
 8001a88:	07db      	lsls	r3, r3, #31
 8001a8a:	d4e9      	bmi.n	8001a60 <ADC_Enable+0x10>
      if((HAL_GetTick() - tickstart) > ADC_ENABLE_TIMEOUT)
 8001a8c:	f7ff fed4 	bl	8001838 <HAL_GetTick>
 8001a90:	1b40      	subs	r0, r0, r5
 8001a92:	2802      	cmp	r0, #2
 8001a94:	d9f6      	bls.n	8001a84 <ADC_Enable+0x34>
        if(ADC_IS_ENABLE(hadc) == RESET)
 8001a96:	6823      	ldr	r3, [r4, #0]
 8001a98:	689b      	ldr	r3, [r3, #8]
 8001a9a:	f013 0301 	ands.w	r3, r3, #1
 8001a9e:	d1f1      	bne.n	8001a84 <ADC_Enable+0x34>
          SET_BIT(hadc->State, HAL_ADC_STATE_ERROR_INTERNAL);
 8001aa0:	6aa2      	ldr	r2, [r4, #40]	@ 0x28
          return HAL_ERROR;
 8001aa2:	2001      	movs	r0, #1
          SET_BIT(hadc->State, HAL_ADC_STATE_ERROR_INTERNAL);
 8001aa4:	f042 0210 	orr.w	r2, r2, #16
 8001aa8:	62a2      	str	r2, [r4, #40]	@ 0x28
          SET_BIT(hadc->ErrorCode, HAL_ADC_ERROR_INTERNAL);
 8001aaa:	6ae2      	ldr	r2, [r4, #44]	@ 0x2c
          __HAL_UNLOCK(hadc);
 8001aac:	f884 3024 	strb.w	r3, [r4, #36]	@ 0x24
          SET_BIT(hadc->ErrorCode, HAL_ADC_ERROR_INTERNAL);
 8001ab0:	f042 0201 	orr.w	r2, r2, #1
 8001ab4:	62e2      	str	r2, [r4, #44]	@ 0x2c
          return HAL_ERROR;
 8001ab6:	e7d4      	b.n	8001a62 <ADC_Enable+0x12>
      wait_loop_index--;
 8001ab8:	9b01      	ldr	r3, [sp, #4]
 8001aba:	3b01      	subs	r3, #1
 8001abc:	e7dc      	b.n	8001a78 <ADC_Enable+0x28>
 8001abe:	bf00      	nop
 8001ac0:	2000001c 	.word	0x2000001c
 8001ac4:	000f4240 	.word	0x000f4240

08001ac8 <HAL_ADC_Start_IT>:
{
 8001ac8:	b510      	push	{r4, lr}
  __HAL_LOCK(hadc);
 8001aca:	f890 3024 	ldrb.w	r3, [r0, #36]	@ 0x24
{
 8001ace:	4604      	mov	r4, r0
  __HAL_LOCK(hadc);
 8001ad0:	2b01      	cmp	r3, #1
 8001ad2:	d058      	beq.n	8001b86 <HAL_ADC_Start_IT+0xbe>
 8001ad4:	2301      	movs	r3, #1
 8001ad6:	f880 3024 	strb.w	r3, [r0, #36]	@ 0x24
  tmp_hal_status = ADC_Enable(hadc);
 8001ada:	f7ff ffb9 	bl	8001a50 <ADC_Enable>
  if (tmp_hal_status == HAL_OK)
 8001ade:	2800      	cmp	r0, #0
 8001ae0:	d14d      	bne.n	8001b7e <HAL_ADC_Start_IT+0xb6>
    ADC_STATE_CLR_SET(hadc->State,
 8001ae2:	6aa3      	ldr	r3, [r4, #40]	@ 0x28
    if (ADC_NONMULTIMODE_OR_MULTIMODEMASTER(hadc))
 8001ae4:	4a29      	ldr	r2, [pc, #164]	@ (8001b8c <HAL_ADC_Start_IT+0xc4>)
    ADC_STATE_CLR_SET(hadc->State,
 8001ae6:	f423 6370 	bic.w	r3, r3, #3840	@ 0xf00
 8001aea:	f023 0301 	bic.w	r3, r3, #1
 8001aee:	f443 7380 	orr.w	r3, r3, #256	@ 0x100
 8001af2:	62a3      	str	r3, [r4, #40]	@ 0x28
    if (ADC_NONMULTIMODE_OR_MULTIMODEMASTER(hadc))
 8001af4:	6823      	ldr	r3, [r4, #0]
 8001af6:	4293      	cmp	r3, r2
 8001af8:	d104      	bne.n	8001b04 <HAL_ADC_Start_IT+0x3c>
 8001afa:	4925      	ldr	r1, [pc, #148]	@ (8001b90 <HAL_ADC_Start_IT+0xc8>)
 8001afc:	684a      	ldr	r2, [r1, #4]
 8001afe:	f412 2f70 	tst.w	r2, #983040	@ 0xf0000
 8001b02:	d132      	bne.n	8001b6a <HAL_ADC_Start_IT+0xa2>
      CLEAR_BIT(hadc->State, HAL_ADC_STATE_MULTIMODE_SLAVE);
 8001b04:	6aa2      	ldr	r2, [r4, #40]	@ 0x28
 8001b06:	f422 1280 	bic.w	r2, r2, #1048576	@ 0x100000
 8001b0a:	62a2      	str	r2, [r4, #40]	@ 0x28
      if (READ_BIT(hadc->Instance->CR1, ADC_CR1_JAUTO) != RESET)
 8001b0c:	685a      	ldr	r2, [r3, #4]
      if (ADC_MULTIMODE_AUTO_INJECTED(hadc))
 8001b0e:	0552      	lsls	r2, r2, #21
        ADC_STATE_CLR_SET(hadc->State, HAL_ADC_STATE_INJ_EOC, HAL_ADC_STATE_INJ_BUSY);
 8001b10:	bf41      	itttt	mi
 8001b12:	6aa2      	ldrmi	r2, [r4, #40]	@ 0x28
 8001b14:	f422 5240 	bicmi.w	r2, r2, #12288	@ 0x3000
 8001b18:	f442 5280 	orrmi.w	r2, r2, #4096	@ 0x1000
 8001b1c:	62a2      	strmi	r2, [r4, #40]	@ 0x28
    if (HAL_IS_BIT_SET(hadc->State, HAL_ADC_STATE_INJ_BUSY))
 8001b1e:	6aa2      	ldr	r2, [r4, #40]	@ 0x28
 8001b20:	f412 5280 	ands.w	r2, r2, #4096	@ 0x1000
      CLEAR_BIT(hadc->ErrorCode, (HAL_ADC_ERROR_OVR | HAL_ADC_ERROR_DMA));         
 8001b24:	bf1c      	itt	ne
 8001b26:	6ae2      	ldrne	r2, [r4, #44]	@ 0x2c
 8001b28:	f022 0206 	bicne.w	r2, r2, #6
      ADC_CLEAR_ERRORCODE(hadc);
 8001b2c:	62e2      	str	r2, [r4, #44]	@ 0x2c
    __HAL_UNLOCK(hadc);
 8001b2e:	2200      	movs	r2, #0
 8001b30:	f884 2024 	strb.w	r2, [r4, #36]	@ 0x24
    __HAL_ADC_CLEAR_FLAG(hadc, ADC_FLAG_EOC);
 8001b34:	f06f 0202 	mvn.w	r2, #2
 8001b38:	601a      	str	r2, [r3, #0]
    __HAL_ADC_ENABLE_IT(hadc, ADC_IT_EOC);
 8001b3a:	685a      	ldr	r2, [r3, #4]
 8001b3c:	f042 0220 	orr.w	r2, r2, #32
 8001b40:	605a      	str	r2, [r3, #4]
    if (ADC_IS_SOFTWARE_START_REGULAR(hadc)      &&
 8001b42:	689a      	ldr	r2, [r3, #8]
 8001b44:	f402 2260 	and.w	r2, r2, #917504	@ 0xe0000
 8001b48:	f5b2 2f60 	cmp.w	r2, #917504	@ 0xe0000
 8001b4c:	d113      	bne.n	8001b76 <HAL_ADC_Start_IT+0xae>
 8001b4e:	4a0f      	ldr	r2, [pc, #60]	@ (8001b8c <HAL_ADC_Start_IT+0xc4>)
 8001b50:	4293      	cmp	r3, r2
 8001b52:	d105      	bne.n	8001b60 <HAL_ADC_Start_IT+0x98>
        ADC_NONMULTIMODE_OR_MULTIMODEMASTER(hadc)  )
 8001b54:	f5a2 6280 	sub.w	r2, r2, #1024	@ 0x400
 8001b58:	6852      	ldr	r2, [r2, #4]
    if (ADC_IS_SOFTWARE_START_REGULAR(hadc)      &&
 8001b5a:	f412 2f70 	tst.w	r2, #983040	@ 0xf0000
 8001b5e:	d10a      	bne.n	8001b76 <HAL_ADC_Start_IT+0xae>
      SET_BIT(hadc->Instance->CR2, (ADC_CR2_SWSTART | ADC_CR2_EXTTRIG));
 8001b60:	689a      	ldr	r2, [r3, #8]
 8001b62:	f442 02a0 	orr.w	r2, r2, #5242880	@ 0x500000
      SET_BIT(hadc->Instance->CR2, ADC_CR2_EXTTRIG);
 8001b66:	609a      	str	r2, [r3, #8]
}
 8001b68:	bd10      	pop	{r4, pc}
      SET_BIT(hadc->State, HAL_ADC_STATE_MULTIMODE_SLAVE);
 8001b6a:	6aa2      	ldr	r2, [r4, #40]	@ 0x28
 8001b6c:	f442 1280 	orr.w	r2, r2, #1048576	@ 0x100000
 8001b70:	62a2      	str	r2, [r4, #40]	@ 0x28
      if (ADC_MULTIMODE_AUTO_INJECTED(hadc))
 8001b72:	684a      	ldr	r2, [r1, #4]
 8001b74:	e7cb      	b.n	8001b0e <HAL_ADC_Start_IT+0x46>
      SET_BIT(hadc->Instance->CR2, ADC_CR2_EXTTRIG);
 8001b76:	689a      	ldr	r2, [r3, #8]
 8001b78:	f442 1280 	orr.w	r2, r2, #1048576	@ 0x100000
 8001b7c:	e7f3      	b.n	8001b66 <HAL_ADC_Start_IT+0x9e>
    __HAL_UNLOCK(hadc);
 8001b7e:	2300      	movs	r3, #0
 8001b80:	f884 3024 	strb.w	r3, [r4, #36]	@ 0x24
 8001b84:	e7f0      	b.n	8001b68 <HAL_ADC_Start_IT+0xa0>
  __HAL_LOCK(hadc);
 8001b86:	2002      	movs	r0, #2
 8001b88:	e7ee      	b.n	8001b68 <HAL_ADC_Start_IT+0xa0>
 8001b8a:	bf00      	nop
 8001b8c:	40012800 	.word	0x40012800
 8001b90:	40012400 	.word	0x40012400

08001b94 <ADC_ConversionStop_Disable>:
  *         stopped to disable the ADC.
  * @param  hadc: ADC handle
  * @retval HAL status.
  */
HAL_StatusTypeDef ADC_ConversionStop_Disable(ADC_HandleTypeDef* hadc)
{
 8001b94:	b538      	push	{r3, r4, r5, lr}
  uint32_t tickstart = 0U;
  
  /* Verification if ADC is not already disabled */
  if (ADC_IS_ENABLE(hadc) != RESET)
 8001b96:	6803      	ldr	r3, [r0, #0]
{
 8001b98:	4604      	mov	r4, r0
  if (ADC_IS_ENABLE(hadc) != RESET)
 8001b9a:	689a      	ldr	r2, [r3, #8]
 8001b9c:	07d1      	lsls	r1, r2, #31
 8001b9e:	d401      	bmi.n	8001ba4 <ADC_ConversionStop_Disable+0x10>
      }
    }
  }
  
  /* Return HAL status */
  return HAL_OK;
 8001ba0:	2000      	movs	r0, #0
}
 8001ba2:	bd38      	pop	{r3, r4, r5, pc}
    __HAL_ADC_DISABLE(hadc);
 8001ba4:	689a      	ldr	r2, [r3, #8]
 8001ba6:	f022 0201 	bic.w	r2, r2, #1
 8001baa:	609a      	str	r2, [r3, #8]
    tickstart = HAL_GetTick();
 8001bac:	f7ff fe44 	bl	8001838 <HAL_GetTick>
 8001bb0:	4605      	mov	r5, r0
    while(ADC_IS_ENABLE(hadc) != RESET)
 8001bb2:	6823      	ldr	r3, [r4, #0]
 8001bb4:	689b      	ldr	r3, [r3, #8]
 8001bb6:	07db      	lsls	r3, r3, #31
 8001bb8:	d5f2      	bpl.n	8001ba0 <ADC_ConversionStop_Disable+0xc>
      if((HAL_GetTick() - tickstart) > ADC_DISABLE_TIMEOUT)
 8001bba:	f7ff fe3d 	bl	8001838 <HAL_GetTick>
 8001bbe:	1b40      	subs	r0, r0, r5
 8001bc0:	2802      	cmp	r0, #2
 8001bc2:	d9f6      	bls.n	8001bb2 <ADC_ConversionStop_Disable+0x1e>
        if(ADC_IS_ENABLE(hadc) != RESET)
 8001bc4:	6823      	ldr	r3, [r4, #0]
 8001bc6:	689b      	ldr	r3, [r3, #8]
 8001bc8:	07da      	lsls	r2, r3, #31
 8001bca:	d5f2      	bpl.n	8001bb2 <ADC_ConversionStop_Disable+0x1e>
          SET_BIT(hadc->State, HAL_ADC_STATE_ERROR_INTERNAL);
 8001bcc:	6aa3      	ldr	r3, [r4, #40]	@ 0x28
          return HAL_ERROR;
 8001bce:	2001      	movs	r0, #1
          SET_BIT(hadc->State, HAL_ADC_STATE_ERROR_INTERNAL);
 8001bd0:	f043 0310 	orr.w	r3, r3, #16
 8001bd4:	62a3      	str	r3, [r4, #40]	@ 0x28
          SET_BIT(hadc->ErrorCode, HAL_ADC_ERROR_INTERNAL);
 8001bd6:	6ae3      	ldr	r3, [r4, #44]	@ 0x2c
 8001bd8:	f043 0301 	orr.w	r3, r3, #1
 8001bdc:	62e3      	str	r3, [r4, #44]	@ 0x2c
          return HAL_ERROR;
 8001bde:	e7e0      	b.n	8001ba2 <ADC_ConversionStop_Disable+0xe>

08001be0 <HAL_ADC_Init>:
{
 8001be0:	b5f8      	push	{r3, r4, r5, r6, r7, lr}
  if(hadc == NULL)
 8001be2:	4604      	mov	r4, r0
 8001be4:	2800      	cmp	r0, #0
 8001be6:	d06d      	beq.n	8001cc4 <HAL_ADC_Init+0xe4>
  if (hadc->State == HAL_ADC_STATE_RESET)
 8001be8:	6a83      	ldr	r3, [r0, #40]	@ 0x28
 8001bea:	b923      	cbnz	r3, 8001bf6 <HAL_ADC_Init+0x16>
    ADC_CLEAR_ERRORCODE(hadc);
 8001bec:	62c3      	str	r3, [r0, #44]	@ 0x2c
    hadc->Lock = HAL_UNLOCKED;
 8001bee:	f880 3024 	strb.w	r3, [r0, #36]	@ 0x24
    HAL_ADC_MspInit(hadc);
 8001bf2:	f7ff fbeb 	bl	80013cc <HAL_ADC_MspInit>
  tmp_hal_status = ADC_ConversionStop_Disable(hadc);
 8001bf6:	4620      	mov	r0, r4
 8001bf8:	f7ff ffcc 	bl	8001b94 <ADC_ConversionStop_Disable>
  if (HAL_IS_BIT_CLR(hadc->State, HAL_ADC_STATE_ERROR_INTERNAL) &&
 8001bfc:	6aa3      	ldr	r3, [r4, #40]	@ 0x28
 8001bfe:	f013 0310 	ands.w	r3, r3, #16
 8001c02:	d161      	bne.n	8001cc8 <HAL_ADC_Init+0xe8>
 8001c04:	2800      	cmp	r0, #0
 8001c06:	d15f      	bne.n	8001cc8 <HAL_ADC_Init+0xe8>
    ADC_STATE_CLR_SET(hadc->State,
 8001c08:	6aa2      	ldr	r2, [r4, #40]	@ 0x28
    tmp_cr2 |= (hadc->Init.DataAlign                                          |
 8001c0a:	6861      	ldr	r1, [r4, #4]
    ADC_STATE_CLR_SET(hadc->State,
 8001c0c:	f422 5288 	bic.w	r2, r2, #4352	@ 0x1100
 8001c10:	f022 0202 	bic.w	r2, r2, #2
 8001c14:	f042 0202 	orr.w	r2, r2, #2
    tmp_cr2 |= (hadc->Init.DataAlign                                          |
 8001c18:	69e5      	ldr	r5, [r4, #28]
    tmp_cr1 |= (ADC_CR1_SCAN_SET(hadc->Init.ScanConvMode));
 8001c1a:	68a6      	ldr	r6, [r4, #8]
    ADC_STATE_CLR_SET(hadc->State,
 8001c1c:	62a2      	str	r2, [r4, #40]	@ 0x28
                ADC_CR2_CONTINUOUS((uint32_t)hadc->Init.ContinuousConvMode)   );
 8001c1e:	7b22      	ldrb	r2, [r4, #12]
    tmp_cr2 |= (hadc->Init.DataAlign                                          |
 8001c20:	4329      	orrs	r1, r5
    tmp_cr1 |= (ADC_CR1_SCAN_SET(hadc->Init.ScanConvMode));
 8001c22:	f5b6 7f80 	cmp.w	r6, #256	@ 0x100
                ADC_CFGR_EXTSEL(hadc, hadc->Init.ExternalTrigConv)            |
 8001c26:	ea41 0142 	orr.w	r1, r1, r2, lsl #1
    tmp_cr1 |= (ADC_CR1_SCAN_SET(hadc->Init.ScanConvMode));
 8001c2a:	d036      	beq.n	8001c9a <HAL_ADC_Init+0xba>
 8001c2c:	1e77      	subs	r7, r6, #1
 8001c2e:	427d      	negs	r5, r7
 8001c30:	417d      	adcs	r5, r7
 8001c32:	022d      	lsls	r5, r5, #8
    if (hadc->Init.DiscontinuousConvMode == ENABLE)
 8001c34:	7d27      	ldrb	r7, [r4, #20]
 8001c36:	2f01      	cmp	r7, #1
 8001c38:	d106      	bne.n	8001c48 <HAL_ADC_Init+0x68>
      if (hadc->Init.ContinuousConvMode == DISABLE)
 8001c3a:	bb82      	cbnz	r2, 8001c9e <HAL_ADC_Init+0xbe>
        SET_BIT(tmp_cr1, ADC_CR1_DISCEN                                            |
 8001c3c:	69a2      	ldr	r2, [r4, #24]
 8001c3e:	3a01      	subs	r2, #1
 8001c40:	ea45 3242 	orr.w	r2, r5, r2, lsl #13
 8001c44:	f442 6500 	orr.w	r5, r2, #2048	@ 0x800
      MODIFY_REG(hadc->Instance->CR1,
 8001c48:	6822      	ldr	r2, [r4, #0]
    if (ADC_CR1_SCAN_SET(hadc->Init.ScanConvMode) == ADC_SCAN_ENABLE)
 8001c4a:	f5b6 7f80 	cmp.w	r6, #256	@ 0x100
      MODIFY_REG(hadc->Instance->CR1,
 8001c4e:	6857      	ldr	r7, [r2, #4]
 8001c50:	f427 4769 	bic.w	r7, r7, #59648	@ 0xe900
 8001c54:	ea45 0507 	orr.w	r5, r5, r7
 8001c58:	6055      	str	r5, [r2, #4]
      MODIFY_REG(hadc->Instance->CR2,
 8001c5a:	6897      	ldr	r7, [r2, #8]
 8001c5c:	4d1d      	ldr	r5, [pc, #116]	@ (8001cd4 <HAL_ADC_Init+0xf4>)
 8001c5e:	ea05 0507 	and.w	r5, r5, r7
 8001c62:	ea45 0501 	orr.w	r5, r5, r1
 8001c66:	6095      	str	r5, [r2, #8]
    if (ADC_CR1_SCAN_SET(hadc->Init.ScanConvMode) == ADC_SCAN_ENABLE)
 8001c68:	d001      	beq.n	8001c6e <HAL_ADC_Init+0x8e>
 8001c6a:	2e01      	cmp	r6, #1
 8001c6c:	d102      	bne.n	8001c74 <HAL_ADC_Init+0x94>
      tmp_sqr1 = ADC_SQR1_L_SHIFT(hadc->Init.NbrOfConversion);
 8001c6e:	6923      	ldr	r3, [r4, #16]
 8001c70:	3b01      	subs	r3, #1
 8001c72:	051b      	lsls	r3, r3, #20
    MODIFY_REG(hadc->Instance->SQR1,
 8001c74:	6ad5      	ldr	r5, [r2, #44]	@ 0x2c
 8001c76:	f425 0570 	bic.w	r5, r5, #15728640	@ 0xf00000
 8001c7a:	432b      	orrs	r3, r5
 8001c7c:	62d3      	str	r3, [r2, #44]	@ 0x2c
    if (READ_BIT(hadc->Instance->CR2, ~(ADC_CR2_ADON | ADC_CR2_DMA |
 8001c7e:	6892      	ldr	r2, [r2, #8]
 8001c80:	4b15      	ldr	r3, [pc, #84]	@ (8001cd8 <HAL_ADC_Init+0xf8>)
 8001c82:	4013      	ands	r3, r2
 8001c84:	4299      	cmp	r1, r3
 8001c86:	d113      	bne.n	8001cb0 <HAL_ADC_Init+0xd0>
      ADC_CLEAR_ERRORCODE(hadc);
 8001c88:	2300      	movs	r3, #0
 8001c8a:	62e3      	str	r3, [r4, #44]	@ 0x2c
      ADC_STATE_CLR_SET(hadc->State,
 8001c8c:	6aa3      	ldr	r3, [r4, #40]	@ 0x28
 8001c8e:	f023 0303 	bic.w	r3, r3, #3
 8001c92:	f043 0301 	orr.w	r3, r3, #1
 8001c96:	62a3      	str	r3, [r4, #40]	@ 0x28
}
 8001c98:	bdf8      	pop	{r3, r4, r5, r6, r7, pc}
    tmp_cr1 |= (ADC_CR1_SCAN_SET(hadc->Init.ScanConvMode));
 8001c9a:	4635      	mov	r5, r6
 8001c9c:	e7ca      	b.n	8001c34 <HAL_ADC_Init+0x54>
        SET_BIT(hadc->State, HAL_ADC_STATE_ERROR_CONFIG);
 8001c9e:	6aa2      	ldr	r2, [r4, #40]	@ 0x28
 8001ca0:	f042 0220 	orr.w	r2, r2, #32
 8001ca4:	62a2      	str	r2, [r4, #40]	@ 0x28
        SET_BIT(hadc->ErrorCode, HAL_ADC_ERROR_INTERNAL);
 8001ca6:	6ae2      	ldr	r2, [r4, #44]	@ 0x2c
 8001ca8:	f042 0201 	orr.w	r2, r2, #1
 8001cac:	62e2      	str	r2, [r4, #44]	@ 0x2c
 8001cae:	e7cb      	b.n	8001c48 <HAL_ADC_Init+0x68>
      ADC_STATE_CLR_SET(hadc->State,
 8001cb0:	6aa3      	ldr	r3, [r4, #40]	@ 0x28
 8001cb2:	f023 0312 	bic.w	r3, r3, #18
 8001cb6:	f043 0310 	orr.w	r3, r3, #16
 8001cba:	62a3      	str	r3, [r4, #40]	@ 0x28
      SET_BIT(hadc->ErrorCode, HAL_ADC_ERROR_INTERNAL);
 8001cbc:	6ae3      	ldr	r3, [r4, #44]	@ 0x2c
 8001cbe:	f043 0301 	orr.w	r3, r3, #1
 8001cc2:	62e3      	str	r3, [r4, #44]	@ 0x2c
    return HAL_ERROR;
 8001cc4:	2001      	movs	r0, #1
 8001cc6:	e7e7      	b.n	8001c98 <HAL_ADC_Init+0xb8>
    SET_BIT(hadc->State, HAL_ADC_STATE_ERROR_INTERNAL);
 8001cc8:	6aa3      	ldr	r3, [r4, #40]	@ 0x28
 8001cca:	f043 0310 	orr.w	r3, r3, #16
 8001cce:	62a3      	str	r3, [r4, #40]	@ 0x28
    tmp_hal_status = HAL_ERROR;
 8001cd0:	e7f8      	b.n	8001cc4 <HAL_ADC_Init+0xe4>
 8001cd2:	bf00      	nop
 8001cd4:	ffe1f7fd 	.word	0xffe1f7fd
 8001cd8:	ff1f0efe 	.word	0xff1f0efe

08001cdc <HAL_ADCEx_Calibration_Start>:
  */
HAL_StatusTypeDef HAL_ADCEx_Calibration_Start(ADC_HandleTypeDef* hadc)
{
  HAL_StatusTypeDef tmp_hal_status = HAL_OK;
  uint32_t tickstart;
  __IO uint32_t wait_loop_index = 0U;
 8001cdc:	2300      	movs	r3, #0
{
 8001cde:	b573      	push	{r0, r1, r4, r5, r6, lr}
  __IO uint32_t wait_loop_index = 0U;
 8001ce0:	9301      	str	r3, [sp, #4]
  
  /* Check the parameters */
  assert_param(IS_ADC_ALL_INSTANCE(hadc->Instance));

  /* Process locked */
  __HAL_LOCK(hadc);
 8001ce2:	f890 3024 	ldrb.w	r3, [r0, #36]	@ 0x24
{
 8001ce6:	4604      	mov	r4, r0
  __HAL_LOCK(hadc);
 8001ce8:	2b01      	cmp	r3, #1
 8001cea:	d062      	beq.n	8001db2 <HAL_ADCEx_Calibration_Start+0xd6>
 8001cec:	2301      	movs	r3, #1
 8001cee:	f880 3024 	strb.w	r3, [r0, #36]	@ 0x24
    
   /* 1. Disable ADC peripheral                                                 */
   tmp_hal_status = ADC_ConversionStop_Disable(hadc);
 8001cf2:	f7ff ff4f 	bl	8001b94 <ADC_ConversionStop_Disable>
  
   /* 2. Calibration prerequisite delay before starting the calibration.       */
   /*    - ADC must be enabled for at least two ADC clock cycles               */
   tmp_hal_status = ADC_Enable(hadc);
 8001cf6:	4620      	mov	r0, r4
 8001cf8:	f7ff feaa 	bl	8001a50 <ADC_Enable>

   /* Check if ADC is effectively enabled */
   if (tmp_hal_status == HAL_OK)
 8001cfc:	4605      	mov	r5, r0
 8001cfe:	2800      	cmp	r0, #0
 8001d00:	d12f      	bne.n	8001d62 <HAL_ADCEx_Calibration_Start+0x86>
   {
     /* Set ADC state */
     ADC_STATE_CLR_SET(hadc->State,
 8001d02:	6aa3      	ldr	r3, [r4, #40]	@ 0x28
    
    /* Hardware prerequisite: delay before starting the calibration.          */
    /*  - Computation of CPU clock cycles corresponding to ADC clock cycles.  */
    /*  - Wait for the expected ADC clock cycles delay */
    wait_loop_index = ((SystemCoreClock
                        / HAL_RCCEx_GetPeriphCLKFreq(RCC_PERIPHCLK_ADC))
 8001d04:	2002      	movs	r0, #2
     ADC_STATE_CLR_SET(hadc->State,
 8001d06:	f423 5388 	bic.w	r3, r3, #4352	@ 0x1100
 8001d0a:	f023 0302 	bic.w	r3, r3, #2
 8001d0e:	f043 0302 	orr.w	r3, r3, #2
 8001d12:	62a3      	str	r3, [r4, #40]	@ 0x28
                        / HAL_RCCEx_GetPeriphCLKFreq(RCC_PERIPHCLK_ADC))
 8001d14:	4b28      	ldr	r3, [pc, #160]	@ (8001db8 <HAL_ADCEx_Calibration_Start+0xdc>)
 8001d16:	681e      	ldr	r6, [r3, #0]
 8001d18:	f000 fff0 	bl	8002cfc <HAL_RCCEx_GetPeriphCLKFreq>
 8001d1c:	fbb6 f6f0 	udiv	r6, r6, r0
                       * ADC_PRECALIBRATION_DELAY_ADCCLOCKCYCLES        );
 8001d20:	0076      	lsls	r6, r6, #1
    wait_loop_index = ((SystemCoreClock
 8001d22:	9601      	str	r6, [sp, #4]

    while(wait_loop_index != 0U)
 8001d24:	9b01      	ldr	r3, [sp, #4]
 8001d26:	bb03      	cbnz	r3, 8001d6a <HAL_ADCEx_Calibration_Start+0x8e>
    {
      wait_loop_index--;
    }

    /* 3. Resets ADC calibration registers */  
    SET_BIT(hadc->Instance->CR2, ADC_CR2_RSTCAL);
 8001d28:	6822      	ldr	r2, [r4, #0]
 8001d2a:	6893      	ldr	r3, [r2, #8]
 8001d2c:	f043 0308 	orr.w	r3, r3, #8
 8001d30:	6093      	str	r3, [r2, #8]
    
    tickstart = HAL_GetTick();  
 8001d32:	f7ff fd81 	bl	8001838 <HAL_GetTick>
 8001d36:	4606      	mov	r6, r0

    /* Wait for calibration reset completion */
    while(HAL_IS_BIT_SET(hadc->Instance->CR2, ADC_CR2_RSTCAL))
 8001d38:	6823      	ldr	r3, [r4, #0]
 8001d3a:	689a      	ldr	r2, [r3, #8]
 8001d3c:	0711      	lsls	r1, r2, #28
 8001d3e:	d418      	bmi.n	8001d72 <HAL_ADCEx_Calibration_Start+0x96>
        }
      }
    }
    
    /* 4. Start ADC calibration */
    SET_BIT(hadc->Instance->CR2, ADC_CR2_CAL);
 8001d40:	689a      	ldr	r2, [r3, #8]
 8001d42:	f042 0204 	orr.w	r2, r2, #4
 8001d46:	609a      	str	r2, [r3, #8]
    
    tickstart = HAL_GetTick();  
 8001d48:	f7ff fd76 	bl	8001838 <HAL_GetTick>
 8001d4c:	4606      	mov	r6, r0

    /* Wait for calibration completion */
    while(HAL_IS_BIT_SET(hadc->Instance->CR2, ADC_CR2_CAL))
 8001d4e:	6823      	ldr	r3, [r4, #0]
 8001d50:	689b      	ldr	r3, [r3, #8]
 8001d52:	075b      	lsls	r3, r3, #29
 8001d54:	d423      	bmi.n	8001d9e <HAL_ADCEx_Calibration_Start+0xc2>
        }
      }
    }
    
    /* Set ADC state */
    ADC_STATE_CLR_SET(hadc->State,
 8001d56:	6aa3      	ldr	r3, [r4, #40]	@ 0x28
 8001d58:	f023 0303 	bic.w	r3, r3, #3
 8001d5c:	f043 0301 	orr.w	r3, r3, #1
 8001d60:	62a3      	str	r3, [r4, #40]	@ 0x28
                      HAL_ADC_STATE_BUSY_INTERNAL,
                      HAL_ADC_STATE_READY);
  }
  
  /* Process unlocked */
  __HAL_UNLOCK(hadc);
 8001d62:	2300      	movs	r3, #0
 8001d64:	f884 3024 	strb.w	r3, [r4, #36]	@ 0x24
  
  /* Return function status */
  return tmp_hal_status;
 8001d68:	e016      	b.n	8001d98 <HAL_ADCEx_Calibration_Start+0xbc>
      wait_loop_index--;
 8001d6a:	9b01      	ldr	r3, [sp, #4]
 8001d6c:	3b01      	subs	r3, #1
 8001d6e:	9301      	str	r3, [sp, #4]
 8001d70:	e7d8      	b.n	8001d24 <HAL_ADCEx_Calibration_Start+0x48>
      if((HAL_GetTick() - tickstart) > ADC_CALIBRATION_TIMEOUT)
 8001d72:	f7ff fd61 	bl	8001838 <HAL_GetTick>
 8001d76:	1b80      	subs	r0, r0, r6
 8001d78:	280a      	cmp	r0, #10
 8001d7a:	d9dd      	bls.n	8001d38 <HAL_ADCEx_Calibration_Start+0x5c>
        if(HAL_IS_BIT_SET(hadc->Instance->CR2, ADC_CR2_RSTCAL))
 8001d7c:	6823      	ldr	r3, [r4, #0]
 8001d7e:	689b      	ldr	r3, [r3, #8]
 8001d80:	0718      	lsls	r0, r3, #28
 8001d82:	d5d9      	bpl.n	8001d38 <HAL_ADCEx_Calibration_Start+0x5c>
          ADC_STATE_CLR_SET(hadc->State,
 8001d84:	6aa3      	ldr	r3, [r4, #40]	@ 0x28
          return HAL_ERROR;
 8001d86:	2501      	movs	r5, #1
          ADC_STATE_CLR_SET(hadc->State,
 8001d88:	f023 0312 	bic.w	r3, r3, #18
 8001d8c:	f043 0310 	orr.w	r3, r3, #16
 8001d90:	62a3      	str	r3, [r4, #40]	@ 0x28
          __HAL_UNLOCK(hadc);
 8001d92:	2300      	movs	r3, #0
 8001d94:	f884 3024 	strb.w	r3, [r4, #36]	@ 0x24
}
 8001d98:	4628      	mov	r0, r5
 8001d9a:	b002      	add	sp, #8
 8001d9c:	bd70      	pop	{r4, r5, r6, pc}
      if((HAL_GetTick() - tickstart) > ADC_CALIBRATION_TIMEOUT)
 8001d9e:	f7ff fd4b 	bl	8001838 <HAL_GetTick>
 8001da2:	1b80      	subs	r0, r0, r6
 8001da4:	280a      	cmp	r0, #10
 8001da6:	d9d2      	bls.n	8001d4e <HAL_ADCEx_Calibration_Start+0x72>
        if(HAL_IS_BIT_SET(hadc->Instance->CR2, ADC_CR2_CAL))
 8001da8:	6823      	ldr	r3, [r4, #0]
 8001daa:	689b      	ldr	r3, [r3, #8]
 8001dac:	075a      	lsls	r2, r3, #29
 8001dae:	d5ce      	bpl.n	8001d4e <HAL_ADCEx_Calibration_Start+0x72>
 8001db0:	e7e8      	b.n	8001d84 <HAL_ADCEx_Calibration_Start+0xa8>
  __HAL_LOCK(hadc);
 8001db2:	2502      	movs	r5, #2
 8001db4:	e7f0      	b.n	8001d98 <HAL_ADCEx_Calibration_Start+0xbc>
 8001db6:	bf00      	nop
 8001db8:	2000001c 	.word	0x2000001c

08001dbc <HAL_ADCEx_InjectedConvCpltCallback>:
  /* Prevent unused argument(s) compilation warning */
  UNUSED(hadc);
  /* NOTE : This function Should not be modified, when the callback is needed,
            the HAL_ADCEx_InjectedConvCpltCallback could be implemented in the user file
  */
}
 8001dbc:	4770      	bx	lr
	...

08001dc0 <HAL_NVIC_SetPriorityGrouping>:
__STATIC_INLINE void __NVIC_SetPriorityGrouping(uint32_t PriorityGroup)
{
  uint32_t reg_value;
  uint32_t PriorityGroupTmp = (PriorityGroup & (uint32_t)0x07UL);             /* only values 0..7 are used          */

  reg_value  =  SCB->AIRCR;                                                   /* read old register configuration    */
 8001dc0:	4907      	ldr	r1, [pc, #28]	@ (8001de0 <HAL_NVIC_SetPriorityGrouping+0x20>)
  reg_value &= ~((uint32_t)(SCB_AIRCR_VECTKEY_Msk | SCB_AIRCR_PRIGROUP_Msk)); /* clear bits to change               */
  reg_value  =  (reg_value                                   |
                ((uint32_t)0x5FAUL << SCB_AIRCR_VECTKEY_Pos) |
                (PriorityGroupTmp << SCB_AIRCR_PRIGROUP_Pos) );               /* Insert write key and priority group */
 8001dc2:	0203      	lsls	r3, r0, #8
  reg_value  =  SCB->AIRCR;                                                   /* read old register configuration    */
 8001dc4:	68ca      	ldr	r2, [r1, #12]
                (PriorityGroupTmp << SCB_AIRCR_PRIGROUP_Pos) );               /* Insert write key and priority group */
 8001dc6:	f403 63e0 	and.w	r3, r3, #1792	@ 0x700
  reg_value &= ~((uint32_t)(SCB_AIRCR_VECTKEY_Msk | SCB_AIRCR_PRIGROUP_Msk)); /* clear bits to change               */
 8001dca:	f422 62e0 	bic.w	r2, r2, #1792	@ 0x700
 8001dce:	0412      	lsls	r2, r2, #16
 8001dd0:	0c12      	lsrs	r2, r2, #16
                ((uint32_t)0x5FAUL << SCB_AIRCR_VECTKEY_Pos) |
 8001dd2:	4313      	orrs	r3, r2
  reg_value  =  (reg_value                                   |
 8001dd4:	f043 63bf 	orr.w	r3, r3, #100139008	@ 0x5f80000
 8001dd8:	f443 3300 	orr.w	r3, r3, #131072	@ 0x20000
  SCB->AIRCR =  reg_value;
 8001ddc:	60cb      	str	r3, [r1, #12]
  /* Check the parameters */
  assert_param(IS_NVIC_PRIORITY_GROUP(PriorityGroup));
  
  /* Set the PRIGROUP[10:8] bits according to the PriorityGroup parameter value */
  NVIC_SetPriorityGrouping(PriorityGroup);
}
 8001dde:	4770      	bx	lr
 8001de0:	e000ed00 	.word	0xe000ed00

08001de4 <HAL_NVIC_SetPriority>:
  \details Reads the priority grouping field from the NVIC Interrupt Controller.
  \return                Priority grouping field (SCB->AIRCR [10:8] PRIGROUP field).
 */
__STATIC_INLINE uint32_t __NVIC_GetPriorityGrouping(void)
{
  return ((uint32_t)((SCB->AIRCR & SCB_AIRCR_PRIGROUP_Msk) >> SCB_AIRCR_PRIGROUP_Pos));
 8001de4:	4b15      	ldr	r3, [pc, #84]	@ (8001e3c <HAL_NVIC_SetPriority+0x58>)
  *         This parameter can be a value between 0 and 15
  *         A lower priority value indicates a higher priority.          
  * @retval None
  */
void HAL_NVIC_SetPriority(IRQn_Type IRQn, uint32_t PreemptPriority, uint32_t SubPriority)
{ 
 8001de6:	b530      	push	{r4, r5, lr}
 8001de8:	68dc      	ldr	r4, [r3, #12]
 8001dea:	f3c4 2402 	ubfx	r4, r4, #8, #3
{
  uint32_t PriorityGroupTmp = (PriorityGroup & (uint32_t)0x07UL);   /* only values 0..7 are used          */
  uint32_t PreemptPriorityBits;
  uint32_t SubPriorityBits;

  PreemptPriorityBits = ((7UL - PriorityGroupTmp) > (uint32_t)(__NVIC_PRIO_BITS)) ? (uint32_t)(__NVIC_PRIO_BITS) : (uint32_t)(7UL - PriorityGroupTmp);
 8001dee:	f1c4 0307 	rsb	r3, r4, #7
  SubPriorityBits     = ((PriorityGroupTmp + (uint32_t)(__NVIC_PRIO_BITS)) < (uint32_t)7UL) ? (uint32_t)0UL : (uint32_t)((PriorityGroupTmp - 7UL) + (uint32_t)(__NVIC_PRIO_BITS));
 8001df2:	1d25      	adds	r5, r4, #4
  PreemptPriorityBits = ((7UL - PriorityGroupTmp) > (uint32_t)(__NVIC_PRIO_BITS)) ? (uint32_t)(__NVIC_PRIO_BITS) : (uint32_t)(7UL - PriorityGroupTmp);
 8001df4:	2b04      	cmp	r3, #4
 8001df6:	bf28      	it	cs
 8001df8:	2304      	movcs	r3, #4
  SubPriorityBits     = ((PriorityGroupTmp + (uint32_t)(__NVIC_PRIO_BITS)) < (uint32_t)7UL) ? (uint32_t)0UL : (uint32_t)((PriorityGroupTmp - 7UL) + (uint32_t)(__NVIC_PRIO_BITS));
 8001dfa:	2d06      	cmp	r5, #6

  return (
           ((PreemptPriority & (uint32_t)((1UL << (PreemptPriorityBits)) - 1UL)) << SubPriorityBits) |
 8001dfc:	f04f 35ff 	mov.w	r5, #4294967295	@ 0xffffffff
  SubPriorityBits     = ((PriorityGroupTmp + (uint32_t)(__NVIC_PRIO_BITS)) < (uint32_t)7UL) ? (uint32_t)0UL : (uint32_t)((PriorityGroupTmp - 7UL) + (uint32_t)(__NVIC_PRIO_BITS));
 8001e00:	bf94      	ite	ls
 8001e02:	2400      	movls	r4, #0
 8001e04:	3c03      	subhi	r4, #3
           ((PreemptPriority & (uint32_t)((1UL << (PreemptPriorityBits)) - 1UL)) << SubPriorityBits) |
 8001e06:	fa05 f303 	lsl.w	r3, r5, r3
 8001e0a:	ea21 0303 	bic.w	r3, r1, r3
           ((SubPriority     & (uint32_t)((1UL << (SubPriorityBits    )) - 1UL)))
 8001e0e:	40a5      	lsls	r5, r4
 8001e10:	ea22 0205 	bic.w	r2, r2, r5
           ((PreemptPriority & (uint32_t)((1UL << (PreemptPriorityBits)) - 1UL)) << SubPriorityBits) |
 8001e14:	40a3      	lsls	r3, r4
  if ((int32_t)(IRQn) >= 0)
 8001e16:	2800      	cmp	r0, #0
           ((PreemptPriority & (uint32_t)((1UL << (PreemptPriorityBits)) - 1UL)) << SubPriorityBits) |
 8001e18:	ea43 0302 	orr.w	r3, r3, r2
    NVIC->IP[((uint32_t)IRQn)]               = (uint8_t)((priority << (8U - __NVIC_PRIO_BITS)) & (uint32_t)0xFFUL);
 8001e1c:	bfac      	ite	ge
 8001e1e:	f100 4060 	addge.w	r0, r0, #3758096384	@ 0xe0000000
    SCB->SHP[(((uint32_t)IRQn) & 0xFUL)-4UL] = (uint8_t)((priority << (8U - __NVIC_PRIO_BITS)) & (uint32_t)0xFFUL);
 8001e22:	4a07      	ldrlt	r2, [pc, #28]	@ (8001e40 <HAL_NVIC_SetPriority+0x5c>)
    NVIC->IP[((uint32_t)IRQn)]               = (uint8_t)((priority << (8U - __NVIC_PRIO_BITS)) & (uint32_t)0xFFUL);
 8001e24:	ea4f 1303 	mov.w	r3, r3, lsl #4
 8001e28:	b2db      	uxtb	r3, r3
 8001e2a:	bfab      	itete	ge
 8001e2c:	f500 4061 	addge.w	r0, r0, #57600	@ 0xe100
    SCB->SHP[(((uint32_t)IRQn) & 0xFUL)-4UL] = (uint8_t)((priority << (8U - __NVIC_PRIO_BITS)) & (uint32_t)0xFFUL);
 8001e30:	f000 000f 	andlt.w	r0, r0, #15
    NVIC->IP[((uint32_t)IRQn)]               = (uint8_t)((priority << (8U - __NVIC_PRIO_BITS)) & (uint32_t)0xFFUL);
 8001e34:	f880 3300 	strbge.w	r3, [r0, #768]	@ 0x300
    SCB->SHP[(((uint32_t)IRQn) & 0xFUL)-4UL] = (uint8_t)((priority << (8U - __NVIC_PRIO_BITS)) & (uint32_t)0xFFUL);
 8001e38:	5413      	strblt	r3, [r2, r0]
  assert_param(IS_NVIC_PREEMPTION_PRIORITY(PreemptPriority));
  
  prioritygroup = NVIC_GetPriorityGrouping();
  
  NVIC_SetPriority(IRQn, NVIC_EncodePriority(prioritygroup, PreemptPriority, SubPriority));
}
 8001e3a:	bd30      	pop	{r4, r5, pc}
 8001e3c:	e000ed00 	.word	0xe000ed00
 8001e40:	e000ed14 	.word	0xe000ed14

08001e44 <HAL_NVIC_EnableIRQ>:
  if ((int32_t)(IRQn) >= 0)
 8001e44:	2800      	cmp	r0, #0
 8001e46:	db07      	blt.n	8001e58 <HAL_NVIC_EnableIRQ+0x14>
    NVIC->ISER[(((uint32_t)IRQn) >> 5UL)] = (uint32_t)(1UL << (((uint32_t)IRQn) & 0x1FUL));
 8001e48:	2301      	movs	r3, #1
 8001e4a:	0941      	lsrs	r1, r0, #5
 8001e4c:	4a03      	ldr	r2, [pc, #12]	@ (8001e5c <HAL_NVIC_EnableIRQ+0x18>)
 8001e4e:	f000 001f 	and.w	r0, r0, #31
 8001e52:	4083      	lsls	r3, r0
 8001e54:	f842 3021 	str.w	r3, [r2, r1, lsl #2]
  /* Check the parameters */
  assert_param(IS_NVIC_DEVICE_IRQ(IRQn));

  /* Enable interrupt */
  NVIC_EnableIRQ(IRQn);
}
 8001e58:	4770      	bx	lr
 8001e5a:	bf00      	nop
 8001e5c:	e000e100 	.word	0xe000e100

08001e60 <HAL_DMA_Abort>:
  */
HAL_StatusTypeDef HAL_DMA_Abort(DMA_HandleTypeDef *hdma)
{
  HAL_StatusTypeDef status = HAL_OK;
  
  if(hdma->State != HAL_DMA_STATE_BUSY)
 8001e60:	f890 2021 	ldrb.w	r2, [r0, #33]	@ 0x21
{
 8001e64:	4603      	mov	r3, r0
  if(hdma->State != HAL_DMA_STATE_BUSY)
 8001e66:	2a02      	cmp	r2, #2
 8001e68:	d006      	beq.n	8001e78 <HAL_DMA_Abort+0x18>
  {
    /* no transfer ongoing */
    hdma->ErrorCode = HAL_DMA_ERROR_NO_XFER;
 8001e6a:	2204      	movs	r2, #4
 8001e6c:	6382      	str	r2, [r0, #56]	@ 0x38
    
    /* Process Unlocked */
    __HAL_UNLOCK(hdma);
    
    return HAL_ERROR;
 8001e6e:	2001      	movs	r0, #1
    __HAL_UNLOCK(hdma);
 8001e70:	2200      	movs	r2, #0
 8001e72:	f883 2020 	strb.w	r2, [r3, #32]

  /* Process Unlocked */
  __HAL_UNLOCK(hdma);      
  
  return status; 
}
 8001e76:	4770      	bx	lr
    __HAL_DMA_DISABLE_IT(hdma, (DMA_IT_TC | DMA_IT_HT | DMA_IT_TE));
 8001e78:	6802      	ldr	r2, [r0, #0]
    hdma->DmaBaseAddress->IFCR = (DMA_ISR_GIF1 << hdma->ChannelIndex);
 8001e7a:	6bc0      	ldr	r0, [r0, #60]	@ 0x3c
    __HAL_DMA_DISABLE_IT(hdma, (DMA_IT_TC | DMA_IT_HT | DMA_IT_TE));
 8001e7c:	6811      	ldr	r1, [r2, #0]
 8001e7e:	f021 010e 	bic.w	r1, r1, #14
 8001e82:	6011      	str	r1, [r2, #0]
    __HAL_DMA_DISABLE(hdma);
 8001e84:	6811      	ldr	r1, [r2, #0]
 8001e86:	f021 0101 	bic.w	r1, r1, #1
 8001e8a:	6011      	str	r1, [r2, #0]
    hdma->DmaBaseAddress->IFCR = (DMA_ISR_GIF1 << hdma->ChannelIndex);
 8001e8c:	2101      	movs	r1, #1
 8001e8e:	6c1a      	ldr	r2, [r3, #64]	@ 0x40
 8001e90:	fa01 f202 	lsl.w	r2, r1, r2
 8001e94:	6042      	str	r2, [r0, #4]
  return status; 
 8001e96:	2000      	movs	r0, #0
  hdma->State = HAL_DMA_STATE_READY;
 8001e98:	f883 1021 	strb.w	r1, [r3, #33]	@ 0x21
  return status; 
 8001e9c:	e7e8      	b.n	8001e70 <HAL_DMA_Abort+0x10>
	...

08001ea0 <HAL_DMA_Abort_IT>:
  * @param  hdma  : pointer to a DMA_HandleTypeDef structure that contains
  *                 the configuration information for the specified DMA Channel.
  * @retval HAL status
  */
HAL_StatusTypeDef HAL_DMA_Abort_IT(DMA_HandleTypeDef *hdma)
{  
 8001ea0:	b508      	push	{r3, lr}
  HAL_StatusTypeDef status = HAL_OK;
  
  if(HAL_DMA_STATE_BUSY != hdma->State)
 8001ea2:	f890 3021 	ldrb.w	r3, [r0, #33]	@ 0x21
 8001ea6:	2b02      	cmp	r3, #2
 8001ea8:	d003      	beq.n	8001eb2 <HAL_DMA_Abort_IT+0x12>
  {
    /* no transfer ongoing */
    hdma->ErrorCode = HAL_DMA_ERROR_NO_XFER;
 8001eaa:	2304      	movs	r3, #4
 8001eac:	6383      	str	r3, [r0, #56]	@ 0x38
        
    status = HAL_ERROR;
 8001eae:	2001      	movs	r0, #1
    {
      hdma->XferAbortCallback(hdma);
    } 
  }
  return status;
}
 8001eb0:	bd08      	pop	{r3, pc}
    __HAL_DMA_DISABLE_IT(hdma, (DMA_IT_TC | DMA_IT_HT | DMA_IT_TE));
 8001eb2:	6803      	ldr	r3, [r0, #0]
 8001eb4:	681a      	ldr	r2, [r3, #0]
 8001eb6:	f022 020e 	bic.w	r2, r2, #14
 8001eba:	601a      	str	r2, [r3, #0]
    __HAL_DMA_DISABLE(hdma);
 8001ebc:	681a      	ldr	r2, [r3, #0]
 8001ebe:	f022 0201 	bic.w	r2, r2, #1
 8001ec2:	601a      	str	r2, [r3, #0]
    __HAL_DMA_CLEAR_FLAG(hdma, __HAL_DMA_GET_GI_FLAG_INDEX(hdma));
 8001ec4:	4a17      	ldr	r2, [pc, #92]	@ (8001f24 <HAL_DMA_Abort_IT+0x84>)
 8001ec6:	4293      	cmp	r3, r2
 8001ec8:	d01f      	beq.n	8001f0a <HAL_DMA_Abort_IT+0x6a>
 8001eca:	3214      	adds	r2, #20
 8001ecc:	4293      	cmp	r3, r2
 8001ece:	d01e      	beq.n	8001f0e <HAL_DMA_Abort_IT+0x6e>
 8001ed0:	3214      	adds	r2, #20
 8001ed2:	4293      	cmp	r3, r2
 8001ed4:	d01d      	beq.n	8001f12 <HAL_DMA_Abort_IT+0x72>
 8001ed6:	3214      	adds	r2, #20
 8001ed8:	4293      	cmp	r3, r2
 8001eda:	d01d      	beq.n	8001f18 <HAL_DMA_Abort_IT+0x78>
 8001edc:	3214      	adds	r2, #20
 8001ede:	4293      	cmp	r3, r2
 8001ee0:	d01d      	beq.n	8001f1e <HAL_DMA_Abort_IT+0x7e>
 8001ee2:	3214      	adds	r2, #20
 8001ee4:	4293      	cmp	r3, r2
 8001ee6:	bf14      	ite	ne
 8001ee8:	f04f 7380 	movne.w	r3, #16777216	@ 0x1000000
 8001eec:	f44f 1380 	moveq.w	r3, #1048576	@ 0x100000
 8001ef0:	4a0d      	ldr	r2, [pc, #52]	@ (8001f28 <HAL_DMA_Abort_IT+0x88>)
 8001ef2:	6053      	str	r3, [r2, #4]
    hdma->State = HAL_DMA_STATE_READY;
 8001ef4:	2301      	movs	r3, #1
 8001ef6:	f880 3021 	strb.w	r3, [r0, #33]	@ 0x21
    __HAL_UNLOCK(hdma);
 8001efa:	2300      	movs	r3, #0
 8001efc:	f880 3020 	strb.w	r3, [r0, #32]
    if(hdma->XferAbortCallback != NULL)
 8001f00:	6b43      	ldr	r3, [r0, #52]	@ 0x34
 8001f02:	b103      	cbz	r3, 8001f06 <HAL_DMA_Abort_IT+0x66>
      hdma->XferAbortCallback(hdma);
 8001f04:	4798      	blx	r3
  HAL_StatusTypeDef status = HAL_OK;
 8001f06:	2000      	movs	r0, #0
 8001f08:	e7d2      	b.n	8001eb0 <HAL_DMA_Abort_IT+0x10>
    __HAL_DMA_CLEAR_FLAG(hdma, __HAL_DMA_GET_GI_FLAG_INDEX(hdma));
 8001f0a:	2301      	movs	r3, #1
 8001f0c:	e7f0      	b.n	8001ef0 <HAL_DMA_Abort_IT+0x50>
 8001f0e:	2310      	movs	r3, #16
 8001f10:	e7ee      	b.n	8001ef0 <HAL_DMA_Abort_IT+0x50>
 8001f12:	f44f 7380 	mov.w	r3, #256	@ 0x100
 8001f16:	e7eb      	b.n	8001ef0 <HAL_DMA_Abort_IT+0x50>
 8001f18:	f44f 5380 	mov.w	r3, #4096	@ 0x1000
 8001f1c:	e7e8      	b.n	8001ef0 <HAL_DMA_Abort_IT+0x50>
 8001f1e:	f44f 3380 	mov.w	r3, #65536	@ 0x10000
 8001f22:	e7e5      	b.n	8001ef0 <HAL_DMA_Abort_IT+0x50>
 8001f24:	40020008 	.word	0x40020008
 8001f28:	40020000 	.word	0x40020000

08001f2c <HAL_GPIO_Init>:
  * @param  GPIO_Init: pointer to a GPIO_InitTypeDef structure that contains
  *         the configuration information for the specified GPIO peripheral.
  * @retval None
  */
void HAL_GPIO_Init(GPIO_TypeDef  *GPIOx, GPIO_InitTypeDef *GPIO_Init)
{
 8001f2c:	e92d 4ff7 	stmdb	sp!, {r0, r1, r2, r4, r5, r6, r7, r8, r9, sl, fp, lr}
  uint32_t position = 0x00u;
  uint32_t ioposition;
  uint32_t iocurrent;
  uint32_t temp;
  uint32_t config = 0x00u;
 8001f30:	2200      	movs	r2, #0
  uint32_t position = 0x00u;
 8001f32:	4616      	mov	r6, r2
      /*--------------------- EXTI Mode Configuration ------------------------*/
      /* Configure the External Interrupt or event for the current IO */
      if ((GPIO_Init->Mode & EXTI_MODE) == EXTI_MODE)
      {
        /* Enable AFIO Clock */
        __HAL_RCC_AFIO_CLK_ENABLE();
 8001f34:	f8df c17c 	ldr.w	ip, [pc, #380]	@ 80020b4 <HAL_GPIO_Init+0x188>
 8001f38:	4b5f      	ldr	r3, [pc, #380]	@ (80020b8 <HAL_GPIO_Init+0x18c>)
      switch (GPIO_Init->Mode)
 8001f3a:	f8df e180 	ldr.w	lr, [pc, #384]	@ 80020bc <HAL_GPIO_Init+0x190>
 8001f3e:	f8df 8180 	ldr.w	r8, [pc, #384]	@ 80020c0 <HAL_GPIO_Init+0x194>
  while (((GPIO_Init->Pin) >> position) != 0x00u)
 8001f42:	680d      	ldr	r5, [r1, #0]
 8001f44:	fa35 f406 	lsrs.w	r4, r5, r6
 8001f48:	d102      	bne.n	8001f50 <HAL_GPIO_Init+0x24>
      }
    }

	position++;
  }
}
 8001f4a:	b003      	add	sp, #12
 8001f4c:	e8bd 8ff0 	ldmia.w	sp!, {r4, r5, r6, r7, r8, r9, sl, fp, pc}
    ioposition = (0x01uL << position);
 8001f50:	2701      	movs	r7, #1
 8001f52:	40b7      	lsls	r7, r6
    iocurrent = (uint32_t)(GPIO_Init->Pin) & ioposition;
 8001f54:	ea05 0407 	and.w	r4, r5, r7
    if (iocurrent == ioposition)
 8001f58:	ea37 0505 	bics.w	r5, r7, r5
 8001f5c:	d175      	bne.n	800204a <HAL_GPIO_Init+0x11e>
      switch (GPIO_Init->Mode)
 8001f5e:	684d      	ldr	r5, [r1, #4]
 8001f60:	2d03      	cmp	r5, #3
 8001f62:	d806      	bhi.n	8001f72 <HAL_GPIO_Init+0x46>
 8001f64:	3d01      	subs	r5, #1
 8001f66:	2d02      	cmp	r5, #2
 8001f68:	d87e      	bhi.n	8002068 <HAL_GPIO_Init+0x13c>
 8001f6a:	e8df f005 	tbb	[pc, r5]
 8001f6e:	948f      	.short	0x948f
 8001f70:	9a          	.byte	0x9a
 8001f71:	00          	.byte	0x00
 8001f72:	2d12      	cmp	r5, #18
 8001f74:	f000 8092 	beq.w	800209c <HAL_GPIO_Init+0x170>
 8001f78:	d869      	bhi.n	800204e <HAL_GPIO_Init+0x122>
 8001f7a:	2d11      	cmp	r5, #17
 8001f7c:	f000 8088 	beq.w	8002090 <HAL_GPIO_Init+0x164>
      configregister = (iocurrent < GPIO_PIN_8) ? &GPIOx->CRL     : &GPIOx->CRH;
 8001f80:	2cff      	cmp	r4, #255	@ 0xff
 8001f82:	bf98      	it	ls
 8001f84:	4681      	movls	r9, r0
      MODIFY_REG((*configregister), ((GPIO_CRL_MODE0 | GPIO_CRL_CNF0) << registeroffset), (config << registeroffset));
 8001f86:	f04f 0b0f 	mov.w	fp, #15
      configregister = (iocurrent < GPIO_PIN_8) ? &GPIOx->CRL     : &GPIOx->CRH;
 8001f8a:	bf88      	it	hi
 8001f8c:	f100 0904 	addhi.w	r9, r0, #4
 8001f90:	ea4f 0586 	mov.w	r5, r6, lsl #2
      MODIFY_REG((*configregister), ((GPIO_CRL_MODE0 | GPIO_CRL_CNF0) << registeroffset), (config << registeroffset));
 8001f94:	f8d9 7000 	ldr.w	r7, [r9]
      registeroffset = (iocurrent < GPIO_PIN_8) ? (position << 2u) : ((position - 8u) << 2u);
 8001f98:	bf88      	it	hi
 8001f9a:	3d20      	subhi	r5, #32
      MODIFY_REG((*configregister), ((GPIO_CRL_MODE0 | GPIO_CRL_CNF0) << registeroffset), (config << registeroffset));
 8001f9c:	fa0b fa05 	lsl.w	sl, fp, r5
 8001fa0:	ea27 070a 	bic.w	r7, r7, sl
 8001fa4:	fa02 f505 	lsl.w	r5, r2, r5
 8001fa8:	432f      	orrs	r7, r5
 8001faa:	f8c9 7000 	str.w	r7, [r9]
      if ((GPIO_Init->Mode & EXTI_MODE) == EXTI_MODE)
 8001fae:	f8d1 9004 	ldr.w	r9, [r1, #4]
 8001fb2:	f019 5f80 	tst.w	r9, #268435456	@ 0x10000000
 8001fb6:	d048      	beq.n	800204a <HAL_GPIO_Init+0x11e>
        __HAL_RCC_AFIO_CLK_ENABLE();
 8001fb8:	f8dc 5018 	ldr.w	r5, [ip, #24]
 8001fbc:	f026 0703 	bic.w	r7, r6, #3
 8001fc0:	f045 0501 	orr.w	r5, r5, #1
 8001fc4:	f8cc 5018 	str.w	r5, [ip, #24]
 8001fc8:	f8dc 5018 	ldr.w	r5, [ip, #24]
 8001fcc:	f107 4780 	add.w	r7, r7, #1073741824	@ 0x40000000
 8001fd0:	f005 0501 	and.w	r5, r5, #1
 8001fd4:	9501      	str	r5, [sp, #4]
 8001fd6:	f507 3780 	add.w	r7, r7, #65536	@ 0x10000
        CLEAR_BIT(temp, (0x0Fu) << (4u * (position & 0x03u)));
 8001fda:	f006 0a03 	and.w	sl, r6, #3
        __HAL_RCC_AFIO_CLK_ENABLE();
 8001fde:	9d01      	ldr	r5, [sp, #4]
        CLEAR_BIT(temp, (0x0Fu) << (4u * (position & 0x03u)));
 8001fe0:	ea4f 0a8a 	mov.w	sl, sl, lsl #2
        temp = AFIO->EXTICR[position >> 2u];
 8001fe4:	68bd      	ldr	r5, [r7, #8]
        CLEAR_BIT(temp, (0x0Fu) << (4u * (position & 0x03u)));
 8001fe6:	fa0b fb0a 	lsl.w	fp, fp, sl
 8001fea:	ea25 0b0b 	bic.w	fp, r5, fp
        SET_BIT(temp, (GPIO_GET_INDEX(GPIOx)) << (4u * (position & 0x03u)));
 8001fee:	4d35      	ldr	r5, [pc, #212]	@ (80020c4 <HAL_GPIO_Init+0x198>)
 8001ff0:	42a8      	cmp	r0, r5
 8001ff2:	d05a      	beq.n	80020aa <HAL_GPIO_Init+0x17e>
 8001ff4:	f505 6580 	add.w	r5, r5, #1024	@ 0x400
 8001ff8:	42a8      	cmp	r0, r5
 8001ffa:	d058      	beq.n	80020ae <HAL_GPIO_Init+0x182>
 8001ffc:	f505 6580 	add.w	r5, r5, #1024	@ 0x400
 8002000:	42a8      	cmp	r0, r5
 8002002:	bf14      	ite	ne
 8002004:	2503      	movne	r5, #3
 8002006:	2502      	moveq	r5, #2
 8002008:	fa05 f50a 	lsl.w	r5, r5, sl
 800200c:	ea45 050b 	orr.w	r5, r5, fp
        AFIO->EXTICR[position >> 2u] = temp;
 8002010:	60bd      	str	r5, [r7, #8]
          SET_BIT(EXTI->RTSR, iocurrent);
 8002012:	689d      	ldr	r5, [r3, #8]
        if ((GPIO_Init->Mode & RISING_EDGE) == RISING_EDGE)
 8002014:	f419 1f80 	tst.w	r9, #1048576	@ 0x100000
          SET_BIT(EXTI->RTSR, iocurrent);
 8002018:	bf14      	ite	ne
 800201a:	4325      	orrne	r5, r4
          CLEAR_BIT(EXTI->RTSR, iocurrent);
 800201c:	43a5      	biceq	r5, r4
 800201e:	609d      	str	r5, [r3, #8]
          SET_BIT(EXTI->FTSR, iocurrent);
 8002020:	68dd      	ldr	r5, [r3, #12]
        if ((GPIO_Init->Mode & FALLING_EDGE) == FALLING_EDGE)
 8002022:	f419 1f00 	tst.w	r9, #2097152	@ 0x200000
          SET_BIT(EXTI->FTSR, iocurrent);
 8002026:	bf14      	ite	ne
 8002028:	4325      	orrne	r5, r4
          CLEAR_BIT(EXTI->FTSR, iocurrent);
 800202a:	43a5      	biceq	r5, r4
 800202c:	60dd      	str	r5, [r3, #12]
          SET_BIT(EXTI->EMR, iocurrent);
 800202e:	685d      	ldr	r5, [r3, #4]
        if ((GPIO_Init->Mode & GPIO_MODE_EVT) == GPIO_MODE_EVT)
 8002030:	f419 3f00 	tst.w	r9, #131072	@ 0x20000
          SET_BIT(EXTI->EMR, iocurrent);
 8002034:	bf14      	ite	ne
 8002036:	4325      	orrne	r5, r4
          CLEAR_BIT(EXTI->EMR, iocurrent);
 8002038:	43a5      	biceq	r5, r4
 800203a:	605d      	str	r5, [r3, #4]
          SET_BIT(EXTI->IMR, iocurrent);
 800203c:	681d      	ldr	r5, [r3, #0]
        if ((GPIO_Init->Mode & GPIO_MODE_IT) == GPIO_MODE_IT)
 800203e:	f419 3f80 	tst.w	r9, #65536	@ 0x10000
          SET_BIT(EXTI->IMR, iocurrent);
 8002042:	bf14      	ite	ne
 8002044:	4325      	orrne	r5, r4
          CLEAR_BIT(EXTI->IMR, iocurrent);
 8002046:	43a5      	biceq	r5, r4
 8002048:	601d      	str	r5, [r3, #0]
	position++;
 800204a:	3601      	adds	r6, #1
 800204c:	e779      	b.n	8001f42 <HAL_GPIO_Init+0x16>
      switch (GPIO_Init->Mode)
 800204e:	f8df 9078 	ldr.w	r9, [pc, #120]	@ 80020c8 <HAL_GPIO_Init+0x19c>
 8002052:	454d      	cmp	r5, r9
 8002054:	d008      	beq.n	8002068 <HAL_GPIO_Init+0x13c>
 8002056:	d811      	bhi.n	800207c <HAL_GPIO_Init+0x150>
 8002058:	f5a9 1980 	sub.w	r9, r9, #1048576	@ 0x100000
 800205c:	454d      	cmp	r5, r9
 800205e:	d003      	beq.n	8002068 <HAL_GPIO_Init+0x13c>
 8002060:	4575      	cmp	r5, lr
 8002062:	d001      	beq.n	8002068 <HAL_GPIO_Init+0x13c>
 8002064:	4545      	cmp	r5, r8
 8002066:	d18b      	bne.n	8001f80 <HAL_GPIO_Init+0x54>
          if (GPIO_Init->Pull == GPIO_NOPULL)
 8002068:	688a      	ldr	r2, [r1, #8]
 800206a:	b1e2      	cbz	r2, 80020a6 <HAL_GPIO_Init+0x17a>
          else if (GPIO_Init->Pull == GPIO_PULLUP)
 800206c:	2a01      	cmp	r2, #1
            GPIOx->BSRR = ioposition;
 800206e:	bf08      	it	eq
 8002070:	6107      	streq	r7, [r0, #16]
            config = GPIO_CR_MODE_INPUT + GPIO_CR_CNF_INPUT_PU_PD;
 8002072:	f04f 0208 	mov.w	r2, #8
            GPIOx->BRR = ioposition;
 8002076:	bf18      	it	ne
 8002078:	6147      	strne	r7, [r0, #20]
 800207a:	e781      	b.n	8001f80 <HAL_GPIO_Init+0x54>
      switch (GPIO_Init->Mode)
 800207c:	f8df 904c 	ldr.w	r9, [pc, #76]	@ 80020cc <HAL_GPIO_Init+0x1a0>
 8002080:	454d      	cmp	r5, r9
 8002082:	d0f1      	beq.n	8002068 <HAL_GPIO_Init+0x13c>
 8002084:	f509 3980 	add.w	r9, r9, #65536	@ 0x10000
 8002088:	454d      	cmp	r5, r9
 800208a:	e7ec      	b.n	8002066 <HAL_GPIO_Init+0x13a>
          config = GPIO_Init->Speed + GPIO_CR_CNF_GP_OUTPUT_PP;
 800208c:	68ca      	ldr	r2, [r1, #12]
          break;
 800208e:	e777      	b.n	8001f80 <HAL_GPIO_Init+0x54>
          config = GPIO_Init->Speed + GPIO_CR_CNF_GP_OUTPUT_OD;
 8002090:	68ca      	ldr	r2, [r1, #12]
 8002092:	3204      	adds	r2, #4
          break;
 8002094:	e774      	b.n	8001f80 <HAL_GPIO_Init+0x54>
          config = GPIO_Init->Speed + GPIO_CR_CNF_AF_OUTPUT_PP;
 8002096:	68ca      	ldr	r2, [r1, #12]
 8002098:	3208      	adds	r2, #8
          break;
 800209a:	e771      	b.n	8001f80 <HAL_GPIO_Init+0x54>
          config = GPIO_Init->Speed + GPIO_CR_CNF_AF_OUTPUT_OD;
 800209c:	68ca      	ldr	r2, [r1, #12]
 800209e:	320c      	adds	r2, #12
          break;
 80020a0:	e76e      	b.n	8001f80 <HAL_GPIO_Init+0x54>
      switch (GPIO_Init->Mode)
 80020a2:	2200      	movs	r2, #0
 80020a4:	e76c      	b.n	8001f80 <HAL_GPIO_Init+0x54>
            config = GPIO_CR_MODE_INPUT + GPIO_CR_CNF_INPUT_FLOATING;
 80020a6:	2204      	movs	r2, #4
 80020a8:	e76a      	b.n	8001f80 <HAL_GPIO_Init+0x54>
        SET_BIT(temp, (GPIO_GET_INDEX(GPIOx)) << (4u * (position & 0x03u)));
 80020aa:	2500      	movs	r5, #0
 80020ac:	e7ac      	b.n	8002008 <HAL_GPIO_Init+0xdc>
 80020ae:	2501      	movs	r5, #1
 80020b0:	e7aa      	b.n	8002008 <HAL_GPIO_Init+0xdc>
 80020b2:	bf00      	nop
 80020b4:	40021000 	.word	0x40021000
 80020b8:	40010400 	.word	0x40010400
 80020bc:	10210000 	.word	0x10210000
 80020c0:	10110000 	.word	0x10110000
 80020c4:	40010800 	.word	0x40010800
 80020c8:	10220000 	.word	0x10220000
 80020cc:	10310000 	.word	0x10310000

080020d0 <HAL_GPIO_WritePin>:
{
  /* Check the parameters */
  assert_param(IS_GPIO_PIN(GPIO_Pin));
  assert_param(IS_GPIO_PIN_ACTION(PinState));

  if (PinState != GPIO_PIN_RESET)
 80020d0:	b10a      	cbz	r2, 80020d6 <HAL_GPIO_WritePin+0x6>
  {
    GPIOx->BSRR = GPIO_Pin;
  }
  else
  {
    GPIOx->BSRR = (uint32_t)GPIO_Pin << 16u;
 80020d2:	6101      	str	r1, [r0, #16]
  }
}
 80020d4:	4770      	bx	lr
    GPIOx->BSRR = (uint32_t)GPIO_Pin << 16u;
 80020d6:	0409      	lsls	r1, r1, #16
 80020d8:	e7fb      	b.n	80020d2 <HAL_GPIO_WritePin+0x2>

080020da <HAL_GPIO_TogglePin>:

  /* Check the parameters */
  assert_param(IS_GPIO_PIN(GPIO_Pin));

  /* get current Output Data Register value */
  odr = GPIOx->ODR;
 80020da:	68c3      	ldr	r3, [r0, #12]

  /* Set selected pins that were at low level, and reset ones that were high */
  GPIOx->BSRR = ((odr & GPIO_Pin) << GPIO_NUMBER) | (~odr & GPIO_Pin);
 80020dc:	ea01 0203 	and.w	r2, r1, r3
 80020e0:	ea21 0103 	bic.w	r1, r1, r3
 80020e4:	ea41 4102 	orr.w	r1, r1, r2, lsl #16
 80020e8:	6101      	str	r1, [r0, #16]
}
 80020ea:	4770      	bx	lr

080020ec <HAL_GPIO_EXTI_IRQHandler>:
  * @retval None
  */
void HAL_GPIO_EXTI_IRQHandler(uint16_t GPIO_Pin)
{
  /* EXTI line interrupt detected */
  if (__HAL_GPIO_EXTI_GET_IT(GPIO_Pin) != 0x00u)
 80020ec:	4a04      	ldr	r2, [pc, #16]	@ (8002100 <HAL_GPIO_EXTI_IRQHandler+0x14>)
{
 80020ee:	b508      	push	{r3, lr}
  if (__HAL_GPIO_EXTI_GET_IT(GPIO_Pin) != 0x00u)
 80020f0:	6951      	ldr	r1, [r2, #20]
 80020f2:	4201      	tst	r1, r0
 80020f4:	d002      	beq.n	80020fc <HAL_GPIO_EXTI_IRQHandler+0x10>
  {
    __HAL_GPIO_EXTI_CLEAR_IT(GPIO_Pin);
 80020f6:	6150      	str	r0, [r2, #20]
    HAL_GPIO_EXTI_Callback(GPIO_Pin);
 80020f8:	f7fe fd10 	bl	8000b1c <HAL_GPIO_EXTI_Callback>
  }
}
 80020fc:	bd08      	pop	{r3, pc}
 80020fe:	bf00      	nop
 8002100:	40010400 	.word	0x40010400

08002104 <I2C_IsAcknowledgeFailed>:
  *                the configuration information for the specified I2C.
  * @retval HAL status
  */
static HAL_StatusTypeDef I2C_IsAcknowledgeFailed(I2C_HandleTypeDef *hi2c)
{
  if (__HAL_I2C_GET_FLAG(hi2c, I2C_FLAG_AF) == SET)
 8002104:	6801      	ldr	r1, [r0, #0]
 8002106:	2200      	movs	r2, #0
 8002108:	694b      	ldr	r3, [r1, #20]
 800210a:	f413 6380 	ands.w	r3, r3, #1024	@ 0x400
 800210e:	d010      	beq.n	8002132 <I2C_IsAcknowledgeFailed+0x2e>
  {
    /* Clear NACKF Flag */
    __HAL_I2C_CLEAR_FLAG(hi2c, I2C_FLAG_AF);
 8002110:	f46f 6380 	mvn.w	r3, #1024	@ 0x400
 8002114:	614b      	str	r3, [r1, #20]

    hi2c->PreviousState       = I2C_STATE_NONE;
    hi2c->State               = HAL_I2C_STATE_READY;
 8002116:	2320      	movs	r3, #32
    hi2c->PreviousState       = I2C_STATE_NONE;
 8002118:	6302      	str	r2, [r0, #48]	@ 0x30
    hi2c->State               = HAL_I2C_STATE_READY;
 800211a:	f880 303d 	strb.w	r3, [r0, #61]	@ 0x3d
    hi2c->Mode                = HAL_I2C_MODE_NONE;
 800211e:	f880 203e 	strb.w	r2, [r0, #62]	@ 0x3e
    hi2c->ErrorCode           |= HAL_I2C_ERROR_AF;
 8002122:	6c03      	ldr	r3, [r0, #64]	@ 0x40

    /* Process Unlocked */
    __HAL_UNLOCK(hi2c);
 8002124:	f880 203c 	strb.w	r2, [r0, #60]	@ 0x3c
    hi2c->ErrorCode           |= HAL_I2C_ERROR_AF;
 8002128:	f043 0304 	orr.w	r3, r3, #4
 800212c:	6403      	str	r3, [r0, #64]	@ 0x40

    return HAL_ERROR;
 800212e:	2001      	movs	r0, #1
 8002130:	4770      	bx	lr
  }
  return HAL_OK;
 8002132:	4618      	mov	r0, r3
}
 8002134:	4770      	bx	lr

08002136 <I2C_WaitOnFlagUntilTimeout>:
{
 8002136:	e92d 46f8 	stmdb	sp!, {r3, r4, r5, r6, r7, r9, sl, lr}
 800213a:	4606      	mov	r6, r0
 800213c:	460f      	mov	r7, r1
 800213e:	4691      	mov	r9, r2
 8002140:	461d      	mov	r5, r3
  while (__HAL_I2C_GET_FLAG(hi2c, Flag) == Status)
 8002142:	ea4f 4a11 	mov.w	sl, r1, lsr #16
 8002146:	6833      	ldr	r3, [r6, #0]
 8002148:	f1ba 0f01 	cmp.w	sl, #1
 800214c:	bf0c      	ite	eq
 800214e:	695c      	ldreq	r4, [r3, #20]
 8002150:	699c      	ldrne	r4, [r3, #24]
 8002152:	ea27 0404 	bic.w	r4, r7, r4
 8002156:	b2a4      	uxth	r4, r4
 8002158:	fab4 f484 	clz	r4, r4
 800215c:	0964      	lsrs	r4, r4, #5
 800215e:	45a1      	cmp	r9, r4
 8002160:	d001      	beq.n	8002166 <I2C_WaitOnFlagUntilTimeout+0x30>
  return HAL_OK;
 8002162:	2000      	movs	r0, #0
 8002164:	e025      	b.n	80021b2 <I2C_WaitOnFlagUntilTimeout+0x7c>
    if (Timeout != HAL_MAX_DELAY)
 8002166:	1c6a      	adds	r2, r5, #1
 8002168:	d0ee      	beq.n	8002148 <I2C_WaitOnFlagUntilTimeout+0x12>
      if (((HAL_GetTick() - Tickstart) > Timeout) || (Timeout == 0U))
 800216a:	f7ff fb65 	bl	8001838 <HAL_GetTick>
 800216e:	9b08      	ldr	r3, [sp, #32]
 8002170:	1ac0      	subs	r0, r0, r3
 8002172:	42a8      	cmp	r0, r5
 8002174:	d801      	bhi.n	800217a <I2C_WaitOnFlagUntilTimeout+0x44>
 8002176:	2d00      	cmp	r5, #0
 8002178:	d1e5      	bne.n	8002146 <I2C_WaitOnFlagUntilTimeout+0x10>
        if ((__HAL_I2C_GET_FLAG(hi2c, Flag) == Status))
 800217a:	6833      	ldr	r3, [r6, #0]
 800217c:	f1ba 0f01 	cmp.w	sl, #1
 8002180:	bf0c      	ite	eq
 8002182:	695b      	ldreq	r3, [r3, #20]
 8002184:	699b      	ldrne	r3, [r3, #24]
 8002186:	ea27 0303 	bic.w	r3, r7, r3
 800218a:	b29b      	uxth	r3, r3
 800218c:	fab3 f383 	clz	r3, r3
 8002190:	095b      	lsrs	r3, r3, #5
 8002192:	4599      	cmp	r9, r3
 8002194:	d1d7      	bne.n	8002146 <I2C_WaitOnFlagUntilTimeout+0x10>
          hi2c->PreviousState     = I2C_STATE_NONE;
 8002196:	2300      	movs	r3, #0
          hi2c->State             = HAL_I2C_STATE_READY;
 8002198:	2220      	movs	r2, #32
          return HAL_ERROR;
 800219a:	2001      	movs	r0, #1
          hi2c->PreviousState     = I2C_STATE_NONE;
 800219c:	6333      	str	r3, [r6, #48]	@ 0x30
          hi2c->State             = HAL_I2C_STATE_READY;
 800219e:	f886 203d 	strb.w	r2, [r6, #61]	@ 0x3d
          hi2c->Mode              = HAL_I2C_MODE_NONE;
 80021a2:	f886 303e 	strb.w	r3, [r6, #62]	@ 0x3e
          hi2c->ErrorCode         |= HAL_I2C_ERROR_TIMEOUT;
 80021a6:	6c32      	ldr	r2, [r6, #64]	@ 0x40
          __HAL_UNLOCK(hi2c);
 80021a8:	f886 303c 	strb.w	r3, [r6, #60]	@ 0x3c
          hi2c->ErrorCode         |= HAL_I2C_ERROR_TIMEOUT;
 80021ac:	f042 0220 	orr.w	r2, r2, #32
 80021b0:	6432      	str	r2, [r6, #64]	@ 0x40
}
 80021b2:	e8bd 86f8 	ldmia.w	sp!, {r3, r4, r5, r6, r7, r9, sl, pc}

080021b6 <I2C_WaitOnMasterAddressFlagUntilTimeout>:
{
 80021b6:	e92d 41f0 	stmdb	sp!, {r4, r5, r6, r7, r8, lr}
 80021ba:	4604      	mov	r4, r0
 80021bc:	460f      	mov	r7, r1
 80021be:	4616      	mov	r6, r2
 80021c0:	4698      	mov	r8, r3
  while (__HAL_I2C_GET_FLAG(hi2c, Flag) == RESET)
 80021c2:	6825      	ldr	r5, [r4, #0]
 80021c4:	6968      	ldr	r0, [r5, #20]
 80021c6:	ea27 0000 	bic.w	r0, r7, r0
 80021ca:	b280      	uxth	r0, r0
 80021cc:	b1c0      	cbz	r0, 8002200 <I2C_WaitOnMasterAddressFlagUntilTimeout+0x4a>
    if (__HAL_I2C_GET_FLAG(hi2c, I2C_FLAG_AF) == SET)
 80021ce:	696b      	ldr	r3, [r5, #20]
 80021d0:	055a      	lsls	r2, r3, #21
 80021d2:	d517      	bpl.n	8002204 <I2C_WaitOnMasterAddressFlagUntilTimeout+0x4e>
      SET_BIT(hi2c->Instance->CR1, I2C_CR1_STOP);
 80021d4:	682b      	ldr	r3, [r5, #0]
      hi2c->State               = HAL_I2C_STATE_READY;
 80021d6:	2220      	movs	r2, #32
      SET_BIT(hi2c->Instance->CR1, I2C_CR1_STOP);
 80021d8:	f443 7300 	orr.w	r3, r3, #512	@ 0x200
 80021dc:	602b      	str	r3, [r5, #0]
      __HAL_I2C_CLEAR_FLAG(hi2c, I2C_FLAG_AF);
 80021de:	f46f 6380 	mvn.w	r3, #1024	@ 0x400
 80021e2:	616b      	str	r3, [r5, #20]
      hi2c->PreviousState       = I2C_STATE_NONE;
 80021e4:	2300      	movs	r3, #0
 80021e6:	6323      	str	r3, [r4, #48]	@ 0x30
      hi2c->State               = HAL_I2C_STATE_READY;
 80021e8:	f884 203d 	strb.w	r2, [r4, #61]	@ 0x3d
      hi2c->Mode                = HAL_I2C_MODE_NONE;
 80021ec:	f884 303e 	strb.w	r3, [r4, #62]	@ 0x3e
      hi2c->ErrorCode           |= HAL_I2C_ERROR_AF;
 80021f0:	6c23      	ldr	r3, [r4, #64]	@ 0x40
 80021f2:	f043 0304 	orr.w	r3, r3, #4
          hi2c->ErrorCode           |= HAL_I2C_ERROR_TIMEOUT;
 80021f6:	6423      	str	r3, [r4, #64]	@ 0x40
          __HAL_UNLOCK(hi2c);
 80021f8:	2300      	movs	r3, #0
      return HAL_ERROR;
 80021fa:	2001      	movs	r0, #1
          __HAL_UNLOCK(hi2c);
 80021fc:	f884 303c 	strb.w	r3, [r4, #60]	@ 0x3c
}
 8002200:	e8bd 81f0 	ldmia.w	sp!, {r4, r5, r6, r7, r8, pc}
    if (Timeout != HAL_MAX_DELAY)
 8002204:	1c73      	adds	r3, r6, #1
 8002206:	d0dd      	beq.n	80021c4 <I2C_WaitOnMasterAddressFlagUntilTimeout+0xe>
      if (((HAL_GetTick() - Tickstart) > Timeout) || (Timeout == 0U))
 8002208:	f7ff fb16 	bl	8001838 <HAL_GetTick>
 800220c:	eba0 0008 	sub.w	r0, r0, r8
 8002210:	42b0      	cmp	r0, r6
 8002212:	d801      	bhi.n	8002218 <I2C_WaitOnMasterAddressFlagUntilTimeout+0x62>
 8002214:	2e00      	cmp	r6, #0
 8002216:	d1d4      	bne.n	80021c2 <I2C_WaitOnMasterAddressFlagUntilTimeout+0xc>
        if ((__HAL_I2C_GET_FLAG(hi2c, Flag) == RESET))
 8002218:	6823      	ldr	r3, [r4, #0]
 800221a:	695a      	ldr	r2, [r3, #20]
 800221c:	ea27 0202 	bic.w	r2, r7, r2
 8002220:	b292      	uxth	r2, r2
 8002222:	2a00      	cmp	r2, #0
 8002224:	d0cd      	beq.n	80021c2 <I2C_WaitOnMasterAddressFlagUntilTimeout+0xc>
          hi2c->PreviousState       = I2C_STATE_NONE;
 8002226:	2300      	movs	r3, #0
          hi2c->State               = HAL_I2C_STATE_READY;
 8002228:	2220      	movs	r2, #32
          hi2c->PreviousState       = I2C_STATE_NONE;
 800222a:	6323      	str	r3, [r4, #48]	@ 0x30
          hi2c->State               = HAL_I2C_STATE_READY;
 800222c:	f884 203d 	strb.w	r2, [r4, #61]	@ 0x3d
          hi2c->Mode                = HAL_I2C_MODE_NONE;
 8002230:	f884 303e 	strb.w	r3, [r4, #62]	@ 0x3e
          hi2c->ErrorCode           |= HAL_I2C_ERROR_TIMEOUT;
 8002234:	6c23      	ldr	r3, [r4, #64]	@ 0x40
 8002236:	4313      	orrs	r3, r2
 8002238:	e7dd      	b.n	80021f6 <I2C_WaitOnMasterAddressFlagUntilTimeout+0x40>

0800223a <I2C_WaitOnTXEFlagUntilTimeout>:
{
 800223a:	b570      	push	{r4, r5, r6, lr}
 800223c:	4604      	mov	r4, r0
 800223e:	460d      	mov	r5, r1
 8002240:	4616      	mov	r6, r2
  while (__HAL_I2C_GET_FLAG(hi2c, I2C_FLAG_TXE) == RESET)
 8002242:	6823      	ldr	r3, [r4, #0]
 8002244:	695b      	ldr	r3, [r3, #20]
 8002246:	061b      	lsls	r3, r3, #24
 8002248:	d501      	bpl.n	800224e <I2C_WaitOnTXEFlagUntilTimeout+0x14>
  return HAL_OK;
 800224a:	2000      	movs	r0, #0
 800224c:	e01e      	b.n	800228c <I2C_WaitOnTXEFlagUntilTimeout+0x52>
    if (I2C_IsAcknowledgeFailed(hi2c) != HAL_OK)
 800224e:	4620      	mov	r0, r4
 8002250:	f7ff ff58 	bl	8002104 <I2C_IsAcknowledgeFailed>
 8002254:	b9c8      	cbnz	r0, 800228a <I2C_WaitOnTXEFlagUntilTimeout+0x50>
    if (Timeout != HAL_MAX_DELAY)
 8002256:	1c6a      	adds	r2, r5, #1
 8002258:	d0f3      	beq.n	8002242 <I2C_WaitOnTXEFlagUntilTimeout+0x8>
      if (((HAL_GetTick() - Tickstart) > Timeout) || (Timeout == 0U))
 800225a:	f7ff faed 	bl	8001838 <HAL_GetTick>
 800225e:	1b80      	subs	r0, r0, r6
 8002260:	42a8      	cmp	r0, r5
 8002262:	d801      	bhi.n	8002268 <I2C_WaitOnTXEFlagUntilTimeout+0x2e>
 8002264:	2d00      	cmp	r5, #0
 8002266:	d1ec      	bne.n	8002242 <I2C_WaitOnTXEFlagUntilTimeout+0x8>
        if ((__HAL_I2C_GET_FLAG(hi2c, I2C_FLAG_TXE) == RESET))
 8002268:	6823      	ldr	r3, [r4, #0]
 800226a:	695b      	ldr	r3, [r3, #20]
 800226c:	f013 0380 	ands.w	r3, r3, #128	@ 0x80
 8002270:	d1e7      	bne.n	8002242 <I2C_WaitOnTXEFlagUntilTimeout+0x8>
          hi2c->State               = HAL_I2C_STATE_READY;
 8002272:	2220      	movs	r2, #32
          hi2c->PreviousState       = I2C_STATE_NONE;
 8002274:	6323      	str	r3, [r4, #48]	@ 0x30
          hi2c->State               = HAL_I2C_STATE_READY;
 8002276:	f884 203d 	strb.w	r2, [r4, #61]	@ 0x3d
          hi2c->Mode                = HAL_I2C_MODE_NONE;
 800227a:	f884 303e 	strb.w	r3, [r4, #62]	@ 0x3e
          hi2c->ErrorCode           |= HAL_I2C_ERROR_TIMEOUT;
 800227e:	6c22      	ldr	r2, [r4, #64]	@ 0x40
          __HAL_UNLOCK(hi2c);
 8002280:	f884 303c 	strb.w	r3, [r4, #60]	@ 0x3c
          hi2c->ErrorCode           |= HAL_I2C_ERROR_TIMEOUT;
 8002284:	f042 0220 	orr.w	r2, r2, #32
 8002288:	6422      	str	r2, [r4, #64]	@ 0x40
      return HAL_ERROR;
 800228a:	2001      	movs	r0, #1
}
 800228c:	bd70      	pop	{r4, r5, r6, pc}
	...

08002290 <I2C_RequestMemoryWrite>:
{
 8002290:	e92d 43f0 	stmdb	sp!, {r4, r5, r6, r7, r8, r9, lr}
 8002294:	4615      	mov	r5, r2
  SET_BIT(hi2c->Instance->CR1, I2C_CR1_START);
 8002296:	6802      	ldr	r2, [r0, #0]
{
 8002298:	4699      	mov	r9, r3
  SET_BIT(hi2c->Instance->CR1, I2C_CR1_START);
 800229a:	6813      	ldr	r3, [r2, #0]
{
 800229c:	b085      	sub	sp, #20
  SET_BIT(hi2c->Instance->CR1, I2C_CR1_START);
 800229e:	f443 7380 	orr.w	r3, r3, #256	@ 0x100
 80022a2:	6013      	str	r3, [r2, #0]
{
 80022a4:	e9dd 780c 	ldrd	r7, r8, [sp, #48]	@ 0x30
 80022a8:	460e      	mov	r6, r1
  if (I2C_WaitOnFlagUntilTimeout(hi2c, I2C_FLAG_SB, RESET, Timeout, Tickstart) != HAL_OK)
 80022aa:	463b      	mov	r3, r7
 80022ac:	2200      	movs	r2, #0
 80022ae:	f04f 1101 	mov.w	r1, #65537	@ 0x10001
 80022b2:	f8cd 8000 	str.w	r8, [sp]
{
 80022b6:	4604      	mov	r4, r0
  if (I2C_WaitOnFlagUntilTimeout(hi2c, I2C_FLAG_SB, RESET, Timeout, Tickstart) != HAL_OK)
 80022b8:	f7ff ff3d 	bl	8002136 <I2C_WaitOnFlagUntilTimeout>
 80022bc:	6823      	ldr	r3, [r4, #0]
 80022be:	b138      	cbz	r0, 80022d0 <I2C_RequestMemoryWrite+0x40>
    if (READ_BIT(hi2c->Instance->CR1, I2C_CR1_START) == I2C_CR1_START)
 80022c0:	681b      	ldr	r3, [r3, #0]
 80022c2:	05db      	lsls	r3, r3, #23
 80022c4:	d502      	bpl.n	80022cc <I2C_RequestMemoryWrite+0x3c>
      hi2c->ErrorCode = HAL_I2C_WRONG_START;
 80022c6:	f44f 7300 	mov.w	r3, #512	@ 0x200
 80022ca:	6423      	str	r3, [r4, #64]	@ 0x40
    return HAL_TIMEOUT;
 80022cc:	2603      	movs	r6, #3
 80022ce:	e020      	b.n	8002312 <I2C_RequestMemoryWrite+0x82>
  hi2c->Instance->DR = I2C_7BIT_ADD_WRITE(DevAddress);
 80022d0:	f006 06fe 	and.w	r6, r6, #254	@ 0xfe
 80022d4:	611e      	str	r6, [r3, #16]
  if (I2C_WaitOnMasterAddressFlagUntilTimeout(hi2c, I2C_FLAG_ADDR, Timeout, Tickstart) != HAL_OK)
 80022d6:	463a      	mov	r2, r7
 80022d8:	4643      	mov	r3, r8
 80022da:	4620      	mov	r0, r4
 80022dc:	4918      	ldr	r1, [pc, #96]	@ (8002340 <I2C_RequestMemoryWrite+0xb0>)
 80022de:	f7ff ff6a 	bl	80021b6 <I2C_WaitOnMasterAddressFlagUntilTimeout>
 80022e2:	b9a8      	cbnz	r0, 8002310 <I2C_RequestMemoryWrite+0x80>
  __HAL_I2C_CLEAR_ADDRFLAG(hi2c);
 80022e4:	6823      	ldr	r3, [r4, #0]
 80022e6:	9003      	str	r0, [sp, #12]
 80022e8:	695a      	ldr	r2, [r3, #20]
  if (I2C_WaitOnTXEFlagUntilTimeout(hi2c, Timeout, Tickstart) != HAL_OK)
 80022ea:	4639      	mov	r1, r7
  __HAL_I2C_CLEAR_ADDRFLAG(hi2c);
 80022ec:	9203      	str	r2, [sp, #12]
 80022ee:	699b      	ldr	r3, [r3, #24]
  if (I2C_WaitOnTXEFlagUntilTimeout(hi2c, Timeout, Tickstart) != HAL_OK)
 80022f0:	4642      	mov	r2, r8
  __HAL_I2C_CLEAR_ADDRFLAG(hi2c);
 80022f2:	9303      	str	r3, [sp, #12]
  if (I2C_WaitOnTXEFlagUntilTimeout(hi2c, Timeout, Tickstart) != HAL_OK)
 80022f4:	4620      	mov	r0, r4
  __HAL_I2C_CLEAR_ADDRFLAG(hi2c);
 80022f6:	9b03      	ldr	r3, [sp, #12]
  if (I2C_WaitOnTXEFlagUntilTimeout(hi2c, Timeout, Tickstart) != HAL_OK)
 80022f8:	f7ff ff9f 	bl	800223a <I2C_WaitOnTXEFlagUntilTimeout>
 80022fc:	4606      	mov	r6, r0
 80022fe:	b160      	cbz	r0, 800231a <I2C_RequestMemoryWrite+0x8a>
    if (hi2c->ErrorCode == HAL_I2C_ERROR_AF)
 8002300:	6c23      	ldr	r3, [r4, #64]	@ 0x40
 8002302:	2b04      	cmp	r3, #4
      SET_BIT(hi2c->Instance->CR1, I2C_CR1_STOP);
 8002304:	bf01      	itttt	eq
 8002306:	6822      	ldreq	r2, [r4, #0]
 8002308:	6813      	ldreq	r3, [r2, #0]
 800230a:	f443 7300 	orreq.w	r3, r3, #512	@ 0x200
 800230e:	6013      	streq	r3, [r2, #0]
    return HAL_ERROR;
 8002310:	2601      	movs	r6, #1
}
 8002312:	4630      	mov	r0, r6
 8002314:	b005      	add	sp, #20
 8002316:	e8bd 83f0 	ldmia.w	sp!, {r4, r5, r6, r7, r8, r9, pc}
  if (MemAddSize == I2C_MEMADD_SIZE_8BIT)
 800231a:	f1b9 0f01 	cmp.w	r9, #1
      SET_BIT(hi2c->Instance->CR1, I2C_CR1_STOP);
 800231e:	6823      	ldr	r3, [r4, #0]
  if (MemAddSize == I2C_MEMADD_SIZE_8BIT)
 8002320:	d102      	bne.n	8002328 <I2C_RequestMemoryWrite+0x98>
    hi2c->Instance->DR = I2C_MEM_ADD_LSB(MemAddress);
 8002322:	b2ed      	uxtb	r5, r5
 8002324:	611d      	str	r5, [r3, #16]
 8002326:	e7f4      	b.n	8002312 <I2C_RequestMemoryWrite+0x82>
    hi2c->Instance->DR = I2C_MEM_ADD_MSB(MemAddress);
 8002328:	0a2a      	lsrs	r2, r5, #8
 800232a:	611a      	str	r2, [r3, #16]
    if (I2C_WaitOnTXEFlagUntilTimeout(hi2c, Timeout, Tickstart) != HAL_OK)
 800232c:	4639      	mov	r1, r7
 800232e:	4642      	mov	r2, r8
 8002330:	4620      	mov	r0, r4
 8002332:	f7ff ff82 	bl	800223a <I2C_WaitOnTXEFlagUntilTimeout>
 8002336:	2800      	cmp	r0, #0
 8002338:	d1e2      	bne.n	8002300 <I2C_RequestMemoryWrite+0x70>
    hi2c->Instance->DR = I2C_MEM_ADD_LSB(MemAddress);
 800233a:	6823      	ldr	r3, [r4, #0]
 800233c:	e7f1      	b.n	8002322 <I2C_RequestMemoryWrite+0x92>
 800233e:	bf00      	nop
 8002340:	00010002 	.word	0x00010002

08002344 <I2C_WaitOnBTFFlagUntilTimeout>:
{
 8002344:	b570      	push	{r4, r5, r6, lr}
 8002346:	4604      	mov	r4, r0
 8002348:	460d      	mov	r5, r1
 800234a:	4616      	mov	r6, r2
  while (__HAL_I2C_GET_FLAG(hi2c, I2C_FLAG_BTF) == RESET)
 800234c:	6823      	ldr	r3, [r4, #0]
 800234e:	695b      	ldr	r3, [r3, #20]
 8002350:	075b      	lsls	r3, r3, #29
 8002352:	d501      	bpl.n	8002358 <I2C_WaitOnBTFFlagUntilTimeout+0x14>
  return HAL_OK;
 8002354:	2000      	movs	r0, #0
 8002356:	e01e      	b.n	8002396 <I2C_WaitOnBTFFlagUntilTimeout+0x52>
    if (I2C_IsAcknowledgeFailed(hi2c) != HAL_OK)
 8002358:	4620      	mov	r0, r4
 800235a:	f7ff fed3 	bl	8002104 <I2C_IsAcknowledgeFailed>
 800235e:	b9c8      	cbnz	r0, 8002394 <I2C_WaitOnBTFFlagUntilTimeout+0x50>
    if (Timeout != HAL_MAX_DELAY)
 8002360:	1c6a      	adds	r2, r5, #1
 8002362:	d0f3      	beq.n	800234c <I2C_WaitOnBTFFlagUntilTimeout+0x8>
      if (((HAL_GetTick() - Tickstart) > Timeout) || (Timeout == 0U))
 8002364:	f7ff fa68 	bl	8001838 <HAL_GetTick>
 8002368:	1b80      	subs	r0, r0, r6
 800236a:	42a8      	cmp	r0, r5
 800236c:	d801      	bhi.n	8002372 <I2C_WaitOnBTFFlagUntilTimeout+0x2e>
 800236e:	2d00      	cmp	r5, #0
 8002370:	d1ec      	bne.n	800234c <I2C_WaitOnBTFFlagUntilTimeout+0x8>
        if ((__HAL_I2C_GET_FLAG(hi2c, I2C_FLAG_BTF) == RESET))
 8002372:	6823      	ldr	r3, [r4, #0]
 8002374:	695b      	ldr	r3, [r3, #20]
 8002376:	f013 0304 	ands.w	r3, r3, #4
 800237a:	d1e7      	bne.n	800234c <I2C_WaitOnBTFFlagUntilTimeout+0x8>
          hi2c->State               = HAL_I2C_STATE_READY;
 800237c:	2220      	movs	r2, #32
          hi2c->PreviousState       = I2C_STATE_NONE;
 800237e:	6323      	str	r3, [r4, #48]	@ 0x30
          hi2c->State               = HAL_I2C_STATE_READY;
 8002380:	f884 203d 	strb.w	r2, [r4, #61]	@ 0x3d
          hi2c->Mode                = HAL_I2C_MODE_NONE;
 8002384:	f884 303e 	strb.w	r3, [r4, #62]	@ 0x3e
          hi2c->ErrorCode           |= HAL_I2C_ERROR_TIMEOUT;
 8002388:	6c22      	ldr	r2, [r4, #64]	@ 0x40
          __HAL_UNLOCK(hi2c);
 800238a:	f884 303c 	strb.w	r3, [r4, #60]	@ 0x3c
          hi2c->ErrorCode           |= HAL_I2C_ERROR_TIMEOUT;
 800238e:	f042 0220 	orr.w	r2, r2, #32
 8002392:	6422      	str	r2, [r4, #64]	@ 0x40
      return HAL_ERROR;
 8002394:	2001      	movs	r0, #1
}
 8002396:	bd70      	pop	{r4, r5, r6, pc}

08002398 <HAL_I2C_Init>:
{
 8002398:	b570      	push	{r4, r5, r6, lr}
  if (hi2c == NULL)
 800239a:	4604      	mov	r4, r0
 800239c:	b908      	cbnz	r0, 80023a2 <HAL_I2C_Init+0xa>
    return HAL_ERROR;
 800239e:	2001      	movs	r0, #1
}
 80023a0:	bd70      	pop	{r4, r5, r6, pc}
  if (hi2c->State == HAL_I2C_STATE_RESET)
 80023a2:	f890 303d 	ldrb.w	r3, [r0, #61]	@ 0x3d
 80023a6:	f003 02ff 	and.w	r2, r3, #255	@ 0xff
 80023aa:	b91b      	cbnz	r3, 80023b4 <HAL_I2C_Init+0x1c>
    hi2c->Lock = HAL_UNLOCKED;
 80023ac:	f880 203c 	strb.w	r2, [r0, #60]	@ 0x3c
    HAL_I2C_MspInit(hi2c);
 80023b0:	f7ff f85e 	bl	8001470 <HAL_I2C_MspInit>
  hi2c->State = HAL_I2C_STATE_BUSY;
 80023b4:	2324      	movs	r3, #36	@ 0x24
 80023b6:	f884 303d 	strb.w	r3, [r4, #61]	@ 0x3d
  __HAL_I2C_DISABLE(hi2c);
 80023ba:	6823      	ldr	r3, [r4, #0]
 80023bc:	681a      	ldr	r2, [r3, #0]
 80023be:	f022 0201 	bic.w	r2, r2, #1
 80023c2:	601a      	str	r2, [r3, #0]
  hi2c->Instance->CR1 |= I2C_CR1_SWRST;
 80023c4:	681a      	ldr	r2, [r3, #0]
 80023c6:	f442 4200 	orr.w	r2, r2, #32768	@ 0x8000
 80023ca:	601a      	str	r2, [r3, #0]
  hi2c->Instance->CR1 &= ~I2C_CR1_SWRST;
 80023cc:	681a      	ldr	r2, [r3, #0]
 80023ce:	f422 4200 	bic.w	r2, r2, #32768	@ 0x8000
 80023d2:	601a      	str	r2, [r3, #0]
  pclk1 = HAL_RCC_GetPCLK1Freq();
 80023d4:	f000 fbda 	bl	8002b8c <HAL_RCC_GetPCLK1Freq>
  if (I2C_MIN_PCLK_FREQ(pclk1, hi2c->Init.ClockSpeed) == 1U)
 80023d8:	4b3f      	ldr	r3, [pc, #252]	@ (80024d8 <HAL_I2C_Init+0x140>)
 80023da:	6865      	ldr	r5, [r4, #4]
 80023dc:	429d      	cmp	r5, r3
 80023de:	bf94      	ite	ls
 80023e0:	4b3e      	ldrls	r3, [pc, #248]	@ (80024dc <HAL_I2C_Init+0x144>)
 80023e2:	4b3f      	ldrhi	r3, [pc, #252]	@ (80024e0 <HAL_I2C_Init+0x148>)
 80023e4:	4298      	cmp	r0, r3
 80023e6:	bf8c      	ite	hi
 80023e8:	2300      	movhi	r3, #0
 80023ea:	2301      	movls	r3, #1
 80023ec:	2b00      	cmp	r3, #0
 80023ee:	d1d6      	bne.n	800239e <HAL_I2C_Init+0x6>
  MODIFY_REG(hi2c->Instance->TRISE, I2C_TRISE_TRISE, I2C_RISE_TIME(freqrange, hi2c->Init.ClockSpeed));
 80023f0:	4e39      	ldr	r6, [pc, #228]	@ (80024d8 <HAL_I2C_Init+0x140>)
  freqrange = I2C_FREQRANGE(pclk1);
 80023f2:	4b3c      	ldr	r3, [pc, #240]	@ (80024e4 <HAL_I2C_Init+0x14c>)
  MODIFY_REG(hi2c->Instance->TRISE, I2C_TRISE_TRISE, I2C_RISE_TIME(freqrange, hi2c->Init.ClockSpeed));
 80023f4:	42b5      	cmp	r5, r6
  freqrange = I2C_FREQRANGE(pclk1);
 80023f6:	fbb0 f3f3 	udiv	r3, r0, r3
  MODIFY_REG(hi2c->Instance->TRISE, I2C_TRISE_TRISE, I2C_RISE_TIME(freqrange, hi2c->Init.ClockSpeed));
 80023fa:	bf88      	it	hi
 80023fc:	f44f 7696 	movhi.w	r6, #300	@ 0x12c
  MODIFY_REG(hi2c->Instance->CR2, I2C_CR2_FREQ, freqrange);
 8002400:	6822      	ldr	r2, [r4, #0]
 8002402:	6851      	ldr	r1, [r2, #4]
 8002404:	f021 013f 	bic.w	r1, r1, #63	@ 0x3f
 8002408:	ea41 0103 	orr.w	r1, r1, r3
  MODIFY_REG(hi2c->Instance->TRISE, I2C_TRISE_TRISE, I2C_RISE_TIME(freqrange, hi2c->Init.ClockSpeed));
 800240c:	bf82      	ittt	hi
 800240e:	4373      	mulhi	r3, r6
 8002410:	f44f 767a 	movhi.w	r6, #1000	@ 0x3e8
 8002414:	fbb3 f3f6 	udivhi	r3, r3, r6
  MODIFY_REG(hi2c->Instance->CR2, I2C_CR2_FREQ, freqrange);
 8002418:	6051      	str	r1, [r2, #4]
  MODIFY_REG(hi2c->Instance->TRISE, I2C_TRISE_TRISE, I2C_RISE_TIME(freqrange, hi2c->Init.ClockSpeed));
 800241a:	6a11      	ldr	r1, [r2, #32]
 800241c:	3301      	adds	r3, #1
 800241e:	f021 013f 	bic.w	r1, r1, #63	@ 0x3f
 8002422:	430b      	orrs	r3, r1
 8002424:	6213      	str	r3, [r2, #32]
  MODIFY_REG(hi2c->Instance->CCR, (I2C_CCR_FS | I2C_CCR_DUTY | I2C_CCR_CCR), I2C_SPEED(pclk1, hi2c->Init.ClockSpeed, hi2c->Init.DutyCycle));
 8002426:	69d1      	ldr	r1, [r2, #28]
 8002428:	1e43      	subs	r3, r0, #1
 800242a:	482b      	ldr	r0, [pc, #172]	@ (80024d8 <HAL_I2C_Init+0x140>)
 800242c:	f421 414f 	bic.w	r1, r1, #52992	@ 0xcf00
 8002430:	4285      	cmp	r5, r0
 8002432:	f021 01ff 	bic.w	r1, r1, #255	@ 0xff
 8002436:	d832      	bhi.n	800249e <HAL_I2C_Init+0x106>
 8002438:	006d      	lsls	r5, r5, #1
 800243a:	fbb3 f3f5 	udiv	r3, r3, r5
 800243e:	f640 70fc 	movw	r0, #4092	@ 0xffc
 8002442:	3301      	adds	r3, #1
 8002444:	4203      	tst	r3, r0
 8002446:	d042      	beq.n	80024ce <HAL_I2C_Init+0x136>
 8002448:	f3c3 030b 	ubfx	r3, r3, #0, #12
 800244c:	4319      	orrs	r1, r3
 800244e:	61d1      	str	r1, [r2, #28]
  MODIFY_REG(hi2c->Instance->CR1, (I2C_CR1_ENGC | I2C_CR1_NOSTRETCH), (hi2c->Init.GeneralCallMode | hi2c->Init.NoStretchMode));
 8002450:	6811      	ldr	r1, [r2, #0]
 8002452:	e9d4 3007 	ldrd	r3, r0, [r4, #28]
 8002456:	f021 01c0 	bic.w	r1, r1, #192	@ 0xc0
 800245a:	4303      	orrs	r3, r0
 800245c:	430b      	orrs	r3, r1
 800245e:	6013      	str	r3, [r2, #0]
  MODIFY_REG(hi2c->Instance->OAR1, (I2C_OAR1_ADDMODE | I2C_OAR1_ADD8_9 | I2C_OAR1_ADD1_7 | I2C_OAR1_ADD0), (hi2c->Init.AddressingMode | hi2c->Init.OwnAddress1));
 8002460:	6891      	ldr	r1, [r2, #8]
 8002462:	e9d4 0303 	ldrd	r0, r3, [r4, #12]
 8002466:	f421 4103 	bic.w	r1, r1, #33536	@ 0x8300
 800246a:	4303      	orrs	r3, r0
 800246c:	f021 01ff 	bic.w	r1, r1, #255	@ 0xff
 8002470:	430b      	orrs	r3, r1
 8002472:	6093      	str	r3, [r2, #8]
  MODIFY_REG(hi2c->Instance->OAR2, (I2C_OAR2_ENDUAL | I2C_OAR2_ADD2), (hi2c->Init.DualAddressMode | hi2c->Init.OwnAddress2));
 8002474:	68d1      	ldr	r1, [r2, #12]
 8002476:	e9d4 3005 	ldrd	r3, r0, [r4, #20]
 800247a:	f021 01ff 	bic.w	r1, r1, #255	@ 0xff
 800247e:	4303      	orrs	r3, r0
 8002480:	430b      	orrs	r3, r1
 8002482:	60d3      	str	r3, [r2, #12]
  __HAL_I2C_ENABLE(hi2c);
 8002484:	6813      	ldr	r3, [r2, #0]
  hi2c->ErrorCode = HAL_I2C_ERROR_NONE;
 8002486:	2000      	movs	r0, #0
  __HAL_I2C_ENABLE(hi2c);
 8002488:	f043 0301 	orr.w	r3, r3, #1
 800248c:	6013      	str	r3, [r2, #0]
  hi2c->State = HAL_I2C_STATE_READY;
 800248e:	2320      	movs	r3, #32
  hi2c->ErrorCode = HAL_I2C_ERROR_NONE;
 8002490:	6420      	str	r0, [r4, #64]	@ 0x40
  hi2c->State = HAL_I2C_STATE_READY;
 8002492:	f884 303d 	strb.w	r3, [r4, #61]	@ 0x3d
  hi2c->PreviousState = I2C_STATE_NONE;
 8002496:	6320      	str	r0, [r4, #48]	@ 0x30
  hi2c->Mode = HAL_I2C_MODE_NONE;
 8002498:	f884 003e 	strb.w	r0, [r4, #62]	@ 0x3e
  return HAL_OK;
 800249c:	e780      	b.n	80023a0 <HAL_I2C_Init+0x8>
  MODIFY_REG(hi2c->Instance->CCR, (I2C_CCR_FS | I2C_CCR_DUTY | I2C_CCR_CCR), I2C_SPEED(pclk1, hi2c->Init.ClockSpeed, hi2c->Init.DutyCycle));
 800249e:	68a0      	ldr	r0, [r4, #8]
 80024a0:	b950      	cbnz	r0, 80024b8 <HAL_I2C_Init+0x120>
 80024a2:	eb05 0545 	add.w	r5, r5, r5, lsl #1
 80024a6:	fbb3 f3f5 	udiv	r3, r3, r5
 80024aa:	3301      	adds	r3, #1
 80024ac:	f3c3 030b 	ubfx	r3, r3, #0, #12
 80024b0:	b17b      	cbz	r3, 80024d2 <HAL_I2C_Init+0x13a>
 80024b2:	f443 4300 	orr.w	r3, r3, #32768	@ 0x8000
 80024b6:	e7c9      	b.n	800244c <HAL_I2C_Init+0xb4>
 80024b8:	2019      	movs	r0, #25
 80024ba:	4368      	muls	r0, r5
 80024bc:	fbb3 f3f0 	udiv	r3, r3, r0
 80024c0:	3301      	adds	r3, #1
 80024c2:	f3c3 030b 	ubfx	r3, r3, #0, #12
 80024c6:	b123      	cbz	r3, 80024d2 <HAL_I2C_Init+0x13a>
 80024c8:	f443 4340 	orr.w	r3, r3, #49152	@ 0xc000
 80024cc:	e7be      	b.n	800244c <HAL_I2C_Init+0xb4>
 80024ce:	2304      	movs	r3, #4
 80024d0:	e7bc      	b.n	800244c <HAL_I2C_Init+0xb4>
 80024d2:	2301      	movs	r3, #1
 80024d4:	e7ba      	b.n	800244c <HAL_I2C_Init+0xb4>
 80024d6:	bf00      	nop
 80024d8:	000186a0 	.word	0x000186a0
 80024dc:	001e847f 	.word	0x001e847f
 80024e0:	003d08ff 	.word	0x003d08ff
 80024e4:	000f4240 	.word	0x000f4240

080024e8 <HAL_I2C_Mem_Write>:
{
 80024e8:	e92d 43f7 	stmdb	sp!, {r0, r1, r2, r4, r5, r6, r7, r8, r9, lr}
 80024ec:	4604      	mov	r4, r0
 80024ee:	4699      	mov	r9, r3
 80024f0:	460f      	mov	r7, r1
 80024f2:	4690      	mov	r8, r2
 80024f4:	9e0c      	ldr	r6, [sp, #48]	@ 0x30
  uint32_t tickstart = HAL_GetTick();
 80024f6:	f7ff f99f 	bl	8001838 <HAL_GetTick>
  if (hi2c->State == HAL_I2C_STATE_READY)
 80024fa:	f894 303d 	ldrb.w	r3, [r4, #61]	@ 0x3d
  uint32_t tickstart = HAL_GetTick();
 80024fe:	4605      	mov	r5, r0
  if (hi2c->State == HAL_I2C_STATE_READY)
 8002500:	2b20      	cmp	r3, #32
 8002502:	d003      	beq.n	800250c <HAL_I2C_Mem_Write+0x24>
      return HAL_BUSY;
 8002504:	2002      	movs	r0, #2
}
 8002506:	b003      	add	sp, #12
 8002508:	e8bd 83f0 	ldmia.w	sp!, {r4, r5, r6, r7, r8, r9, pc}
    if (I2C_WaitOnFlagUntilTimeout(hi2c, I2C_FLAG_BUSY, SET, I2C_TIMEOUT_BUSY_FLAG, tickstart) != HAL_OK)
 800250c:	9000      	str	r0, [sp, #0]
 800250e:	2319      	movs	r3, #25
 8002510:	2201      	movs	r2, #1
 8002512:	4620      	mov	r0, r4
 8002514:	493a      	ldr	r1, [pc, #232]	@ (8002600 <HAL_I2C_Mem_Write+0x118>)
 8002516:	f7ff fe0e 	bl	8002136 <I2C_WaitOnFlagUntilTimeout>
 800251a:	2800      	cmp	r0, #0
 800251c:	d1f2      	bne.n	8002504 <HAL_I2C_Mem_Write+0x1c>
    __HAL_LOCK(hi2c);
 800251e:	f894 303c 	ldrb.w	r3, [r4, #60]	@ 0x3c
 8002522:	2b01      	cmp	r3, #1
 8002524:	d0ee      	beq.n	8002504 <HAL_I2C_Mem_Write+0x1c>
 8002526:	2301      	movs	r3, #1
    if ((hi2c->Instance->CR1 & I2C_CR1_PE) != I2C_CR1_PE)
 8002528:	6820      	ldr	r0, [r4, #0]
    __HAL_LOCK(hi2c);
 800252a:	f884 303c 	strb.w	r3, [r4, #60]	@ 0x3c
    if ((hi2c->Instance->CR1 & I2C_CR1_PE) != I2C_CR1_PE)
 800252e:	6803      	ldr	r3, [r0, #0]
    if (I2C_RequestMemoryWrite(hi2c, DevAddress, MemAddress, MemAddSize, Timeout, tickstart) != HAL_OK)
 8002530:	4642      	mov	r2, r8
    if ((hi2c->Instance->CR1 & I2C_CR1_PE) != I2C_CR1_PE)
 8002532:	07d9      	lsls	r1, r3, #31
      __HAL_I2C_ENABLE(hi2c);
 8002534:	bf58      	it	pl
 8002536:	6803      	ldrpl	r3, [r0, #0]
    if (I2C_RequestMemoryWrite(hi2c, DevAddress, MemAddress, MemAddSize, Timeout, tickstart) != HAL_OK)
 8002538:	4639      	mov	r1, r7
      __HAL_I2C_ENABLE(hi2c);
 800253a:	bf5c      	itt	pl
 800253c:	f043 0301 	orrpl.w	r3, r3, #1
 8002540:	6003      	strpl	r3, [r0, #0]
    CLEAR_BIT(hi2c->Instance->CR1, I2C_CR1_POS);
 8002542:	6803      	ldr	r3, [r0, #0]
 8002544:	f423 6300 	bic.w	r3, r3, #2048	@ 0x800
 8002548:	6003      	str	r3, [r0, #0]
    hi2c->State     = HAL_I2C_STATE_BUSY_TX;
 800254a:	2321      	movs	r3, #33	@ 0x21
 800254c:	f884 303d 	strb.w	r3, [r4, #61]	@ 0x3d
    hi2c->Mode      = HAL_I2C_MODE_MEM;
 8002550:	2340      	movs	r3, #64	@ 0x40
 8002552:	f884 303e 	strb.w	r3, [r4, #62]	@ 0x3e
    hi2c->ErrorCode = HAL_I2C_ERROR_NONE;
 8002556:	2300      	movs	r3, #0
 8002558:	6423      	str	r3, [r4, #64]	@ 0x40
    hi2c->pBuffPtr    = pData;
 800255a:	9b0a      	ldr	r3, [sp, #40]	@ 0x28
    if (I2C_RequestMemoryWrite(hi2c, DevAddress, MemAddress, MemAddSize, Timeout, tickstart) != HAL_OK)
 800255c:	4620      	mov	r0, r4
    hi2c->pBuffPtr    = pData;
 800255e:	6263      	str	r3, [r4, #36]	@ 0x24
    hi2c->XferCount   = Size;
 8002560:	f8bd 302c 	ldrh.w	r3, [sp, #44]	@ 0x2c
 8002564:	8563      	strh	r3, [r4, #42]	@ 0x2a
    hi2c->XferSize    = hi2c->XferCount;
 8002566:	8d63      	ldrh	r3, [r4, #42]	@ 0x2a
 8002568:	8523      	strh	r3, [r4, #40]	@ 0x28
    hi2c->XferOptions = I2C_NO_OPTION_FRAME;
 800256a:	4b26      	ldr	r3, [pc, #152]	@ (8002604 <HAL_I2C_Mem_Write+0x11c>)
 800256c:	62e3      	str	r3, [r4, #44]	@ 0x2c
    if (I2C_RequestMemoryWrite(hi2c, DevAddress, MemAddress, MemAddSize, Timeout, tickstart) != HAL_OK)
 800256e:	464b      	mov	r3, r9
 8002570:	e9cd 6500 	strd	r6, r5, [sp]
 8002574:	f7ff fe8c 	bl	8002290 <I2C_RequestMemoryWrite>
 8002578:	2800      	cmp	r0, #0
 800257a:	d02a      	beq.n	80025d2 <HAL_I2C_Mem_Write+0xea>
      return HAL_ERROR;
 800257c:	2001      	movs	r0, #1
 800257e:	e7c2      	b.n	8002506 <HAL_I2C_Mem_Write+0x1e>
      if (I2C_WaitOnTXEFlagUntilTimeout(hi2c, Timeout, tickstart) != HAL_OK)
 8002580:	f7ff fe5b 	bl	800223a <I2C_WaitOnTXEFlagUntilTimeout>
 8002584:	b140      	cbz	r0, 8002598 <HAL_I2C_Mem_Write+0xb0>
        if (hi2c->ErrorCode == HAL_I2C_ERROR_AF)
 8002586:	6c23      	ldr	r3, [r4, #64]	@ 0x40
 8002588:	2b04      	cmp	r3, #4
          SET_BIT(hi2c->Instance->CR1, I2C_CR1_STOP);
 800258a:	bf01      	itttt	eq
 800258c:	6822      	ldreq	r2, [r4, #0]
 800258e:	6813      	ldreq	r3, [r2, #0]
 8002590:	f443 7300 	orreq.w	r3, r3, #512	@ 0x200
 8002594:	6013      	streq	r3, [r2, #0]
 8002596:	e7f1      	b.n	800257c <HAL_I2C_Mem_Write+0x94>
      hi2c->Instance->DR = *hi2c->pBuffPtr;
 8002598:	6a63      	ldr	r3, [r4, #36]	@ 0x24
 800259a:	6827      	ldr	r7, [r4, #0]
 800259c:	461a      	mov	r2, r3
 800259e:	f812 1b01 	ldrb.w	r1, [r2], #1
 80025a2:	6139      	str	r1, [r7, #16]
      hi2c->pBuffPtr++;
 80025a4:	6262      	str	r2, [r4, #36]	@ 0x24
      hi2c->XferCount--;
 80025a6:	8d62      	ldrh	r2, [r4, #42]	@ 0x2a
      hi2c->XferSize--;
 80025a8:	8d21      	ldrh	r1, [r4, #40]	@ 0x28
      hi2c->XferCount--;
 80025aa:	3a01      	subs	r2, #1
 80025ac:	b292      	uxth	r2, r2
 80025ae:	8562      	strh	r2, [r4, #42]	@ 0x2a
      if ((__HAL_I2C_GET_FLAG(hi2c, I2C_FLAG_BTF) == SET) && (hi2c->XferSize != 0U))
 80025b0:	697a      	ldr	r2, [r7, #20]
      hi2c->XferSize--;
 80025b2:	1e48      	subs	r0, r1, #1
 80025b4:	b280      	uxth	r0, r0
      if ((__HAL_I2C_GET_FLAG(hi2c, I2C_FLAG_BTF) == SET) && (hi2c->XferSize != 0U))
 80025b6:	0752      	lsls	r2, r2, #29
      hi2c->XferSize--;
 80025b8:	8520      	strh	r0, [r4, #40]	@ 0x28
      if ((__HAL_I2C_GET_FLAG(hi2c, I2C_FLAG_BTF) == SET) && (hi2c->XferSize != 0U))
 80025ba:	d50a      	bpl.n	80025d2 <HAL_I2C_Mem_Write+0xea>
 80025bc:	b148      	cbz	r0, 80025d2 <HAL_I2C_Mem_Write+0xea>
        hi2c->Instance->DR = *hi2c->pBuffPtr;
 80025be:	785a      	ldrb	r2, [r3, #1]
        hi2c->pBuffPtr++;
 80025c0:	3302      	adds	r3, #2
        hi2c->Instance->DR = *hi2c->pBuffPtr;
 80025c2:	613a      	str	r2, [r7, #16]
        hi2c->pBuffPtr++;
 80025c4:	6263      	str	r3, [r4, #36]	@ 0x24
        hi2c->XferCount--;
 80025c6:	8d63      	ldrh	r3, [r4, #42]	@ 0x2a
        hi2c->XferSize--;
 80025c8:	3902      	subs	r1, #2
        hi2c->XferCount--;
 80025ca:	3b01      	subs	r3, #1
 80025cc:	b29b      	uxth	r3, r3
        hi2c->XferSize--;
 80025ce:	8521      	strh	r1, [r4, #40]	@ 0x28
        hi2c->XferCount--;
 80025d0:	8563      	strh	r3, [r4, #42]	@ 0x2a
    while (hi2c->XferSize > 0U)
 80025d2:	8d23      	ldrh	r3, [r4, #40]	@ 0x28
      if (I2C_WaitOnTXEFlagUntilTimeout(hi2c, Timeout, tickstart) != HAL_OK)
 80025d4:	462a      	mov	r2, r5
 80025d6:	4631      	mov	r1, r6
 80025d8:	4620      	mov	r0, r4
    while (hi2c->XferSize > 0U)
 80025da:	2b00      	cmp	r3, #0
 80025dc:	d1d0      	bne.n	8002580 <HAL_I2C_Mem_Write+0x98>
    if (I2C_WaitOnBTFFlagUntilTimeout(hi2c, Timeout, tickstart) != HAL_OK)
 80025de:	f7ff feb1 	bl	8002344 <I2C_WaitOnBTFFlagUntilTimeout>
 80025e2:	2800      	cmp	r0, #0
 80025e4:	d1cf      	bne.n	8002586 <HAL_I2C_Mem_Write+0x9e>
    SET_BIT(hi2c->Instance->CR1, I2C_CR1_STOP);
 80025e6:	6822      	ldr	r2, [r4, #0]
 80025e8:	6813      	ldr	r3, [r2, #0]
 80025ea:	f443 7300 	orr.w	r3, r3, #512	@ 0x200
 80025ee:	6013      	str	r3, [r2, #0]
    hi2c->State = HAL_I2C_STATE_READY;
 80025f0:	2320      	movs	r3, #32
    __HAL_UNLOCK(hi2c);
 80025f2:	f884 003c 	strb.w	r0, [r4, #60]	@ 0x3c
    hi2c->State = HAL_I2C_STATE_READY;
 80025f6:	f884 303d 	strb.w	r3, [r4, #61]	@ 0x3d
    hi2c->Mode = HAL_I2C_MODE_NONE;
 80025fa:	f884 003e 	strb.w	r0, [r4, #62]	@ 0x3e
    return HAL_OK;
 80025fe:	e782      	b.n	8002506 <HAL_I2C_Mem_Write+0x1e>
 8002600:	00100002 	.word	0x00100002
 8002604:	ffff0000 	.word	0xffff0000

08002608 <HAL_PCD_Init>:
  *         parameters in the PCD_InitTypeDef and initialize the associated handle.
  * @param  hpcd PCD handle
  * @retval HAL status
  */
HAL_StatusTypeDef HAL_PCD_Init(PCD_HandleTypeDef *hpcd)
{
 8002608:	b5f8      	push	{r3, r4, r5, r6, r7, lr}
  uint8_t i;

  /* Check the PCD handle allocation */
  if (hpcd == NULL)
 800260a:	4604      	mov	r4, r0
 800260c:	b1e0      	cbz	r0, 8002648 <HAL_PCD_Init+0x40>
  }

  /* Check the parameters */
  assert_param(IS_PCD_ALL_INSTANCE(hpcd->Instance));

  if (hpcd->State == HAL_PCD_STATE_RESET)
 800260e:	f890 3291 	ldrb.w	r3, [r0, #657]	@ 0x291
 8002612:	f003 02ff 	and.w	r2, r3, #255	@ 0xff
 8002616:	b91b      	cbnz	r3, 8002620 <HAL_PCD_Init+0x18>
  {
    /* Allocate lock resource and initialize it */
    hpcd->Lock = HAL_UNLOCKED;
 8002618:	f880 2290 	strb.w	r2, [r0, #656]	@ 0x290

    /* Init the low level hardware */
    hpcd->MspInitCallback(hpcd);
#else
    /* Init the low level hardware : GPIO, CLOCK, NVIC... */
    HAL_PCD_MspInit(hpcd);
 800261c:	f7ff f81e 	bl	800165c <HAL_PCD_MspInit>
#endif /* (USE_HAL_PCD_REGISTER_CALLBACKS) */
  }

  hpcd->State = HAL_PCD_STATE_BUSY;
 8002620:	2303      	movs	r3, #3
 8002622:	f884 3291 	strb.w	r3, [r4, #657]	@ 0x291

  /* Disable DMA mode for FS instance */
  hpcd->Init.dma_enable = 0U;
 8002626:	2300      	movs	r3, #0

  /* Disable the Interrupts */
  __HAL_PCD_DISABLE(hpcd);
 8002628:	4625      	mov	r5, r4
  hpcd->Init.dma_enable = 0U;
 800262a:	7163      	strb	r3, [r4, #5]
  __HAL_PCD_DISABLE(hpcd);
 800262c:	f855 0b04 	ldr.w	r0, [r5], #4
 8002630:	f001 f9a9 	bl	8003986 <USB_DisableGlobalInt>

  /*Init the Core (common init.) */
  if (USB_CoreInit(hpcd->Instance, hpcd->Init) != HAL_OK)
 8002634:	e895 000e 	ldmia.w	r5, {r1, r2, r3}
 8002638:	6820      	ldr	r0, [r4, #0]
 800263a:	f001 f99d 	bl	8003978 <USB_CoreInit>
 800263e:	4601      	mov	r1, r0
 8002640:	b128      	cbz	r0, 800264e <HAL_PCD_Init+0x46>
  {
    hpcd->State = HAL_PCD_STATE_ERROR;
 8002642:	2302      	movs	r3, #2
 8002644:	f884 3291 	strb.w	r3, [r4, #657]	@ 0x291
    return HAL_ERROR;
 8002648:	2501      	movs	r5, #1
  hpcd->USB_Address = 0U;
  hpcd->State = HAL_PCD_STATE_READY;
  (void)USB_DevDisconnect(hpcd->Instance);

  return HAL_OK;
}
 800264a:	4628      	mov	r0, r5
 800264c:	bdf8      	pop	{r3, r4, r5, r6, r7, pc}
  if (USB_SetCurrentMode(hpcd->Instance, USB_DEVICE_MODE) != HAL_OK)
 800264e:	6820      	ldr	r0, [r4, #0]
 8002650:	f001 f9a3 	bl	800399a <USB_SetCurrentMode>
 8002654:	2800      	cmp	r0, #0
 8002656:	d1f4      	bne.n	8002642 <HAL_PCD_Init+0x3a>
 8002658:	4602      	mov	r2, r0
    hpcd->IN_ep[i].is_in = 1U;
 800265a:	2701      	movs	r7, #1
  for (i = 0U; i < hpcd->Init.dev_endpoints; i++)
 800265c:	7926      	ldrb	r6, [r4, #4]
 800265e:	f104 0310 	add.w	r3, r4, #16
 8002662:	b2c1      	uxtb	r1, r0
 8002664:	428e      	cmp	r6, r1
 8002666:	f103 0328 	add.w	r3, r3, #40	@ 0x28
 800266a:	d818      	bhi.n	800269e <HAL_PCD_Init+0x96>
 800266c:	2100      	movs	r1, #0
    hpcd->OUT_ep[i].is_in = 0U;
 800266e:	460a      	mov	r2, r1
 8002670:	f504 73a8 	add.w	r3, r4, #336	@ 0x150
 8002674:	b2c8      	uxtb	r0, r1
  for (i = 0U; i < hpcd->Init.dev_endpoints; i++)
 8002676:	4286      	cmp	r6, r0
 8002678:	f103 0328 	add.w	r3, r3, #40	@ 0x28
 800267c:	d81b      	bhi.n	80026b6 <HAL_PCD_Init+0xae>
  if (USB_DevInit(hpcd->Instance, hpcd->Init) != HAL_OK)
 800267e:	e895 000e 	ldmia.w	r5, {r1, r2, r3}
 8002682:	6820      	ldr	r0, [r4, #0]
 8002684:	f001 f98b 	bl	800399e <USB_DevInit>
 8002688:	4605      	mov	r5, r0
 800268a:	2800      	cmp	r0, #0
 800268c:	d1d9      	bne.n	8002642 <HAL_PCD_Init+0x3a>
  hpcd->State = HAL_PCD_STATE_READY;
 800268e:	2301      	movs	r3, #1
  hpcd->USB_Address = 0U;
 8002690:	7360      	strb	r0, [r4, #13]
  (void)USB_DevDisconnect(hpcd->Instance);
 8002692:	6820      	ldr	r0, [r4, #0]
  hpcd->State = HAL_PCD_STATE_READY;
 8002694:	f884 3291 	strb.w	r3, [r4, #657]	@ 0x291
  (void)USB_DevDisconnect(hpcd->Instance);
 8002698:	f001 f992 	bl	80039c0 <USB_DevDisconnect>
  return HAL_OK;
 800269c:	e7d5      	b.n	800264a <HAL_PCD_Init+0x42>
    hpcd->IN_ep[i].xfer_buff = 0U;
 800269e:	e943 2206 	strd	r2, r2, [r3, #-24]
    hpcd->IN_ep[i].is_in = 1U;
 80026a2:	f803 7c27 	strb.w	r7, [r3, #-39]
    hpcd->IN_ep[i].num = i;
 80026a6:	f803 1c28 	strb.w	r1, [r3, #-40]
    hpcd->IN_ep[i].type = EP_TYPE_CTRL;
 80026aa:	f803 2c25 	strb.w	r2, [r3, #-37]
    hpcd->IN_ep[i].xfer_len = 0U;
 80026ae:	f843 2c10 	str.w	r2, [r3, #-16]
  for (i = 0U; i < hpcd->Init.dev_endpoints; i++)
 80026b2:	3001      	adds	r0, #1
 80026b4:	e7d5      	b.n	8002662 <HAL_PCD_Init+0x5a>
    hpcd->OUT_ep[i].xfer_buff = 0U;
 80026b6:	e943 2206 	strd	r2, r2, [r3, #-24]
    hpcd->OUT_ep[i].is_in = 0U;
 80026ba:	f803 2c27 	strb.w	r2, [r3, #-39]
    hpcd->OUT_ep[i].num = i;
 80026be:	f803 0c28 	strb.w	r0, [r3, #-40]
    hpcd->OUT_ep[i].type = EP_TYPE_CTRL;
 80026c2:	f803 2c25 	strb.w	r2, [r3, #-37]
    hpcd->OUT_ep[i].xfer_len = 0U;
 80026c6:	f843 2c10 	str.w	r2, [r3, #-16]
  for (i = 0U; i < hpcd->Init.dev_endpoints; i++)
 80026ca:	3101      	adds	r1, #1
 80026cc:	e7d2      	b.n	8002674 <HAL_PCD_Init+0x6c>
	...

080026d0 <HAL_RCC_OscConfig>:
  *         supported by this macro. User should request a transition to HSE Off
  *         first and then HSE On or HSE Bypass.
  * @retval HAL status
  */
HAL_StatusTypeDef HAL_RCC_OscConfig(RCC_OscInitTypeDef  *RCC_OscInitStruct)
{
 80026d0:	e92d 41f3 	stmdb	sp!, {r0, r1, r4, r5, r6, r7, r8, lr}
  uint32_t tickstart;
  uint32_t pll_config;

  /* Check Null pointer */
  if (RCC_OscInitStruct == NULL)
 80026d4:	4605      	mov	r5, r0
 80026d6:	b338      	cbz	r0, 8002728 <HAL_RCC_OscConfig+0x58>

  /* Check the parameters */
  assert_param(IS_RCC_OSCILLATORTYPE(RCC_OscInitStruct->OscillatorType));

  /*------------------------------- HSE Configuration ------------------------*/
  if (((RCC_OscInitStruct->OscillatorType) & RCC_OSCILLATORTYPE_HSE) == RCC_OSCILLATORTYPE_HSE)
 80026d8:	6803      	ldr	r3, [r0, #0]
 80026da:	07db      	lsls	r3, r3, #31
 80026dc:	d410      	bmi.n	8002700 <HAL_RCC_OscConfig+0x30>
        }
      }
    }
  }
  /*----------------------------- HSI Configuration --------------------------*/
  if (((RCC_OscInitStruct->OscillatorType) & RCC_OSCILLATORTYPE_HSI) == RCC_OSCILLATORTYPE_HSI)
 80026de:	682b      	ldr	r3, [r5, #0]
 80026e0:	079f      	lsls	r7, r3, #30
 80026e2:	d45e      	bmi.n	80027a2 <HAL_RCC_OscConfig+0xd2>
        }
      }
    }
  }
  /*------------------------------ LSI Configuration -------------------------*/
  if (((RCC_OscInitStruct->OscillatorType) & RCC_OSCILLATORTYPE_LSI) == RCC_OSCILLATORTYPE_LSI)
 80026e4:	682b      	ldr	r3, [r5, #0]
 80026e6:	0719      	lsls	r1, r3, #28
 80026e8:	f100 8095 	bmi.w	8002816 <HAL_RCC_OscConfig+0x146>
        }
      }
    }
  }
  /*------------------------------ LSE Configuration -------------------------*/
  if (((RCC_OscInitStruct->OscillatorType) & RCC_OSCILLATORTYPE_LSE) == RCC_OSCILLATORTYPE_LSE)
 80026ec:	682b      	ldr	r3, [r5, #0]
 80026ee:	075a      	lsls	r2, r3, #29
 80026f0:	f100 80c1 	bmi.w	8002876 <HAL_RCC_OscConfig+0x1a6>

#endif /* RCC_CR_PLL2ON */
  /*-------------------------------- PLL Configuration -----------------------*/
  /* Check the parameters */
  assert_param(IS_RCC_PLL(RCC_OscInitStruct->PLL.PLLState));
  if ((RCC_OscInitStruct->PLL.PLLState) != RCC_PLL_NONE)
 80026f4:	69eb      	ldr	r3, [r5, #28]
 80026f6:	2b00      	cmp	r3, #0
 80026f8:	f040 812c 	bne.w	8002954 <HAL_RCC_OscConfig+0x284>
        }
      }
    }
  }

  return HAL_OK;
 80026fc:	2000      	movs	r0, #0
 80026fe:	e029      	b.n	8002754 <HAL_RCC_OscConfig+0x84>
    if ((__HAL_RCC_GET_SYSCLK_SOURCE() == RCC_SYSCLKSOURCE_STATUS_HSE)
 8002700:	4c90      	ldr	r4, [pc, #576]	@ (8002944 <HAL_RCC_OscConfig+0x274>)
 8002702:	6863      	ldr	r3, [r4, #4]
 8002704:	f003 030c 	and.w	r3, r3, #12
 8002708:	2b04      	cmp	r3, #4
 800270a:	d007      	beq.n	800271c <HAL_RCC_OscConfig+0x4c>
        || ((__HAL_RCC_GET_SYSCLK_SOURCE() == RCC_SYSCLKSOURCE_STATUS_PLLCLK) && (__HAL_RCC_GET_PLL_OSCSOURCE() == RCC_PLLSOURCE_HSE)))
 800270c:	6863      	ldr	r3, [r4, #4]
 800270e:	f003 030c 	and.w	r3, r3, #12
 8002712:	2b08      	cmp	r3, #8
 8002714:	d10a      	bne.n	800272c <HAL_RCC_OscConfig+0x5c>
 8002716:	6863      	ldr	r3, [r4, #4]
 8002718:	03de      	lsls	r6, r3, #15
 800271a:	d507      	bpl.n	800272c <HAL_RCC_OscConfig+0x5c>
      if ((__HAL_RCC_GET_FLAG(RCC_FLAG_HSERDY) != RESET) && (RCC_OscInitStruct->HSEState == RCC_HSE_OFF))
 800271c:	6823      	ldr	r3, [r4, #0]
 800271e:	039c      	lsls	r4, r3, #14
 8002720:	d5dd      	bpl.n	80026de <HAL_RCC_OscConfig+0xe>
 8002722:	686b      	ldr	r3, [r5, #4]
 8002724:	2b00      	cmp	r3, #0
 8002726:	d1da      	bne.n	80026de <HAL_RCC_OscConfig+0xe>
    return HAL_ERROR;
 8002728:	2001      	movs	r0, #1
 800272a:	e013      	b.n	8002754 <HAL_RCC_OscConfig+0x84>
      __HAL_RCC_HSE_CONFIG(RCC_OscInitStruct->HSEState);
 800272c:	686b      	ldr	r3, [r5, #4]
 800272e:	f5b3 3f80 	cmp.w	r3, #65536	@ 0x10000
 8002732:	d112      	bne.n	800275a <HAL_RCC_OscConfig+0x8a>
 8002734:	6823      	ldr	r3, [r4, #0]
 8002736:	f443 3380 	orr.w	r3, r3, #65536	@ 0x10000
 800273a:	6023      	str	r3, [r4, #0]
        tickstart = HAL_GetTick();
 800273c:	f7ff f87c 	bl	8001838 <HAL_GetTick>
 8002740:	4606      	mov	r6, r0
        while (__HAL_RCC_GET_FLAG(RCC_FLAG_HSERDY) == RESET)
 8002742:	6823      	ldr	r3, [r4, #0]
 8002744:	0398      	lsls	r0, r3, #14
 8002746:	d4ca      	bmi.n	80026de <HAL_RCC_OscConfig+0xe>
          if ((HAL_GetTick() - tickstart) > HSE_TIMEOUT_VALUE)
 8002748:	f7ff f876 	bl	8001838 <HAL_GetTick>
 800274c:	1b80      	subs	r0, r0, r6
 800274e:	2864      	cmp	r0, #100	@ 0x64
 8002750:	d9f7      	bls.n	8002742 <HAL_RCC_OscConfig+0x72>
            return HAL_TIMEOUT;
 8002752:	2003      	movs	r0, #3
}
 8002754:	b002      	add	sp, #8
 8002756:	e8bd 81f0 	ldmia.w	sp!, {r4, r5, r6, r7, r8, pc}
      __HAL_RCC_HSE_CONFIG(RCC_OscInitStruct->HSEState);
 800275a:	b99b      	cbnz	r3, 8002784 <HAL_RCC_OscConfig+0xb4>
 800275c:	6823      	ldr	r3, [r4, #0]
 800275e:	f423 3380 	bic.w	r3, r3, #65536	@ 0x10000
 8002762:	6023      	str	r3, [r4, #0]
 8002764:	6823      	ldr	r3, [r4, #0]
 8002766:	f423 2380 	bic.w	r3, r3, #262144	@ 0x40000
 800276a:	6023      	str	r3, [r4, #0]
        tickstart = HAL_GetTick();
 800276c:	f7ff f864 	bl	8001838 <HAL_GetTick>
 8002770:	4606      	mov	r6, r0
        while (__HAL_RCC_GET_FLAG(RCC_FLAG_HSERDY) != RESET)
 8002772:	6823      	ldr	r3, [r4, #0]
 8002774:	0399      	lsls	r1, r3, #14
 8002776:	d5b2      	bpl.n	80026de <HAL_RCC_OscConfig+0xe>
          if ((HAL_GetTick() - tickstart) > HSE_TIMEOUT_VALUE)
 8002778:	f7ff f85e 	bl	8001838 <HAL_GetTick>
 800277c:	1b80      	subs	r0, r0, r6
 800277e:	2864      	cmp	r0, #100	@ 0x64
 8002780:	d9f7      	bls.n	8002772 <HAL_RCC_OscConfig+0xa2>
 8002782:	e7e6      	b.n	8002752 <HAL_RCC_OscConfig+0x82>
      __HAL_RCC_HSE_CONFIG(RCC_OscInitStruct->HSEState);
 8002784:	f5b3 2fa0 	cmp.w	r3, #327680	@ 0x50000
 8002788:	6823      	ldr	r3, [r4, #0]
 800278a:	d103      	bne.n	8002794 <HAL_RCC_OscConfig+0xc4>
 800278c:	f443 2380 	orr.w	r3, r3, #262144	@ 0x40000
 8002790:	6023      	str	r3, [r4, #0]
 8002792:	e7cf      	b.n	8002734 <HAL_RCC_OscConfig+0x64>
 8002794:	f423 3380 	bic.w	r3, r3, #65536	@ 0x10000
 8002798:	6023      	str	r3, [r4, #0]
 800279a:	6823      	ldr	r3, [r4, #0]
 800279c:	f423 2380 	bic.w	r3, r3, #262144	@ 0x40000
 80027a0:	e7cb      	b.n	800273a <HAL_RCC_OscConfig+0x6a>
    if ((__HAL_RCC_GET_SYSCLK_SOURCE() == RCC_SYSCLKSOURCE_STATUS_HSI)
 80027a2:	4c68      	ldr	r4, [pc, #416]	@ (8002944 <HAL_RCC_OscConfig+0x274>)
 80027a4:	6863      	ldr	r3, [r4, #4]
 80027a6:	f013 0f0c 	tst.w	r3, #12
 80027aa:	d007      	beq.n	80027bc <HAL_RCC_OscConfig+0xec>
        || ((__HAL_RCC_GET_SYSCLK_SOURCE() == RCC_SYSCLKSOURCE_STATUS_PLLCLK) && (__HAL_RCC_GET_PLL_OSCSOURCE() == RCC_PLLSOURCE_HSI_DIV2)))
 80027ac:	6863      	ldr	r3, [r4, #4]
 80027ae:	f003 030c 	and.w	r3, r3, #12
 80027b2:	2b08      	cmp	r3, #8
 80027b4:	d110      	bne.n	80027d8 <HAL_RCC_OscConfig+0x108>
 80027b6:	6863      	ldr	r3, [r4, #4]
 80027b8:	03da      	lsls	r2, r3, #15
 80027ba:	d40d      	bmi.n	80027d8 <HAL_RCC_OscConfig+0x108>
      if ((__HAL_RCC_GET_FLAG(RCC_FLAG_HSIRDY) != RESET) && (RCC_OscInitStruct->HSIState != RCC_HSI_ON))
 80027bc:	6823      	ldr	r3, [r4, #0]
 80027be:	079b      	lsls	r3, r3, #30
 80027c0:	d502      	bpl.n	80027c8 <HAL_RCC_OscConfig+0xf8>
 80027c2:	692b      	ldr	r3, [r5, #16]
 80027c4:	2b01      	cmp	r3, #1
 80027c6:	d1af      	bne.n	8002728 <HAL_RCC_OscConfig+0x58>
        __HAL_RCC_HSI_CALIBRATIONVALUE_ADJUST(RCC_OscInitStruct->HSICalibrationValue);
 80027c8:	6823      	ldr	r3, [r4, #0]
 80027ca:	696a      	ldr	r2, [r5, #20]
 80027cc:	f023 03f8 	bic.w	r3, r3, #248	@ 0xf8
 80027d0:	ea43 03c2 	orr.w	r3, r3, r2, lsl #3
 80027d4:	6023      	str	r3, [r4, #0]
 80027d6:	e785      	b.n	80026e4 <HAL_RCC_OscConfig+0x14>
      if (RCC_OscInitStruct->HSIState != RCC_HSI_OFF)
 80027d8:	692a      	ldr	r2, [r5, #16]
 80027da:	4b5b      	ldr	r3, [pc, #364]	@ (8002948 <HAL_RCC_OscConfig+0x278>)
 80027dc:	b16a      	cbz	r2, 80027fa <HAL_RCC_OscConfig+0x12a>
        __HAL_RCC_HSI_ENABLE();
 80027de:	2201      	movs	r2, #1
 80027e0:	601a      	str	r2, [r3, #0]
        tickstart = HAL_GetTick();
 80027e2:	f7ff f829 	bl	8001838 <HAL_GetTick>
 80027e6:	4606      	mov	r6, r0
        while (__HAL_RCC_GET_FLAG(RCC_FLAG_HSIRDY) == RESET)
 80027e8:	6823      	ldr	r3, [r4, #0]
 80027ea:	079f      	lsls	r7, r3, #30
 80027ec:	d4ec      	bmi.n	80027c8 <HAL_RCC_OscConfig+0xf8>
          if ((HAL_GetTick() - tickstart) > HSI_TIMEOUT_VALUE)
 80027ee:	f7ff f823 	bl	8001838 <HAL_GetTick>
 80027f2:	1b80      	subs	r0, r0, r6
 80027f4:	2802      	cmp	r0, #2
 80027f6:	d9f7      	bls.n	80027e8 <HAL_RCC_OscConfig+0x118>
 80027f8:	e7ab      	b.n	8002752 <HAL_RCC_OscConfig+0x82>
        __HAL_RCC_HSI_DISABLE();
 80027fa:	601a      	str	r2, [r3, #0]
        tickstart = HAL_GetTick();
 80027fc:	f7ff f81c 	bl	8001838 <HAL_GetTick>
 8002800:	4606      	mov	r6, r0
        while (__HAL_RCC_GET_FLAG(RCC_FLAG_HSIRDY) != RESET)
 8002802:	6823      	ldr	r3, [r4, #0]
 8002804:	0798      	lsls	r0, r3, #30
 8002806:	f57f af6d 	bpl.w	80026e4 <HAL_RCC_OscConfig+0x14>
          if ((HAL_GetTick() - tickstart) > HSI_TIMEOUT_VALUE)
 800280a:	f7ff f815 	bl	8001838 <HAL_GetTick>
 800280e:	1b80      	subs	r0, r0, r6
 8002810:	2802      	cmp	r0, #2
 8002812:	d9f6      	bls.n	8002802 <HAL_RCC_OscConfig+0x132>
 8002814:	e79d      	b.n	8002752 <HAL_RCC_OscConfig+0x82>
    if (RCC_OscInitStruct->LSIState != RCC_LSI_OFF)
 8002816:	69aa      	ldr	r2, [r5, #24]
 8002818:	4e4a      	ldr	r6, [pc, #296]	@ (8002944 <HAL_RCC_OscConfig+0x274>)
 800281a:	4b4b      	ldr	r3, [pc, #300]	@ (8002948 <HAL_RCC_OscConfig+0x278>)
 800281c:	b1e2      	cbz	r2, 8002858 <HAL_RCC_OscConfig+0x188>
      __HAL_RCC_LSI_ENABLE();
 800281e:	2201      	movs	r2, #1
 8002820:	f8c3 2480 	str.w	r2, [r3, #1152]	@ 0x480
      tickstart = HAL_GetTick();
 8002824:	f7ff f808 	bl	8001838 <HAL_GetTick>
 8002828:	4604      	mov	r4, r0
      while (__HAL_RCC_GET_FLAG(RCC_FLAG_LSIRDY) == RESET)
 800282a:	6a73      	ldr	r3, [r6, #36]	@ 0x24
 800282c:	079b      	lsls	r3, r3, #30
 800282e:	d50d      	bpl.n	800284c <HAL_RCC_OscConfig+0x17c>
  * @param  mdelay: specifies the delay time length, in milliseconds.
  * @retval None
  */
static void RCC_Delay(uint32_t mdelay)
{
  __IO uint32_t Delay = mdelay * (SystemCoreClock / 8U / 1000U);
 8002830:	f44f 52fa 	mov.w	r2, #8000	@ 0x1f40
 8002834:	4b45      	ldr	r3, [pc, #276]	@ (800294c <HAL_RCC_OscConfig+0x27c>)
 8002836:	681b      	ldr	r3, [r3, #0]
 8002838:	fbb3 f3f2 	udiv	r3, r3, r2
 800283c:	9301      	str	r3, [sp, #4]
  do
  {
    __NOP();
 800283e:	bf00      	nop
  }
  while (Delay --);
 8002840:	9b01      	ldr	r3, [sp, #4]
 8002842:	1e5a      	subs	r2, r3, #1
 8002844:	9201      	str	r2, [sp, #4]
 8002846:	2b00      	cmp	r3, #0
 8002848:	d1f9      	bne.n	800283e <HAL_RCC_OscConfig+0x16e>
 800284a:	e74f      	b.n	80026ec <HAL_RCC_OscConfig+0x1c>
        if ((HAL_GetTick() - tickstart) > LSI_TIMEOUT_VALUE)
 800284c:	f7fe fff4 	bl	8001838 <HAL_GetTick>
 8002850:	1b00      	subs	r0, r0, r4
 8002852:	2802      	cmp	r0, #2
 8002854:	d9e9      	bls.n	800282a <HAL_RCC_OscConfig+0x15a>
 8002856:	e77c      	b.n	8002752 <HAL_RCC_OscConfig+0x82>
      __HAL_RCC_LSI_DISABLE();
 8002858:	f8c3 2480 	str.w	r2, [r3, #1152]	@ 0x480
      tickstart = HAL_GetTick();
 800285c:	f7fe ffec 	bl	8001838 <HAL_GetTick>
 8002860:	4604      	mov	r4, r0
      while (__HAL_RCC_GET_FLAG(RCC_FLAG_LSIRDY) != RESET)
 8002862:	6a73      	ldr	r3, [r6, #36]	@ 0x24
 8002864:	079f      	lsls	r7, r3, #30
 8002866:	f57f af41 	bpl.w	80026ec <HAL_RCC_OscConfig+0x1c>
        if ((HAL_GetTick() - tickstart) > LSI_TIMEOUT_VALUE)
 800286a:	f7fe ffe5 	bl	8001838 <HAL_GetTick>
 800286e:	1b00      	subs	r0, r0, r4
 8002870:	2802      	cmp	r0, #2
 8002872:	d9f6      	bls.n	8002862 <HAL_RCC_OscConfig+0x192>
 8002874:	e76d      	b.n	8002752 <HAL_RCC_OscConfig+0x82>
    if (__HAL_RCC_PWR_IS_CLK_DISABLED())
 8002876:	4c33      	ldr	r4, [pc, #204]	@ (8002944 <HAL_RCC_OscConfig+0x274>)
 8002878:	69e3      	ldr	r3, [r4, #28]
 800287a:	00d8      	lsls	r0, r3, #3
 800287c:	d424      	bmi.n	80028c8 <HAL_RCC_OscConfig+0x1f8>
      pwrclkchanged = SET;
 800287e:	2701      	movs	r7, #1
      __HAL_RCC_PWR_CLK_ENABLE();
 8002880:	69e3      	ldr	r3, [r4, #28]
 8002882:	f043 5380 	orr.w	r3, r3, #268435456	@ 0x10000000
 8002886:	61e3      	str	r3, [r4, #28]
 8002888:	69e3      	ldr	r3, [r4, #28]
 800288a:	f003 5380 	and.w	r3, r3, #268435456	@ 0x10000000
 800288e:	9300      	str	r3, [sp, #0]
 8002890:	9b00      	ldr	r3, [sp, #0]
    if (HAL_IS_BIT_CLR(PWR->CR, PWR_CR_DBP))
 8002892:	4e2f      	ldr	r6, [pc, #188]	@ (8002950 <HAL_RCC_OscConfig+0x280>)
 8002894:	6833      	ldr	r3, [r6, #0]
 8002896:	05d9      	lsls	r1, r3, #23
 8002898:	d518      	bpl.n	80028cc <HAL_RCC_OscConfig+0x1fc>
    __HAL_RCC_LSE_CONFIG(RCC_OscInitStruct->LSEState);
 800289a:	68eb      	ldr	r3, [r5, #12]
 800289c:	2b01      	cmp	r3, #1
 800289e:	d126      	bne.n	80028ee <HAL_RCC_OscConfig+0x21e>
 80028a0:	6a23      	ldr	r3, [r4, #32]
 80028a2:	f043 0301 	orr.w	r3, r3, #1
 80028a6:	6223      	str	r3, [r4, #32]
      tickstart = HAL_GetTick();
 80028a8:	f7fe ffc6 	bl	8001838 <HAL_GetTick>
        if ((HAL_GetTick() - tickstart) > RCC_LSE_TIMEOUT_VALUE)
 80028ac:	f241 3888 	movw	r8, #5000	@ 0x1388
      tickstart = HAL_GetTick();
 80028b0:	4606      	mov	r6, r0
      while (__HAL_RCC_GET_FLAG(RCC_FLAG_LSERDY) == RESET)
 80028b2:	6a23      	ldr	r3, [r4, #32]
 80028b4:	079b      	lsls	r3, r3, #30
 80028b6:	d53f      	bpl.n	8002938 <HAL_RCC_OscConfig+0x268>
    if (pwrclkchanged == SET)
 80028b8:	2f00      	cmp	r7, #0
 80028ba:	f43f af1b 	beq.w	80026f4 <HAL_RCC_OscConfig+0x24>
      __HAL_RCC_PWR_CLK_DISABLE();
 80028be:	69e3      	ldr	r3, [r4, #28]
 80028c0:	f023 5380 	bic.w	r3, r3, #268435456	@ 0x10000000
 80028c4:	61e3      	str	r3, [r4, #28]
 80028c6:	e715      	b.n	80026f4 <HAL_RCC_OscConfig+0x24>
    FlagStatus       pwrclkchanged = RESET;
 80028c8:	2700      	movs	r7, #0
 80028ca:	e7e2      	b.n	8002892 <HAL_RCC_OscConfig+0x1c2>
      SET_BIT(PWR->CR, PWR_CR_DBP);
 80028cc:	6833      	ldr	r3, [r6, #0]
 80028ce:	f443 7380 	orr.w	r3, r3, #256	@ 0x100
 80028d2:	6033      	str	r3, [r6, #0]
      tickstart = HAL_GetTick();
 80028d4:	f7fe ffb0 	bl	8001838 <HAL_GetTick>
 80028d8:	4680      	mov	r8, r0
      while (HAL_IS_BIT_CLR(PWR->CR, PWR_CR_DBP))
 80028da:	6833      	ldr	r3, [r6, #0]
 80028dc:	05da      	lsls	r2, r3, #23
 80028de:	d4dc      	bmi.n	800289a <HAL_RCC_OscConfig+0x1ca>
        if ((HAL_GetTick() - tickstart) > RCC_DBP_TIMEOUT_VALUE)
 80028e0:	f7fe ffaa 	bl	8001838 <HAL_GetTick>
 80028e4:	eba0 0008 	sub.w	r0, r0, r8
 80028e8:	2864      	cmp	r0, #100	@ 0x64
 80028ea:	d9f6      	bls.n	80028da <HAL_RCC_OscConfig+0x20a>
 80028ec:	e731      	b.n	8002752 <HAL_RCC_OscConfig+0x82>
    __HAL_RCC_LSE_CONFIG(RCC_OscInitStruct->LSEState);
 80028ee:	b9ab      	cbnz	r3, 800291c <HAL_RCC_OscConfig+0x24c>
 80028f0:	6a23      	ldr	r3, [r4, #32]
        if ((HAL_GetTick() - tickstart) > RCC_LSE_TIMEOUT_VALUE)
 80028f2:	f241 3888 	movw	r8, #5000	@ 0x1388
    __HAL_RCC_LSE_CONFIG(RCC_OscInitStruct->LSEState);
 80028f6:	f023 0301 	bic.w	r3, r3, #1
 80028fa:	6223      	str	r3, [r4, #32]
 80028fc:	6a23      	ldr	r3, [r4, #32]
 80028fe:	f023 0304 	bic.w	r3, r3, #4
 8002902:	6223      	str	r3, [r4, #32]
      tickstart = HAL_GetTick();
 8002904:	f7fe ff98 	bl	8001838 <HAL_GetTick>
 8002908:	4606      	mov	r6, r0
      while (__HAL_RCC_GET_FLAG(RCC_FLAG_LSERDY) != RESET)
 800290a:	6a23      	ldr	r3, [r4, #32]
 800290c:	0798      	lsls	r0, r3, #30
 800290e:	d5d3      	bpl.n	80028b8 <HAL_RCC_OscConfig+0x1e8>
        if ((HAL_GetTick() - tickstart) > RCC_LSE_TIMEOUT_VALUE)
 8002910:	f7fe ff92 	bl	8001838 <HAL_GetTick>
 8002914:	1b80      	subs	r0, r0, r6
 8002916:	4540      	cmp	r0, r8
 8002918:	d9f7      	bls.n	800290a <HAL_RCC_OscConfig+0x23a>
 800291a:	e71a      	b.n	8002752 <HAL_RCC_OscConfig+0x82>
    __HAL_RCC_LSE_CONFIG(RCC_OscInitStruct->LSEState);
 800291c:	2b05      	cmp	r3, #5
 800291e:	6a23      	ldr	r3, [r4, #32]
 8002920:	d103      	bne.n	800292a <HAL_RCC_OscConfig+0x25a>
 8002922:	f043 0304 	orr.w	r3, r3, #4
 8002926:	6223      	str	r3, [r4, #32]
 8002928:	e7ba      	b.n	80028a0 <HAL_RCC_OscConfig+0x1d0>
 800292a:	f023 0301 	bic.w	r3, r3, #1
 800292e:	6223      	str	r3, [r4, #32]
 8002930:	6a23      	ldr	r3, [r4, #32]
 8002932:	f023 0304 	bic.w	r3, r3, #4
 8002936:	e7b6      	b.n	80028a6 <HAL_RCC_OscConfig+0x1d6>
        if ((HAL_GetTick() - tickstart) > RCC_LSE_TIMEOUT_VALUE)
 8002938:	f7fe ff7e 	bl	8001838 <HAL_GetTick>
 800293c:	1b80      	subs	r0, r0, r6
 800293e:	4540      	cmp	r0, r8
 8002940:	d9b7      	bls.n	80028b2 <HAL_RCC_OscConfig+0x1e2>
 8002942:	e706      	b.n	8002752 <HAL_RCC_OscConfig+0x82>
 8002944:	40021000 	.word	0x40021000
 8002948:	42420000 	.word	0x42420000
 800294c:	2000001c 	.word	0x2000001c
 8002950:	40007000 	.word	0x40007000
    if (__HAL_RCC_GET_SYSCLK_SOURCE() != RCC_SYSCLKSOURCE_STATUS_PLLCLK)
 8002954:	4c2a      	ldr	r4, [pc, #168]	@ (8002a00 <HAL_RCC_OscConfig+0x330>)
 8002956:	6862      	ldr	r2, [r4, #4]
 8002958:	f002 020c 	and.w	r2, r2, #12
 800295c:	2a08      	cmp	r2, #8
 800295e:	d03e      	beq.n	80029de <HAL_RCC_OscConfig+0x30e>
      if ((RCC_OscInitStruct->PLL.PLLState) == RCC_PLL_ON)
 8002960:	2200      	movs	r2, #0
 8002962:	2b02      	cmp	r3, #2
 8002964:	4b27      	ldr	r3, [pc, #156]	@ (8002a04 <HAL_RCC_OscConfig+0x334>)
        __HAL_RCC_PLL_DISABLE();
 8002966:	661a      	str	r2, [r3, #96]	@ 0x60
      if ((RCC_OscInitStruct->PLL.PLLState) == RCC_PLL_ON)
 8002968:	d12c      	bne.n	80029c4 <HAL_RCC_OscConfig+0x2f4>
        tickstart = HAL_GetTick();
 800296a:	f7fe ff65 	bl	8001838 <HAL_GetTick>
 800296e:	4606      	mov	r6, r0
        while (__HAL_RCC_GET_FLAG(RCC_FLAG_PLLRDY)  != RESET)
 8002970:	6823      	ldr	r3, [r4, #0]
 8002972:	0199      	lsls	r1, r3, #6
 8002974:	d420      	bmi.n	80029b8 <HAL_RCC_OscConfig+0x2e8>
        if (RCC_OscInitStruct->PLL.PLLSource == RCC_PLLSOURCE_HSE)
 8002976:	6a2b      	ldr	r3, [r5, #32]
 8002978:	f5b3 3f80 	cmp.w	r3, #65536	@ 0x10000
 800297c:	d105      	bne.n	800298a <HAL_RCC_OscConfig+0x2ba>
          __HAL_RCC_HSE_PREDIV_CONFIG(RCC_OscInitStruct->HSEPredivValue);
 800297e:	6862      	ldr	r2, [r4, #4]
 8002980:	68a9      	ldr	r1, [r5, #8]
 8002982:	f422 3200 	bic.w	r2, r2, #131072	@ 0x20000
 8002986:	430a      	orrs	r2, r1
 8002988:	6062      	str	r2, [r4, #4]
        __HAL_RCC_PLL_CONFIG(RCC_OscInitStruct->PLL.PLLSource,
 800298a:	6a69      	ldr	r1, [r5, #36]	@ 0x24
 800298c:	6862      	ldr	r2, [r4, #4]
 800298e:	430b      	orrs	r3, r1
 8002990:	f422 1274 	bic.w	r2, r2, #3997696	@ 0x3d0000
 8002994:	4313      	orrs	r3, r2
        __HAL_RCC_PLL_ENABLE();
 8002996:	2201      	movs	r2, #1
        __HAL_RCC_PLL_CONFIG(RCC_OscInitStruct->PLL.PLLSource,
 8002998:	6063      	str	r3, [r4, #4]
        __HAL_RCC_PLL_ENABLE();
 800299a:	4b1a      	ldr	r3, [pc, #104]	@ (8002a04 <HAL_RCC_OscConfig+0x334>)
 800299c:	661a      	str	r2, [r3, #96]	@ 0x60
        tickstart = HAL_GetTick();
 800299e:	f7fe ff4b 	bl	8001838 <HAL_GetTick>
 80029a2:	4605      	mov	r5, r0
        while (__HAL_RCC_GET_FLAG(RCC_FLAG_PLLRDY)  == RESET)
 80029a4:	6823      	ldr	r3, [r4, #0]
 80029a6:	019a      	lsls	r2, r3, #6
 80029a8:	f53f aea8 	bmi.w	80026fc <HAL_RCC_OscConfig+0x2c>
          if ((HAL_GetTick() - tickstart) > PLL_TIMEOUT_VALUE)
 80029ac:	f7fe ff44 	bl	8001838 <HAL_GetTick>
 80029b0:	1b40      	subs	r0, r0, r5
 80029b2:	2802      	cmp	r0, #2
 80029b4:	d9f6      	bls.n	80029a4 <HAL_RCC_OscConfig+0x2d4>
 80029b6:	e6cc      	b.n	8002752 <HAL_RCC_OscConfig+0x82>
          if ((HAL_GetTick() - tickstart) > PLL_TIMEOUT_VALUE)
 80029b8:	f7fe ff3e 	bl	8001838 <HAL_GetTick>
 80029bc:	1b80      	subs	r0, r0, r6
 80029be:	2802      	cmp	r0, #2
 80029c0:	d9d6      	bls.n	8002970 <HAL_RCC_OscConfig+0x2a0>
 80029c2:	e6c6      	b.n	8002752 <HAL_RCC_OscConfig+0x82>
        tickstart = HAL_GetTick();
 80029c4:	f7fe ff38 	bl	8001838 <HAL_GetTick>
 80029c8:	4605      	mov	r5, r0
        while (__HAL_RCC_GET_FLAG(RCC_FLAG_PLLRDY)  != RESET)
 80029ca:	6823      	ldr	r3, [r4, #0]
 80029cc:	019b      	lsls	r3, r3, #6
 80029ce:	f57f ae95 	bpl.w	80026fc <HAL_RCC_OscConfig+0x2c>
          if ((HAL_GetTick() - tickstart) > PLL_TIMEOUT_VALUE)
 80029d2:	f7fe ff31 	bl	8001838 <HAL_GetTick>
 80029d6:	1b40      	subs	r0, r0, r5
 80029d8:	2802      	cmp	r0, #2
 80029da:	d9f6      	bls.n	80029ca <HAL_RCC_OscConfig+0x2fa>
 80029dc:	e6b9      	b.n	8002752 <HAL_RCC_OscConfig+0x82>
      if ((RCC_OscInitStruct->PLL.PLLState) == RCC_PLL_OFF)
 80029de:	2b01      	cmp	r3, #1
 80029e0:	f43f aea2 	beq.w	8002728 <HAL_RCC_OscConfig+0x58>
        pll_config = RCC->CFGR;
 80029e4:	6860      	ldr	r0, [r4, #4]
        if ((READ_BIT(pll_config, RCC_CFGR_PLLSRC) != RCC_OscInitStruct->PLL.PLLSource) ||
 80029e6:	6a2b      	ldr	r3, [r5, #32]
 80029e8:	f400 3280 	and.w	r2, r0, #65536	@ 0x10000
 80029ec:	429a      	cmp	r2, r3
 80029ee:	f47f ae9b 	bne.w	8002728 <HAL_RCC_OscConfig+0x58>
 80029f2:	6a6b      	ldr	r3, [r5, #36]	@ 0x24
            (READ_BIT(pll_config, RCC_CFGR_PLLMULL) != RCC_OscInitStruct->PLL.PLLMUL))
 80029f4:	f400 1070 	and.w	r0, r0, #3932160	@ 0x3c0000
        if ((READ_BIT(pll_config, RCC_CFGR_PLLSRC) != RCC_OscInitStruct->PLL.PLLSource) ||
 80029f8:	1ac0      	subs	r0, r0, r3
 80029fa:	bf18      	it	ne
 80029fc:	2001      	movne	r0, #1
 80029fe:	e6a9      	b.n	8002754 <HAL_RCC_OscConfig+0x84>
 8002a00:	40021000 	.word	0x40021000
 8002a04:	42420000 	.word	0x42420000

08002a08 <HAL_RCC_GetSysClockFreq>:
  tmpreg = RCC->CFGR;
 8002a08:	4a0d      	ldr	r2, [pc, #52]	@ (8002a40 <HAL_RCC_GetSysClockFreq+0x38>)
 8002a0a:	6853      	ldr	r3, [r2, #4]
  switch (tmpreg & RCC_CFGR_SWS)
 8002a0c:	f003 010c 	and.w	r1, r3, #12
 8002a10:	2908      	cmp	r1, #8
 8002a12:	d112      	bne.n	8002a3a <HAL_RCC_GetSysClockFreq+0x32>
      pllmul = aPLLMULFactorTable[(uint32_t)(tmpreg & RCC_CFGR_PLLMULL) >> RCC_CFGR_PLLMULL_Pos];
 8002a14:	480b      	ldr	r0, [pc, #44]	@ (8002a44 <HAL_RCC_GetSysClockFreq+0x3c>)
 8002a16:	f3c3 4183 	ubfx	r1, r3, #18, #4
      if ((tmpreg & RCC_CFGR_PLLSRC) != RCC_PLLSOURCE_HSI_DIV2)
 8002a1a:	03db      	lsls	r3, r3, #15
      pllmul = aPLLMULFactorTable[(uint32_t)(tmpreg & RCC_CFGR_PLLMULL) >> RCC_CFGR_PLLMULL_Pos];
 8002a1c:	5c40      	ldrb	r0, [r0, r1]
      if ((tmpreg & RCC_CFGR_PLLSRC) != RCC_PLLSOURCE_HSI_DIV2)
 8002a1e:	d509      	bpl.n	8002a34 <HAL_RCC_GetSysClockFreq+0x2c>
        prediv = aPredivFactorTable[(uint32_t)(RCC->CFGR & RCC_CFGR_PLLXTPRE) >> RCC_CFGR_PLLXTPRE_Pos];
 8002a20:	6853      	ldr	r3, [r2, #4]
        pllclk = (uint32_t)((HSE_VALUE  * pllmul) / prediv);
 8002a22:	4a09      	ldr	r2, [pc, #36]	@ (8002a48 <HAL_RCC_GetSysClockFreq+0x40>)
        prediv = aPredivFactorTable[(uint32_t)(RCC->CFGR & RCC_CFGR_PLLXTPRE) >> RCC_CFGR_PLLXTPRE_Pos];
 8002a24:	f3c3 4340 	ubfx	r3, r3, #17, #1
        pllclk = (uint32_t)((HSE_VALUE  * pllmul) / prediv);
 8002a28:	4350      	muls	r0, r2
        prediv = aPredivFactorTable[(uint32_t)(RCC->CFGR & RCC_CFGR_PLLXTPRE) >> RCC_CFGR_PLLXTPRE_Pos];
 8002a2a:	4a08      	ldr	r2, [pc, #32]	@ (8002a4c <HAL_RCC_GetSysClockFreq+0x44>)
 8002a2c:	5cd3      	ldrb	r3, [r2, r3]
        pllclk = (uint32_t)((HSE_VALUE  * pllmul) / prediv);
 8002a2e:	fbb0 f0f3 	udiv	r0, r0, r3
 8002a32:	4770      	bx	lr
        pllclk = (uint32_t)((HSI_VALUE >> 1) * pllmul);
 8002a34:	4b06      	ldr	r3, [pc, #24]	@ (8002a50 <HAL_RCC_GetSysClockFreq+0x48>)
 8002a36:	4358      	muls	r0, r3
 8002a38:	4770      	bx	lr
      sysclockfreq = HSE_VALUE;
 8002a3a:	4803      	ldr	r0, [pc, #12]	@ (8002a48 <HAL_RCC_GetSysClockFreq+0x40>)
}
 8002a3c:	4770      	bx	lr
 8002a3e:	bf00      	nop
 8002a40:	40021000 	.word	0x40021000
 8002a44:	080070be 	.word	0x080070be
 8002a48:	007a1200 	.word	0x007a1200
 8002a4c:	080070bc 	.word	0x080070bc
 8002a50:	003d0900 	.word	0x003d0900

08002a54 <HAL_RCC_ClockConfig>:
{
 8002a54:	e92d 41f0 	stmdb	sp!, {r4, r5, r6, r7, r8, lr}
 8002a58:	460d      	mov	r5, r1
  if (RCC_ClkInitStruct == NULL)
 8002a5a:	4604      	mov	r4, r0
 8002a5c:	b910      	cbnz	r0, 8002a64 <HAL_RCC_ClockConfig+0x10>
    return HAL_ERROR;
 8002a5e:	2001      	movs	r0, #1
}
 8002a60:	e8bd 81f0 	ldmia.w	sp!, {r4, r5, r6, r7, r8, pc}
  if (FLatency > __HAL_FLASH_GET_LATENCY())
 8002a64:	4a44      	ldr	r2, [pc, #272]	@ (8002b78 <HAL_RCC_ClockConfig+0x124>)
 8002a66:	6813      	ldr	r3, [r2, #0]
 8002a68:	f003 0307 	and.w	r3, r3, #7
 8002a6c:	428b      	cmp	r3, r1
 8002a6e:	d328      	bcc.n	8002ac2 <HAL_RCC_ClockConfig+0x6e>
if (((RCC_ClkInitStruct->ClockType) & RCC_CLOCKTYPE_HCLK) == RCC_CLOCKTYPE_HCLK)
 8002a70:	6821      	ldr	r1, [r4, #0]
 8002a72:	078e      	lsls	r6, r1, #30
 8002a74:	d430      	bmi.n	8002ad8 <HAL_RCC_ClockConfig+0x84>
  if (((RCC_ClkInitStruct->ClockType) & RCC_CLOCKTYPE_SYSCLK) == RCC_CLOCKTYPE_SYSCLK)
 8002a76:	07ca      	lsls	r2, r1, #31
 8002a78:	d443      	bmi.n	8002b02 <HAL_RCC_ClockConfig+0xae>
  if (FLatency < __HAL_FLASH_GET_LATENCY())
 8002a7a:	4a3f      	ldr	r2, [pc, #252]	@ (8002b78 <HAL_RCC_ClockConfig+0x124>)
 8002a7c:	6813      	ldr	r3, [r2, #0]
 8002a7e:	f003 0307 	and.w	r3, r3, #7
 8002a82:	42ab      	cmp	r3, r5
 8002a84:	d865      	bhi.n	8002b52 <HAL_RCC_ClockConfig+0xfe>
if (((RCC_ClkInitStruct->ClockType) & RCC_CLOCKTYPE_PCLK1) == RCC_CLOCKTYPE_PCLK1)
 8002a86:	6822      	ldr	r2, [r4, #0]
 8002a88:	4d3c      	ldr	r5, [pc, #240]	@ (8002b7c <HAL_RCC_ClockConfig+0x128>)
 8002a8a:	f012 0f04 	tst.w	r2, #4
 8002a8e:	d16c      	bne.n	8002b6a <HAL_RCC_ClockConfig+0x116>
  if (((RCC_ClkInitStruct->ClockType) & RCC_CLOCKTYPE_PCLK2) == RCC_CLOCKTYPE_PCLK2)
 8002a90:	0713      	lsls	r3, r2, #28
 8002a92:	d506      	bpl.n	8002aa2 <HAL_RCC_ClockConfig+0x4e>
    MODIFY_REG(RCC->CFGR, RCC_CFGR_PPRE2, ((RCC_ClkInitStruct->APB2CLKDivider) << 3));
 8002a94:	686b      	ldr	r3, [r5, #4]
 8002a96:	6922      	ldr	r2, [r4, #16]
 8002a98:	f423 5360 	bic.w	r3, r3, #14336	@ 0x3800
 8002a9c:	ea43 03c2 	orr.w	r3, r3, r2, lsl #3
 8002aa0:	606b      	str	r3, [r5, #4]
  SystemCoreClock = HAL_RCC_GetSysClockFreq() >> AHBPrescTable[(RCC->CFGR & RCC_CFGR_HPRE) >> RCC_CFGR_HPRE_Pos];
 8002aa2:	f7ff ffb1 	bl	8002a08 <HAL_RCC_GetSysClockFreq>
 8002aa6:	686b      	ldr	r3, [r5, #4]
 8002aa8:	4a35      	ldr	r2, [pc, #212]	@ (8002b80 <HAL_RCC_ClockConfig+0x12c>)
 8002aaa:	f3c3 1303 	ubfx	r3, r3, #4, #4
 8002aae:	5cd3      	ldrb	r3, [r2, r3]
 8002ab0:	40d8      	lsrs	r0, r3
 8002ab2:	4b34      	ldr	r3, [pc, #208]	@ (8002b84 <HAL_RCC_ClockConfig+0x130>)
 8002ab4:	6018      	str	r0, [r3, #0]
  HAL_InitTick(uwTickPrio);
 8002ab6:	4b34      	ldr	r3, [pc, #208]	@ (8002b88 <HAL_RCC_ClockConfig+0x134>)
 8002ab8:	6818      	ldr	r0, [r3, #0]
 8002aba:	f7fe fde3 	bl	8001684 <HAL_InitTick>
  return HAL_OK;
 8002abe:	2000      	movs	r0, #0
 8002ac0:	e7ce      	b.n	8002a60 <HAL_RCC_ClockConfig+0xc>
    __HAL_FLASH_SET_LATENCY(FLatency);
 8002ac2:	6813      	ldr	r3, [r2, #0]
 8002ac4:	f023 0307 	bic.w	r3, r3, #7
 8002ac8:	430b      	orrs	r3, r1
 8002aca:	6013      	str	r3, [r2, #0]
    if (__HAL_FLASH_GET_LATENCY() != FLatency)
 8002acc:	6813      	ldr	r3, [r2, #0]
 8002ace:	f003 0307 	and.w	r3, r3, #7
 8002ad2:	428b      	cmp	r3, r1
 8002ad4:	d1c3      	bne.n	8002a5e <HAL_RCC_ClockConfig+0xa>
 8002ad6:	e7cb      	b.n	8002a70 <HAL_RCC_ClockConfig+0x1c>
    if (((RCC_ClkInitStruct->ClockType) & RCC_CLOCKTYPE_PCLK1) == RCC_CLOCKTYPE_PCLK1)
 8002ad8:	4b28      	ldr	r3, [pc, #160]	@ (8002b7c <HAL_RCC_ClockConfig+0x128>)
 8002ada:	f011 0f04 	tst.w	r1, #4
      MODIFY_REG(RCC->CFGR, RCC_CFGR_PPRE1, RCC_HCLK_DIV16);
 8002ade:	bf1e      	ittt	ne
 8002ae0:	685a      	ldrne	r2, [r3, #4]
 8002ae2:	f442 62e0 	orrne.w	r2, r2, #1792	@ 0x700
 8002ae6:	605a      	strne	r2, [r3, #4]
    if (((RCC_ClkInitStruct->ClockType) & RCC_CLOCKTYPE_PCLK2) == RCC_CLOCKTYPE_PCLK2)
 8002ae8:	0708      	lsls	r0, r1, #28
      MODIFY_REG(RCC->CFGR, RCC_CFGR_PPRE2, (RCC_HCLK_DIV16 << 3));
 8002aea:	bf42      	ittt	mi
 8002aec:	685a      	ldrmi	r2, [r3, #4]
 8002aee:	f442 5260 	orrmi.w	r2, r2, #14336	@ 0x3800
 8002af2:	605a      	strmi	r2, [r3, #4]
    MODIFY_REG(RCC->CFGR, RCC_CFGR_HPRE, RCC_ClkInitStruct->AHBCLKDivider);
 8002af4:	685a      	ldr	r2, [r3, #4]
 8002af6:	68a0      	ldr	r0, [r4, #8]
 8002af8:	f022 02f0 	bic.w	r2, r2, #240	@ 0xf0
 8002afc:	4302      	orrs	r2, r0
 8002afe:	605a      	str	r2, [r3, #4]
 8002b00:	e7b9      	b.n	8002a76 <HAL_RCC_ClockConfig+0x22>
    if (RCC_ClkInitStruct->SYSCLKSource == RCC_SYSCLKSOURCE_HSE)
 8002b02:	6862      	ldr	r2, [r4, #4]
 8002b04:	4e1d      	ldr	r6, [pc, #116]	@ (8002b7c <HAL_RCC_ClockConfig+0x128>)
 8002b06:	2a01      	cmp	r2, #1
      if (__HAL_RCC_GET_FLAG(RCC_FLAG_HSERDY) == RESET)
 8002b08:	6833      	ldr	r3, [r6, #0]
    if (RCC_ClkInitStruct->SYSCLKSource == RCC_SYSCLKSOURCE_HSE)
 8002b0a:	d11a      	bne.n	8002b42 <HAL_RCC_ClockConfig+0xee>
      if (__HAL_RCC_GET_FLAG(RCC_FLAG_HSERDY) == RESET)
 8002b0c:	f413 3f00 	tst.w	r3, #131072	@ 0x20000
      if (__HAL_RCC_GET_FLAG(RCC_FLAG_HSIRDY) == RESET)
 8002b10:	d0a5      	beq.n	8002a5e <HAL_RCC_ClockConfig+0xa>
    __HAL_RCC_SYSCLK_CONFIG(RCC_ClkInitStruct->SYSCLKSource);
 8002b12:	6873      	ldr	r3, [r6, #4]
      if ((HAL_GetTick() - tickstart) > CLOCKSWITCH_TIMEOUT_VALUE)
 8002b14:	f241 3888 	movw	r8, #5000	@ 0x1388
    __HAL_RCC_SYSCLK_CONFIG(RCC_ClkInitStruct->SYSCLKSource);
 8002b18:	f023 0303 	bic.w	r3, r3, #3
 8002b1c:	4313      	orrs	r3, r2
 8002b1e:	6073      	str	r3, [r6, #4]
    tickstart = HAL_GetTick();
 8002b20:	f7fe fe8a 	bl	8001838 <HAL_GetTick>
 8002b24:	4607      	mov	r7, r0
    while (__HAL_RCC_GET_SYSCLK_SOURCE() != (RCC_ClkInitStruct->SYSCLKSource << RCC_CFGR_SWS_Pos))
 8002b26:	6873      	ldr	r3, [r6, #4]
 8002b28:	6862      	ldr	r2, [r4, #4]
 8002b2a:	f003 030c 	and.w	r3, r3, #12
 8002b2e:	ebb3 0f82 	cmp.w	r3, r2, lsl #2
 8002b32:	d0a2      	beq.n	8002a7a <HAL_RCC_ClockConfig+0x26>
      if ((HAL_GetTick() - tickstart) > CLOCKSWITCH_TIMEOUT_VALUE)
 8002b34:	f7fe fe80 	bl	8001838 <HAL_GetTick>
 8002b38:	1bc0      	subs	r0, r0, r7
 8002b3a:	4540      	cmp	r0, r8
 8002b3c:	d9f3      	bls.n	8002b26 <HAL_RCC_ClockConfig+0xd2>
        return HAL_TIMEOUT;
 8002b3e:	2003      	movs	r0, #3
 8002b40:	e78e      	b.n	8002a60 <HAL_RCC_ClockConfig+0xc>
    else if (RCC_ClkInitStruct->SYSCLKSource == RCC_SYSCLKSOURCE_PLLCLK)
 8002b42:	2a02      	cmp	r2, #2
 8002b44:	d102      	bne.n	8002b4c <HAL_RCC_ClockConfig+0xf8>
      if (__HAL_RCC_GET_FLAG(RCC_FLAG_PLLRDY) == RESET)
 8002b46:	f013 7f00 	tst.w	r3, #33554432	@ 0x2000000
 8002b4a:	e7e1      	b.n	8002b10 <HAL_RCC_ClockConfig+0xbc>
      if (__HAL_RCC_GET_FLAG(RCC_FLAG_HSIRDY) == RESET)
 8002b4c:	f013 0f02 	tst.w	r3, #2
 8002b50:	e7de      	b.n	8002b10 <HAL_RCC_ClockConfig+0xbc>
    __HAL_FLASH_SET_LATENCY(FLatency);
 8002b52:	6813      	ldr	r3, [r2, #0]
 8002b54:	f023 0307 	bic.w	r3, r3, #7
 8002b58:	432b      	orrs	r3, r5
 8002b5a:	6013      	str	r3, [r2, #0]
    if (__HAL_FLASH_GET_LATENCY() != FLatency)
 8002b5c:	6813      	ldr	r3, [r2, #0]
 8002b5e:	f003 0307 	and.w	r3, r3, #7
 8002b62:	42ab      	cmp	r3, r5
 8002b64:	f47f af7b 	bne.w	8002a5e <HAL_RCC_ClockConfig+0xa>
 8002b68:	e78d      	b.n	8002a86 <HAL_RCC_ClockConfig+0x32>
    MODIFY_REG(RCC->CFGR, RCC_CFGR_PPRE1, RCC_ClkInitStruct->APB1CLKDivider);
 8002b6a:	686b      	ldr	r3, [r5, #4]
 8002b6c:	68e1      	ldr	r1, [r4, #12]
 8002b6e:	f423 63e0 	bic.w	r3, r3, #1792	@ 0x700
 8002b72:	430b      	orrs	r3, r1
 8002b74:	606b      	str	r3, [r5, #4]
 8002b76:	e78b      	b.n	8002a90 <HAL_RCC_ClockConfig+0x3c>
 8002b78:	40022000 	.word	0x40022000
 8002b7c:	40021000 	.word	0x40021000
 8002b80:	080070ac 	.word	0x080070ac
 8002b84:	2000001c 	.word	0x2000001c
 8002b88:	20000024 	.word	0x20000024

08002b8c <HAL_RCC_GetPCLK1Freq>:
  return (HAL_RCC_GetHCLKFreq() >> APBPrescTable[(RCC->CFGR & RCC_CFGR_PPRE1) >> RCC_CFGR_PPRE1_Pos]);
 8002b8c:	4b04      	ldr	r3, [pc, #16]	@ (8002ba0 <HAL_RCC_GetPCLK1Freq+0x14>)
 8002b8e:	4a05      	ldr	r2, [pc, #20]	@ (8002ba4 <HAL_RCC_GetPCLK1Freq+0x18>)
 8002b90:	685b      	ldr	r3, [r3, #4]
 8002b92:	f3c3 2302 	ubfx	r3, r3, #8, #3
 8002b96:	5cd3      	ldrb	r3, [r2, r3]
 8002b98:	4a03      	ldr	r2, [pc, #12]	@ (8002ba8 <HAL_RCC_GetPCLK1Freq+0x1c>)
 8002b9a:	6810      	ldr	r0, [r2, #0]
}
 8002b9c:	40d8      	lsrs	r0, r3
 8002b9e:	4770      	bx	lr
 8002ba0:	40021000 	.word	0x40021000
 8002ba4:	080070a4 	.word	0x080070a4
 8002ba8:	2000001c 	.word	0x2000001c

08002bac <HAL_RCC_GetPCLK2Freq>:
  return (HAL_RCC_GetHCLKFreq() >> APBPrescTable[(RCC->CFGR & RCC_CFGR_PPRE2) >> RCC_CFGR_PPRE2_Pos]);
 8002bac:	4b04      	ldr	r3, [pc, #16]	@ (8002bc0 <HAL_RCC_GetPCLK2Freq+0x14>)
 8002bae:	4a05      	ldr	r2, [pc, #20]	@ (8002bc4 <HAL_RCC_GetPCLK2Freq+0x18>)
 8002bb0:	685b      	ldr	r3, [r3, #4]
 8002bb2:	f3c3 23c2 	ubfx	r3, r3, #11, #3
 8002bb6:	5cd3      	ldrb	r3, [r2, r3]
 8002bb8:	4a03      	ldr	r2, [pc, #12]	@ (8002bc8 <HAL_RCC_GetPCLK2Freq+0x1c>)
 8002bba:	6810      	ldr	r0, [r2, #0]
}
 8002bbc:	40d8      	lsrs	r0, r3
 8002bbe:	4770      	bx	lr
 8002bc0:	40021000 	.word	0x40021000
 8002bc4:	080070a4 	.word	0x080070a4
 8002bc8:	2000001c 	.word	0x2000001c

08002bcc <HAL_RCC_GetClockConfig>:
  RCC_ClkInitStruct->ClockType = RCC_CLOCKTYPE_SYSCLK | RCC_CLOCKTYPE_HCLK | RCC_CLOCKTYPE_PCLK1 | RCC_CLOCKTYPE_PCLK2;
 8002bcc:	230f      	movs	r3, #15
 8002bce:	6003      	str	r3, [r0, #0]
  RCC_ClkInitStruct->SYSCLKSource = (uint32_t)(RCC->CFGR & RCC_CFGR_SW);
 8002bd0:	4b0b      	ldr	r3, [pc, #44]	@ (8002c00 <HAL_RCC_GetClockConfig+0x34>)
 8002bd2:	685a      	ldr	r2, [r3, #4]
 8002bd4:	f002 0203 	and.w	r2, r2, #3
 8002bd8:	6042      	str	r2, [r0, #4]
  RCC_ClkInitStruct->AHBCLKDivider = (uint32_t)(RCC->CFGR & RCC_CFGR_HPRE);
 8002bda:	685a      	ldr	r2, [r3, #4]
 8002bdc:	f002 02f0 	and.w	r2, r2, #240	@ 0xf0
 8002be0:	6082      	str	r2, [r0, #8]
  RCC_ClkInitStruct->APB1CLKDivider = (uint32_t)(RCC->CFGR & RCC_CFGR_PPRE1);
 8002be2:	685a      	ldr	r2, [r3, #4]
 8002be4:	f402 62e0 	and.w	r2, r2, #1792	@ 0x700
 8002be8:	60c2      	str	r2, [r0, #12]
  RCC_ClkInitStruct->APB2CLKDivider = (uint32_t)((RCC->CFGR & RCC_CFGR_PPRE2) >> 3);
 8002bea:	685b      	ldr	r3, [r3, #4]
 8002bec:	08db      	lsrs	r3, r3, #3
 8002bee:	f403 63e0 	and.w	r3, r3, #1792	@ 0x700
 8002bf2:	6103      	str	r3, [r0, #16]
  *pFLatency = (uint32_t)(FLASH->ACR & FLASH_ACR_LATENCY);
 8002bf4:	4b03      	ldr	r3, [pc, #12]	@ (8002c04 <HAL_RCC_GetClockConfig+0x38>)
 8002bf6:	681b      	ldr	r3, [r3, #0]
 8002bf8:	f003 0307 	and.w	r3, r3, #7
 8002bfc:	600b      	str	r3, [r1, #0]
}
 8002bfe:	4770      	bx	lr
 8002c00:	40021000 	.word	0x40021000
 8002c04:	40022000 	.word	0x40022000

08002c08 <HAL_RCCEx_PeriphCLKConfig>:

  /* Check the parameters */
  assert_param(IS_RCC_PERIPHCLOCK(PeriphClkInit->PeriphClockSelection));

  /*------------------------------- RTC/LCD Configuration ------------------------*/
  if ((((PeriphClkInit->PeriphClockSelection) & RCC_PERIPHCLK_RTC) == RCC_PERIPHCLK_RTC))
 8002c08:	6803      	ldr	r3, [r0, #0]
{
 8002c0a:	e92d 41f3 	stmdb	sp!, {r0, r1, r4, r5, r6, r7, r8, lr}
 8002c0e:	4605      	mov	r5, r0
  if ((((PeriphClkInit->PeriphClockSelection) & RCC_PERIPHCLK_RTC) == RCC_PERIPHCLK_RTC))
 8002c10:	07d8      	lsls	r0, r3, #31
 8002c12:	d521      	bpl.n	8002c58 <HAL_RCCEx_PeriphCLKConfig+0x50>
    assert_param(IS_RCC_RTCCLKSOURCE(PeriphClkInit->RTCClockSelection));

    /* As soon as function is called to change RTC clock source, activation of the
       power domain is done. */
    /* Requires to enable write access to Backup Domain of necessary */
    if (__HAL_RCC_PWR_IS_CLK_DISABLED())
 8002c14:	4c36      	ldr	r4, [pc, #216]	@ (8002cf0 <HAL_RCCEx_PeriphCLKConfig+0xe8>)
 8002c16:	69e3      	ldr	r3, [r4, #28]
 8002c18:	00d9      	lsls	r1, r3, #3
 8002c1a:	d42b      	bmi.n	8002c74 <HAL_RCCEx_PeriphCLKConfig+0x6c>
    {
      __HAL_RCC_PWR_CLK_ENABLE();
      pwrclkchanged = SET;
 8002c1c:	2601      	movs	r6, #1
      __HAL_RCC_PWR_CLK_ENABLE();
 8002c1e:	69e3      	ldr	r3, [r4, #28]
 8002c20:	f043 5380 	orr.w	r3, r3, #268435456	@ 0x10000000
 8002c24:	61e3      	str	r3, [r4, #28]
 8002c26:	69e3      	ldr	r3, [r4, #28]
 8002c28:	f003 5380 	and.w	r3, r3, #268435456	@ 0x10000000
 8002c2c:	9301      	str	r3, [sp, #4]
 8002c2e:	9b01      	ldr	r3, [sp, #4]
    }

    if (HAL_IS_BIT_CLR(PWR->CR, PWR_CR_DBP))
 8002c30:	4f30      	ldr	r7, [pc, #192]	@ (8002cf4 <HAL_RCCEx_PeriphCLKConfig+0xec>)
 8002c32:	683b      	ldr	r3, [r7, #0]
 8002c34:	05da      	lsls	r2, r3, #23
 8002c36:	d51f      	bpl.n	8002c78 <HAL_RCCEx_PeriphCLKConfig+0x70>
        }
      }
    }

    /* Reset the Backup domain only if the RTC Clock source selection is modified from reset value */
    temp_reg = (RCC->BDCR & RCC_BDCR_RTCSEL);
 8002c38:	6a23      	ldr	r3, [r4, #32]
    if ((temp_reg != 0x00000000U) && (temp_reg != (PeriphClkInit->RTCClockSelection & RCC_BDCR_RTCSEL)))
 8002c3a:	686a      	ldr	r2, [r5, #4]
 8002c3c:	f413 7340 	ands.w	r3, r3, #768	@ 0x300
 8002c40:	d12e      	bne.n	8002ca0 <HAL_RCCEx_PeriphCLKConfig+0x98>
            return HAL_TIMEOUT;
          }
        }
      }
    }
    __HAL_RCC_RTC_CONFIG(PeriphClkInit->RTCClockSelection);
 8002c42:	6a23      	ldr	r3, [r4, #32]
 8002c44:	686a      	ldr	r2, [r5, #4]
 8002c46:	f423 7340 	bic.w	r3, r3, #768	@ 0x300
 8002c4a:	4313      	orrs	r3, r2
 8002c4c:	6223      	str	r3, [r4, #32]

    /* Require to disable power clock if necessary */
    if (pwrclkchanged == SET)
 8002c4e:	b11e      	cbz	r6, 8002c58 <HAL_RCCEx_PeriphCLKConfig+0x50>
    {
      __HAL_RCC_PWR_CLK_DISABLE();
 8002c50:	69e3      	ldr	r3, [r4, #28]
 8002c52:	f023 5380 	bic.w	r3, r3, #268435456	@ 0x10000000
 8002c56:	61e3      	str	r3, [r4, #28]
    }
  }

  /*------------------------------ ADC clock Configuration ------------------*/
  if (((PeriphClkInit->PeriphClockSelection) & RCC_PERIPHCLK_ADC) == RCC_PERIPHCLK_ADC)
 8002c58:	682a      	ldr	r2, [r5, #0]
 8002c5a:	0791      	lsls	r1, r2, #30
 8002c5c:	d506      	bpl.n	8002c6c <HAL_RCCEx_PeriphCLKConfig+0x64>
  {
    /* Check the parameters */
    assert_param(IS_RCC_ADCPLLCLK_DIV(PeriphClkInit->AdcClockSelection));

    /* Configure the ADC clock source */
    __HAL_RCC_ADC_CONFIG(PeriphClkInit->AdcClockSelection);
 8002c5e:	4924      	ldr	r1, [pc, #144]	@ (8002cf0 <HAL_RCCEx_PeriphCLKConfig+0xe8>)
 8002c60:	68a8      	ldr	r0, [r5, #8]
 8002c62:	684b      	ldr	r3, [r1, #4]
 8002c64:	f423 4340 	bic.w	r3, r3, #49152	@ 0xc000
 8002c68:	4303      	orrs	r3, r0
 8002c6a:	604b      	str	r3, [r1, #4]

#if defined(STM32F102x6) || defined(STM32F102xB) || defined(STM32F103x6)\
 || defined(STM32F103xB) || defined(STM32F103xE) || defined(STM32F103xG)\
 || defined(STM32F105xC) || defined(STM32F107xC)
  /*------------------------------ USB clock Configuration ------------------*/
  if (((PeriphClkInit->PeriphClockSelection) & RCC_PERIPHCLK_USB) == RCC_PERIPHCLK_USB)
 8002c6c:	06d3      	lsls	r3, r2, #27
 8002c6e:	d436      	bmi.n	8002cde <HAL_RCCEx_PeriphCLKConfig+0xd6>
    /* Configure the USB clock source */
    __HAL_RCC_USB_CONFIG(PeriphClkInit->UsbClockSelection);
  }
#endif /* STM32F102x6 || STM32F102xB || STM32F103x6 || STM32F103xB || STM32F103xE || STM32F103xG || STM32F105xC || STM32F107xC */

  return HAL_OK;
 8002c70:	2000      	movs	r0, #0
 8002c72:	e012      	b.n	8002c9a <HAL_RCCEx_PeriphCLKConfig+0x92>
    FlagStatus pwrclkchanged = RESET;
 8002c74:	2600      	movs	r6, #0
 8002c76:	e7db      	b.n	8002c30 <HAL_RCCEx_PeriphCLKConfig+0x28>
      SET_BIT(PWR->CR, PWR_CR_DBP);
 8002c78:	683b      	ldr	r3, [r7, #0]
 8002c7a:	f443 7380 	orr.w	r3, r3, #256	@ 0x100
 8002c7e:	603b      	str	r3, [r7, #0]
      tickstart = HAL_GetTick();
 8002c80:	f7fe fdda 	bl	8001838 <HAL_GetTick>
 8002c84:	4680      	mov	r8, r0
      while (HAL_IS_BIT_CLR(PWR->CR, PWR_CR_DBP))
 8002c86:	683b      	ldr	r3, [r7, #0]
 8002c88:	05db      	lsls	r3, r3, #23
 8002c8a:	d4d5      	bmi.n	8002c38 <HAL_RCCEx_PeriphCLKConfig+0x30>
        if ((HAL_GetTick() - tickstart) > RCC_DBP_TIMEOUT_VALUE)
 8002c8c:	f7fe fdd4 	bl	8001838 <HAL_GetTick>
 8002c90:	eba0 0008 	sub.w	r0, r0, r8
 8002c94:	2864      	cmp	r0, #100	@ 0x64
 8002c96:	d9f6      	bls.n	8002c86 <HAL_RCCEx_PeriphCLKConfig+0x7e>
          return HAL_TIMEOUT;
 8002c98:	2003      	movs	r0, #3
}
 8002c9a:	b002      	add	sp, #8
 8002c9c:	e8bd 81f0 	ldmia.w	sp!, {r4, r5, r6, r7, r8, pc}
    if ((temp_reg != 0x00000000U) && (temp_reg != (PeriphClkInit->RTCClockSelection & RCC_BDCR_RTCSEL)))
 8002ca0:	f402 7240 	and.w	r2, r2, #768	@ 0x300
 8002ca4:	429a      	cmp	r2, r3
 8002ca6:	d0cc      	beq.n	8002c42 <HAL_RCCEx_PeriphCLKConfig+0x3a>
      __HAL_RCC_BACKUPRESET_FORCE();
 8002ca8:	2001      	movs	r0, #1
 8002caa:	4a13      	ldr	r2, [pc, #76]	@ (8002cf8 <HAL_RCCEx_PeriphCLKConfig+0xf0>)
      temp_reg = (RCC->BDCR & ~(RCC_BDCR_RTCSEL));
 8002cac:	6a23      	ldr	r3, [r4, #32]
      __HAL_RCC_BACKUPRESET_FORCE();
 8002cae:	f8c2 0440 	str.w	r0, [r2, #1088]	@ 0x440
      __HAL_RCC_BACKUPRESET_RELEASE();
 8002cb2:	2000      	movs	r0, #0
      temp_reg = (RCC->BDCR & ~(RCC_BDCR_RTCSEL));
 8002cb4:	f423 7140 	bic.w	r1, r3, #768	@ 0x300
      if (HAL_IS_BIT_SET(temp_reg, RCC_BDCR_LSEON))
 8002cb8:	07df      	lsls	r7, r3, #31
      __HAL_RCC_BACKUPRESET_RELEASE();
 8002cba:	f8c2 0440 	str.w	r0, [r2, #1088]	@ 0x440
      RCC->BDCR = temp_reg;
 8002cbe:	6221      	str	r1, [r4, #32]
      if (HAL_IS_BIT_SET(temp_reg, RCC_BDCR_LSEON))
 8002cc0:	d5bf      	bpl.n	8002c42 <HAL_RCCEx_PeriphCLKConfig+0x3a>
        tickstart = HAL_GetTick();
 8002cc2:	f7fe fdb9 	bl	8001838 <HAL_GetTick>
          if ((HAL_GetTick() - tickstart) > RCC_LSE_TIMEOUT_VALUE)
 8002cc6:	f241 3888 	movw	r8, #5000	@ 0x1388
        tickstart = HAL_GetTick();
 8002cca:	4607      	mov	r7, r0
        while (__HAL_RCC_GET_FLAG(RCC_FLAG_LSERDY) == RESET)
 8002ccc:	6a23      	ldr	r3, [r4, #32]
 8002cce:	0798      	lsls	r0, r3, #30
 8002cd0:	d4b7      	bmi.n	8002c42 <HAL_RCCEx_PeriphCLKConfig+0x3a>
          if ((HAL_GetTick() - tickstart) > RCC_LSE_TIMEOUT_VALUE)
 8002cd2:	f7fe fdb1 	bl	8001838 <HAL_GetTick>
 8002cd6:	1bc0      	subs	r0, r0, r7
 8002cd8:	4540      	cmp	r0, r8
 8002cda:	d9f7      	bls.n	8002ccc <HAL_RCCEx_PeriphCLKConfig+0xc4>
 8002cdc:	e7dc      	b.n	8002c98 <HAL_RCCEx_PeriphCLKConfig+0x90>
    __HAL_RCC_USB_CONFIG(PeriphClkInit->UsbClockSelection);
 8002cde:	4a04      	ldr	r2, [pc, #16]	@ (8002cf0 <HAL_RCCEx_PeriphCLKConfig+0xe8>)
 8002ce0:	68e9      	ldr	r1, [r5, #12]
 8002ce2:	6853      	ldr	r3, [r2, #4]
 8002ce4:	f423 0380 	bic.w	r3, r3, #4194304	@ 0x400000
 8002ce8:	430b      	orrs	r3, r1
 8002cea:	6053      	str	r3, [r2, #4]
 8002cec:	e7c0      	b.n	8002c70 <HAL_RCCEx_PeriphCLKConfig+0x68>
 8002cee:	bf00      	nop
 8002cf0:	40021000 	.word	0x40021000
 8002cf4:	40007000 	.word	0x40007000
 8002cf8:	42420000 	.word	0x42420000

08002cfc <HAL_RCCEx_GetPeriphCLKFreq>:
  uint32_t temp_reg = 0U, frequency = 0U;

  /* Check the parameters */
  assert_param(IS_RCC_PERIPHCLOCK(PeriphClk));

  switch (PeriphClk)
 8002cfc:	2802      	cmp	r0, #2
{
 8002cfe:	b508      	push	{r3, lr}
  switch (PeriphClk)
 8002d00:	d044      	beq.n	8002d8c <HAL_RCCEx_GetPeriphCLKFreq+0x90>
 8002d02:	2810      	cmp	r0, #16
 8002d04:	d003      	beq.n	8002d0e <HAL_RCCEx_GetPeriphCLKFreq+0x12>
 8002d06:	2801      	cmp	r0, #1
 8002d08:	d022      	beq.n	8002d50 <HAL_RCCEx_GetPeriphCLKFreq+0x54>
  uint32_t temp_reg = 0U, frequency = 0U;
 8002d0a:	2000      	movs	r0, #0
    default:
    {
      break;
    }
  }
  return (frequency);
 8002d0c:	e034      	b.n	8002d78 <HAL_RCCEx_GetPeriphCLKFreq+0x7c>
      temp_reg = RCC->CFGR;
 8002d0e:	4b25      	ldr	r3, [pc, #148]	@ (8002da4 <HAL_RCCEx_GetPeriphCLKFreq+0xa8>)
 8002d10:	685a      	ldr	r2, [r3, #4]
      if (HAL_IS_BIT_SET(RCC->CR, RCC_CR_PLLON))
 8002d12:	6818      	ldr	r0, [r3, #0]
 8002d14:	f010 7080 	ands.w	r0, r0, #16777216	@ 0x1000000
 8002d18:	d02e      	beq.n	8002d78 <HAL_RCCEx_GetPeriphCLKFreq+0x7c>
        pllmul = aPLLMULFactorTable[(uint32_t)(temp_reg & RCC_CFGR_PLLMULL) >> RCC_CFGR_PLLMULL_Pos];
 8002d1a:	f3c2 4183 	ubfx	r1, r2, #18, #4
 8002d1e:	4822      	ldr	r0, [pc, #136]	@ (8002da8 <HAL_RCCEx_GetPeriphCLKFreq+0xac>)
        if ((temp_reg & RCC_CFGR_PLLSRC) != RCC_PLLSOURCE_HSI_DIV2)
 8002d20:	03d2      	lsls	r2, r2, #15
          prediv1 = aPredivFactorTable[(uint32_t)(RCC->CFGR & RCC_CFGR_PLLXTPRE) >> RCC_CFGR_PLLXTPRE_Pos];
 8002d22:	bf48      	it	mi
 8002d24:	685a      	ldrmi	r2, [r3, #4]
        pllmul = aPLLMULFactorTable[(uint32_t)(temp_reg & RCC_CFGR_PLLMULL) >> RCC_CFGR_PLLMULL_Pos];
 8002d26:	5c40      	ldrb	r0, [r0, r1]
          prediv1 = aPredivFactorTable[(uint32_t)(RCC->CFGR & RCC_CFGR_PLLXTPRE) >> RCC_CFGR_PLLXTPRE_Pos];
 8002d28:	bf41      	itttt	mi
 8002d2a:	4920      	ldrmi	r1, [pc, #128]	@ (8002dac <HAL_RCCEx_GetPeriphCLKFreq+0xb0>)
 8002d2c:	f3c2 4240 	ubfxmi	r2, r2, #17, #1
 8002d30:	5c89      	ldrbmi	r1, [r1, r2]
            pllclk = (uint32_t)((HSE_VALUE / prediv1) * pllmul);
 8002d32:	4a1f      	ldrmi	r2, [pc, #124]	@ (8002db0 <HAL_RCCEx_GetPeriphCLKFreq+0xb4>)
        if (__HAL_RCC_GET_USB_SOURCE() == RCC_USBCLKSOURCE_PLL)
 8002d34:	685b      	ldr	r3, [r3, #4]
            pllclk = (uint32_t)((HSE_VALUE / prediv1) * pllmul);
 8002d36:	bf4c      	ite	mi
 8002d38:	fbb2 f2f1 	udivmi	r2, r2, r1
          pllclk = (uint32_t)((HSI_VALUE >> 1) * pllmul);
 8002d3c:	4a1d      	ldrpl	r2, [pc, #116]	@ (8002db4 <HAL_RCCEx_GetPeriphCLKFreq+0xb8>)
        if (__HAL_RCC_GET_USB_SOURCE() == RCC_USBCLKSOURCE_PLL)
 8002d3e:	025b      	lsls	r3, r3, #9
          pllclk = (uint32_t)((HSI_VALUE >> 1) * pllmul);
 8002d40:	fb02 f000 	mul.w	r0, r2, r0
        if (__HAL_RCC_GET_USB_SOURCE() == RCC_USBCLKSOURCE_PLL)
 8002d44:	d418      	bmi.n	8002d78 <HAL_RCCEx_GetPeriphCLKFreq+0x7c>
          frequency = (pllclk * 2) / 3;
 8002d46:	2303      	movs	r3, #3
 8002d48:	0040      	lsls	r0, r0, #1
      frequency = HAL_RCC_GetPCLK2Freq() / (((__HAL_RCC_GET_ADC_SOURCE() >> RCC_CFGR_ADCPRE_Pos) + 1) * 2);
 8002d4a:	fbb0 f0f3 	udiv	r0, r0, r3
      break;
 8002d4e:	e013      	b.n	8002d78 <HAL_RCCEx_GetPeriphCLKFreq+0x7c>
      if (((temp_reg & RCC_BDCR_RTCSEL) == RCC_RTCCLKSOURCE_LSE) && (HAL_IS_BIT_SET(temp_reg, RCC_BDCR_LSERDY)))
 8002d50:	f240 3102 	movw	r1, #770	@ 0x302
      temp_reg = RCC->BDCR;
 8002d54:	4a13      	ldr	r2, [pc, #76]	@ (8002da4 <HAL_RCCEx_GetPeriphCLKFreq+0xa8>)
 8002d56:	6a13      	ldr	r3, [r2, #32]
      if (((temp_reg & RCC_BDCR_RTCSEL) == RCC_RTCCLKSOURCE_LSE) && (HAL_IS_BIT_SET(temp_reg, RCC_BDCR_LSERDY)))
 8002d58:	4019      	ands	r1, r3
 8002d5a:	f5b1 7f81 	cmp.w	r1, #258	@ 0x102
 8002d5e:	d01e      	beq.n	8002d9e <HAL_RCCEx_GetPeriphCLKFreq+0xa2>
      else if (((temp_reg & RCC_BDCR_RTCSEL) == RCC_RTCCLKSOURCE_LSI) && (HAL_IS_BIT_SET(RCC->CSR, RCC_CSR_LSIRDY)))
 8002d60:	f403 7340 	and.w	r3, r3, #768	@ 0x300
 8002d64:	f5b3 7f00 	cmp.w	r3, #512	@ 0x200
 8002d68:	d107      	bne.n	8002d7a <HAL_RCCEx_GetPeriphCLKFreq+0x7e>
        frequency = LSI_VALUE;
 8002d6a:	f649 4340 	movw	r3, #40000	@ 0x9c40
      else if (((temp_reg & RCC_BDCR_RTCSEL) == RCC_RTCCLKSOURCE_LSI) && (HAL_IS_BIT_SET(RCC->CSR, RCC_CSR_LSIRDY)))
 8002d6e:	6a50      	ldr	r0, [r2, #36]	@ 0x24
        frequency = LSI_VALUE;
 8002d70:	f010 0002 	ands.w	r0, r0, #2
        frequency = HSE_VALUE / 128U;
 8002d74:	bf18      	it	ne
 8002d76:	4618      	movne	r0, r3
}
 8002d78:	bd08      	pop	{r3, pc}
      else if (((temp_reg & RCC_BDCR_RTCSEL) == RCC_RTCCLKSOURCE_HSE_DIV128) && (HAL_IS_BIT_SET(RCC->CR, RCC_CR_HSERDY)))
 8002d7a:	f5b3 7f40 	cmp.w	r3, #768	@ 0x300
 8002d7e:	d1c4      	bne.n	8002d0a <HAL_RCCEx_GetPeriphCLKFreq+0xe>
 8002d80:	6810      	ldr	r0, [r2, #0]
        frequency = HSE_VALUE / 128U;
 8002d82:	f24f 4324 	movw	r3, #62500	@ 0xf424
 8002d86:	f410 3000 	ands.w	r0, r0, #131072	@ 0x20000
 8002d8a:	e7f3      	b.n	8002d74 <HAL_RCCEx_GetPeriphCLKFreq+0x78>
      frequency = HAL_RCC_GetPCLK2Freq() / (((__HAL_RCC_GET_ADC_SOURCE() >> RCC_CFGR_ADCPRE_Pos) + 1) * 2);
 8002d8c:	f7ff ff0e 	bl	8002bac <HAL_RCC_GetPCLK2Freq>
 8002d90:	4b04      	ldr	r3, [pc, #16]	@ (8002da4 <HAL_RCCEx_GetPeriphCLKFreq+0xa8>)
 8002d92:	685b      	ldr	r3, [r3, #4]
 8002d94:	f3c3 3381 	ubfx	r3, r3, #14, #2
 8002d98:	3301      	adds	r3, #1
 8002d9a:	005b      	lsls	r3, r3, #1
 8002d9c:	e7d5      	b.n	8002d4a <HAL_RCCEx_GetPeriphCLKFreq+0x4e>
        frequency = LSE_VALUE;
 8002d9e:	f44f 4000 	mov.w	r0, #32768	@ 0x8000
 8002da2:	e7e9      	b.n	8002d78 <HAL_RCCEx_GetPeriphCLKFreq+0x7c>
 8002da4:	40021000 	.word	0x40021000
 8002da8:	080070d0 	.word	0x080070d0
 8002dac:	080070ce 	.word	0x080070ce
 8002db0:	007a1200 	.word	0x007a1200
 8002db4:	003d0900 	.word	0x003d0900

08002db8 <TIM_OC1_SetConfig>:
  uint32_t tmpccmrx;
  uint32_t tmpccer;
  uint32_t tmpcr2;

  /* Get the TIMx CCER register value */
  tmpccer = TIMx->CCER;
 8002db8:	6a03      	ldr	r3, [r0, #32]

  /* Disable the Channel 1: Reset the CC1E Bit */
  TIMx->CCER &= ~TIM_CCER_CC1E;
 8002dba:	6a02      	ldr	r2, [r0, #32]
{
 8002dbc:	b570      	push	{r4, r5, r6, lr}
  TIMx->CCER &= ~TIM_CCER_CC1E;
 8002dbe:	f022 0201 	bic.w	r2, r2, #1
 8002dc2:	6202      	str	r2, [r0, #32]

  /* Get the TIMx CR2 register value */
  tmpcr2 =  TIMx->CR2;
 8002dc4:	6844      	ldr	r4, [r0, #4]

  /* Get the TIMx CCMR1 register value */
  tmpccmrx = TIMx->CCMR1;
 8002dc6:	6982      	ldr	r2, [r0, #24]

  /* Reset the Output Compare Mode Bits */
  tmpccmrx &= ~TIM_CCMR1_OC1M;
  tmpccmrx &= ~TIM_CCMR1_CC1S;
  /* Select the Output Compare Mode */
  tmpccmrx |= OC_Config->OCMode;
 8002dc8:	680d      	ldr	r5, [r1, #0]
  tmpccmrx &= ~TIM_CCMR1_CC1S;
 8002dca:	f022 0273 	bic.w	r2, r2, #115	@ 0x73
  tmpccmrx |= OC_Config->OCMode;
 8002dce:	432a      	orrs	r2, r5

  /* Reset the Output Polarity level */
  tmpccer &= ~TIM_CCER_CC1P;
  /* Set the Output Compare Polarity */
  tmpccer |= OC_Config->OCPolarity;
 8002dd0:	688d      	ldr	r5, [r1, #8]
  tmpccer &= ~TIM_CCER_CC1P;
 8002dd2:	f023 0302 	bic.w	r3, r3, #2
  tmpccer |= OC_Config->OCPolarity;
 8002dd6:	432b      	orrs	r3, r5

  if (IS_TIM_CCXN_INSTANCE(TIMx, TIM_CHANNEL_1))
 8002dd8:	4d0a      	ldr	r5, [pc, #40]	@ (8002e04 <TIM_OC1_SetConfig+0x4c>)
 8002dda:	42a8      	cmp	r0, r5
 8002ddc:	d10b      	bne.n	8002df6 <TIM_OC1_SetConfig+0x3e>
    assert_param(IS_TIM_OCN_POLARITY(OC_Config->OCNPolarity));

    /* Reset the Output N Polarity level */
    tmpccer &= ~TIM_CCER_CC1NP;
    /* Set the Output N Polarity */
    tmpccer |= OC_Config->OCNPolarity;
 8002dde:	68cd      	ldr	r5, [r1, #12]
    tmpccer &= ~TIM_CCER_CC1NP;
 8002de0:	f023 0308 	bic.w	r3, r3, #8
    tmpccer |= OC_Config->OCNPolarity;
 8002de4:	432b      	orrs	r3, r5
    assert_param(IS_TIM_OCNIDLE_STATE(OC_Config->OCNIdleState));
    assert_param(IS_TIM_OCIDLE_STATE(OC_Config->OCIdleState));

    /* Reset the Output Compare and Output Compare N IDLE State */
    tmpcr2 &= ~TIM_CR2_OIS1;
    tmpcr2 &= ~TIM_CR2_OIS1N;
 8002de6:	f424 7440 	bic.w	r4, r4, #768	@ 0x300
    /* Set the Output Idle state */
    tmpcr2 |= OC_Config->OCIdleState;
    /* Set the Output N Idle state */
    tmpcr2 |= OC_Config->OCNIdleState;
 8002dea:	e9d1 5605 	ldrd	r5, r6, [r1, #20]
 8002dee:	4335      	orrs	r5, r6
    tmpccer &= ~TIM_CCER_CC1NE;
 8002df0:	f023 0304 	bic.w	r3, r3, #4
    tmpcr2 |= OC_Config->OCNIdleState;
 8002df4:	432c      	orrs	r4, r5
  }

  /* Write to TIMx CR2 */
  TIMx->CR2 = tmpcr2;
 8002df6:	6044      	str	r4, [r0, #4]

  /* Write to TIMx CCMR1 */
  TIMx->CCMR1 = tmpccmrx;
 8002df8:	6182      	str	r2, [r0, #24]

  /* Set the Capture Compare Register value */
  TIMx->CCR1 = OC_Config->Pulse;
 8002dfa:	684a      	ldr	r2, [r1, #4]
 8002dfc:	6342      	str	r2, [r0, #52]	@ 0x34

  /* Write to TIMx CCER */
  TIMx->CCER = tmpccer;
 8002dfe:	6203      	str	r3, [r0, #32]
}
 8002e00:	bd70      	pop	{r4, r5, r6, pc}
 8002e02:	bf00      	nop
 8002e04:	40012c00 	.word	0x40012c00

08002e08 <TIM_OC3_SetConfig>:
  uint32_t tmpccmrx;
  uint32_t tmpccer;
  uint32_t tmpcr2;

  /* Get the TIMx CCER register value */
  tmpccer = TIMx->CCER;
 8002e08:	6a03      	ldr	r3, [r0, #32]

  /* Disable the Channel 3: Reset the CC2E Bit */
  TIMx->CCER &= ~TIM_CCER_CC3E;
 8002e0a:	6a02      	ldr	r2, [r0, #32]
{
 8002e0c:	b570      	push	{r4, r5, r6, lr}
  TIMx->CCER &= ~TIM_CCER_CC3E;
 8002e0e:	f422 7280 	bic.w	r2, r2, #256	@ 0x100
 8002e12:	6202      	str	r2, [r0, #32]

  /* Get the TIMx CR2 register value */
  tmpcr2 =  TIMx->CR2;
 8002e14:	6844      	ldr	r4, [r0, #4]

  /* Get the TIMx CCMR2 register value */
  tmpccmrx = TIMx->CCMR2;
 8002e16:	69c2      	ldr	r2, [r0, #28]

  /* Reset the Output Compare mode and Capture/Compare selection Bits */
  tmpccmrx &= ~TIM_CCMR2_OC3M;
  tmpccmrx &= ~TIM_CCMR2_CC3S;
  /* Select the Output Compare Mode */
  tmpccmrx |= OC_Config->OCMode;
 8002e18:	680d      	ldr	r5, [r1, #0]
  tmpccmrx &= ~TIM_CCMR2_CC3S;
 8002e1a:	f022 0273 	bic.w	r2, r2, #115	@ 0x73
  tmpccmrx |= OC_Config->OCMode;
 8002e1e:	432a      	orrs	r2, r5

  /* Reset the Output Polarity level */
  tmpccer &= ~TIM_CCER_CC3P;
  /* Set the Output Compare Polarity */
  tmpccer |= (OC_Config->OCPolarity << 8U);
 8002e20:	688d      	ldr	r5, [r1, #8]
  tmpccer &= ~TIM_CCER_CC3P;
 8002e22:	f423 7300 	bic.w	r3, r3, #512	@ 0x200
  tmpccer |= (OC_Config->OCPolarity << 8U);
 8002e26:	ea43 2305 	orr.w	r3, r3, r5, lsl #8

  if (IS_TIM_CCXN_INSTANCE(TIMx, TIM_CHANNEL_3))
 8002e2a:	4d0b      	ldr	r5, [pc, #44]	@ (8002e58 <TIM_OC3_SetConfig+0x50>)
 8002e2c:	42a8      	cmp	r0, r5
 8002e2e:	d10d      	bne.n	8002e4c <TIM_OC3_SetConfig+0x44>
    assert_param(IS_TIM_OCN_POLARITY(OC_Config->OCNPolarity));

    /* Reset the Output N Polarity level */
    tmpccer &= ~TIM_CCER_CC3NP;
    /* Set the Output N Polarity */
    tmpccer |= (OC_Config->OCNPolarity << 8U);
 8002e30:	68cd      	ldr	r5, [r1, #12]
    tmpccer &= ~TIM_CCER_CC3NP;
 8002e32:	f423 6300 	bic.w	r3, r3, #2048	@ 0x800
    tmpccer |= (OC_Config->OCNPolarity << 8U);
 8002e36:	ea43 2305 	orr.w	r3, r3, r5, lsl #8
    assert_param(IS_TIM_OCNIDLE_STATE(OC_Config->OCNIdleState));
    assert_param(IS_TIM_OCIDLE_STATE(OC_Config->OCIdleState));

    /* Reset the Output Compare and Output Compare N IDLE State */
    tmpcr2 &= ~TIM_CR2_OIS3;
    tmpcr2 &= ~TIM_CR2_OIS3N;
 8002e3a:	f424 5440 	bic.w	r4, r4, #12288	@ 0x3000
    /* Set the Output Idle state */
    tmpcr2 |= (OC_Config->OCIdleState << 4U);
    /* Set the Output N Idle state */
    tmpcr2 |= (OC_Config->OCNIdleState << 4U);
 8002e3e:	e9d1 5605 	ldrd	r5, r6, [r1, #20]
 8002e42:	4335      	orrs	r5, r6
    tmpccer &= ~TIM_CCER_CC3NE;
 8002e44:	f423 6380 	bic.w	r3, r3, #1024	@ 0x400
    tmpcr2 |= (OC_Config->OCNIdleState << 4U);
 8002e48:	ea44 1405 	orr.w	r4, r4, r5, lsl #4
  }

  /* Write to TIMx CR2 */
  TIMx->CR2 = tmpcr2;
 8002e4c:	6044      	str	r4, [r0, #4]

  /* Write to TIMx CCMR2 */
  TIMx->CCMR2 = tmpccmrx;
 8002e4e:	61c2      	str	r2, [r0, #28]

  /* Set the Capture Compare Register value */
  TIMx->CCR3 = OC_Config->Pulse;
 8002e50:	684a      	ldr	r2, [r1, #4]
 8002e52:	63c2      	str	r2, [r0, #60]	@ 0x3c

  /* Write to TIMx CCER */
  TIMx->CCER = tmpccer;
 8002e54:	6203      	str	r3, [r0, #32]
}
 8002e56:	bd70      	pop	{r4, r5, r6, pc}
 8002e58:	40012c00 	.word	0x40012c00

08002e5c <TIM_OC4_SetConfig>:
  uint32_t tmpccmrx;
  uint32_t tmpccer;
  uint32_t tmpcr2;

  /* Get the TIMx CCER register value */
  tmpccer = TIMx->CCER;
 8002e5c:	6a03      	ldr	r3, [r0, #32]

  /* Disable the Channel 4: Reset the CC4E Bit */
  TIMx->CCER &= ~TIM_CCER_CC4E;
 8002e5e:	6a02      	ldr	r2, [r0, #32]
{
 8002e60:	b530      	push	{r4, r5, lr}
  TIMx->CCER &= ~TIM_CCER_CC4E;
 8002e62:	f422 5280 	bic.w	r2, r2, #4096	@ 0x1000
 8002e66:	6202      	str	r2, [r0, #32]

  /* Get the TIMx CR2 register value */
  tmpcr2 =  TIMx->CR2;
 8002e68:	6844      	ldr	r4, [r0, #4]

  /* Get the TIMx CCMR2 register value */
  tmpccmrx = TIMx->CCMR2;
 8002e6a:	69c2      	ldr	r2, [r0, #28]
  /* Reset the Output Compare mode and Capture/Compare selection Bits */
  tmpccmrx &= ~TIM_CCMR2_OC4M;
  tmpccmrx &= ~TIM_CCMR2_CC4S;

  /* Select the Output Compare Mode */
  tmpccmrx |= (OC_Config->OCMode << 8U);
 8002e6c:	680d      	ldr	r5, [r1, #0]
  tmpccmrx &= ~TIM_CCMR2_CC4S;
 8002e6e:	f422 42e6 	bic.w	r2, r2, #29440	@ 0x7300
  tmpccmrx |= (OC_Config->OCMode << 8U);
 8002e72:	ea42 2205 	orr.w	r2, r2, r5, lsl #8

  /* Reset the Output Polarity level */
  tmpccer &= ~TIM_CCER_CC4P;
  /* Set the Output Compare Polarity */
  tmpccer |= (OC_Config->OCPolarity << 12U);
 8002e76:	688d      	ldr	r5, [r1, #8]
  tmpccer &= ~TIM_CCER_CC4P;
 8002e78:	f423 5300 	bic.w	r3, r3, #8192	@ 0x2000
  tmpccer |= (OC_Config->OCPolarity << 12U);
 8002e7c:	ea43 3305 	orr.w	r3, r3, r5, lsl #12

  if (IS_TIM_BREAK_INSTANCE(TIMx))
 8002e80:	4d06      	ldr	r5, [pc, #24]	@ (8002e9c <TIM_OC4_SetConfig+0x40>)
 8002e82:	42a8      	cmp	r0, r5

    /* Reset the Output Compare IDLE State */
    tmpcr2 &= ~TIM_CR2_OIS4;

    /* Set the Output Idle state */
    tmpcr2 |= (OC_Config->OCIdleState << 6U);
 8002e84:	bf02      	ittt	eq
 8002e86:	694d      	ldreq	r5, [r1, #20]
    tmpcr2 &= ~TIM_CR2_OIS4;
 8002e88:	f424 4480 	biceq.w	r4, r4, #16384	@ 0x4000
    tmpcr2 |= (OC_Config->OCIdleState << 6U);
 8002e8c:	ea44 1485 	orreq.w	r4, r4, r5, lsl #6
  }

  /* Write to TIMx CR2 */
  TIMx->CR2 = tmpcr2;
 8002e90:	6044      	str	r4, [r0, #4]

  /* Write to TIMx CCMR2 */
  TIMx->CCMR2 = tmpccmrx;
 8002e92:	61c2      	str	r2, [r0, #28]

  /* Set the Capture Compare Register value */
  TIMx->CCR4 = OC_Config->Pulse;
 8002e94:	684a      	ldr	r2, [r1, #4]
 8002e96:	6402      	str	r2, [r0, #64]	@ 0x40

  /* Write to TIMx CCER */
  TIMx->CCER = tmpccer;
 8002e98:	6203      	str	r3, [r0, #32]
}
 8002e9a:	bd30      	pop	{r4, r5, pc}
 8002e9c:	40012c00 	.word	0x40012c00

08002ea0 <HAL_TIM_Base_Start_IT>:
  if (htim->State != HAL_TIM_STATE_READY)
 8002ea0:	f890 303d 	ldrb.w	r3, [r0, #61]	@ 0x3d
 8002ea4:	2b01      	cmp	r3, #1
 8002ea6:	d11c      	bne.n	8002ee2 <HAL_TIM_Base_Start_IT+0x42>
  htim->State = HAL_TIM_STATE_BUSY;
 8002ea8:	2302      	movs	r3, #2
 8002eaa:	f880 303d 	strb.w	r3, [r0, #61]	@ 0x3d
  __HAL_TIM_ENABLE_IT(htim, TIM_IT_UPDATE);
 8002eae:	6803      	ldr	r3, [r0, #0]
 8002eb0:	68da      	ldr	r2, [r3, #12]
 8002eb2:	f042 0201 	orr.w	r2, r2, #1
 8002eb6:	60da      	str	r2, [r3, #12]
  if (IS_TIM_SLAVE_INSTANCE(htim->Instance))
 8002eb8:	4a0b      	ldr	r2, [pc, #44]	@ (8002ee8 <HAL_TIM_Base_Start_IT+0x48>)
 8002eba:	4293      	cmp	r3, r2
 8002ebc:	d006      	beq.n	8002ecc <HAL_TIM_Base_Start_IT+0x2c>
 8002ebe:	f1b3 4f80 	cmp.w	r3, #1073741824	@ 0x40000000
 8002ec2:	d003      	beq.n	8002ecc <HAL_TIM_Base_Start_IT+0x2c>
 8002ec4:	f5a2 3294 	sub.w	r2, r2, #75776	@ 0x12800
 8002ec8:	4293      	cmp	r3, r2
 8002eca:	d104      	bne.n	8002ed6 <HAL_TIM_Base_Start_IT+0x36>
    tmpsmcr = htim->Instance->SMCR & TIM_SMCR_SMS;
 8002ecc:	689a      	ldr	r2, [r3, #8]
 8002ece:	f002 0207 	and.w	r2, r2, #7
    if (!IS_TIM_SLAVEMODE_TRIGGER_ENABLED(tmpsmcr))
 8002ed2:	2a06      	cmp	r2, #6
 8002ed4:	d003      	beq.n	8002ede <HAL_TIM_Base_Start_IT+0x3e>
      __HAL_TIM_ENABLE(htim);
 8002ed6:	681a      	ldr	r2, [r3, #0]
 8002ed8:	f042 0201 	orr.w	r2, r2, #1
 8002edc:	601a      	str	r2, [r3, #0]
  return HAL_OK;
 8002ede:	2000      	movs	r0, #0
 8002ee0:	4770      	bx	lr
    return HAL_ERROR;
 8002ee2:	2001      	movs	r0, #1
}
 8002ee4:	4770      	bx	lr
 8002ee6:	bf00      	nop
 8002ee8:	40012c00 	.word	0x40012c00

08002eec <HAL_TIM_PWM_MspInit>:
__weak void HAL_TIM_PWM_MspInit(TIM_HandleTypeDef *htim)
 8002eec:	4770      	bx	lr

08002eee <HAL_TIM_OC_DelayElapsedCallback>:
__weak void HAL_TIM_OC_DelayElapsedCallback(TIM_HandleTypeDef *htim)
 8002eee:	4770      	bx	lr

08002ef0 <HAL_TIM_IC_CaptureCallback>:
__weak void HAL_TIM_IC_CaptureCallback(TIM_HandleTypeDef *htim)
 8002ef0:	4770      	bx	lr

08002ef2 <HAL_TIM_PWM_PulseFinishedCallback>:
__weak void HAL_TIM_PWM_PulseFinishedCallback(TIM_HandleTypeDef *htim)
 8002ef2:	4770      	bx	lr

08002ef4 <HAL_TIM_TriggerCallback>:
__weak void HAL_TIM_TriggerCallback(TIM_HandleTypeDef *htim)
 8002ef4:	4770      	bx	lr

08002ef6 <HAL_TIM_IRQHandler>:
  uint32_t itsource = htim->Instance->DIER;
 8002ef6:	6803      	ldr	r3, [r0, #0]
{
 8002ef8:	b570      	push	{r4, r5, r6, lr}
  uint32_t itsource = htim->Instance->DIER;
 8002efa:	68dd      	ldr	r5, [r3, #12]
  uint32_t itflag   = htim->Instance->SR;
 8002efc:	691e      	ldr	r6, [r3, #16]
{
 8002efe:	4604      	mov	r4, r0
  if ((itflag & (TIM_FLAG_CC1)) == (TIM_FLAG_CC1))
 8002f00:	07b1      	lsls	r1, r6, #30
 8002f02:	d50d      	bpl.n	8002f20 <HAL_TIM_IRQHandler+0x2a>
    if ((itsource & (TIM_IT_CC1)) == (TIM_IT_CC1))
 8002f04:	07aa      	lsls	r2, r5, #30
 8002f06:	d50b      	bpl.n	8002f20 <HAL_TIM_IRQHandler+0x2a>
        __HAL_TIM_CLEAR_FLAG(htim, TIM_FLAG_CC1);
 8002f08:	f06f 0202 	mvn.w	r2, #2
 8002f0c:	611a      	str	r2, [r3, #16]
        htim->Channel = HAL_TIM_ACTIVE_CHANNEL_1;
 8002f0e:	2201      	movs	r2, #1
 8002f10:	7702      	strb	r2, [r0, #28]
        if ((htim->Instance->CCMR1 & TIM_CCMR1_CC1S) != 0x00U)
 8002f12:	699b      	ldr	r3, [r3, #24]
 8002f14:	079b      	lsls	r3, r3, #30
 8002f16:	d069      	beq.n	8002fec <HAL_TIM_IRQHandler+0xf6>
          HAL_TIM_IC_CaptureCallback(htim);
 8002f18:	f7ff ffea 	bl	8002ef0 <HAL_TIM_IC_CaptureCallback>
        htim->Channel = HAL_TIM_ACTIVE_CHANNEL_CLEARED;
 8002f1c:	2300      	movs	r3, #0
 8002f1e:	7723      	strb	r3, [r4, #28]
  if ((itflag & (TIM_FLAG_CC2)) == (TIM_FLAG_CC2))
 8002f20:	0771      	lsls	r1, r6, #29
 8002f22:	d510      	bpl.n	8002f46 <HAL_TIM_IRQHandler+0x50>
    if ((itsource & (TIM_IT_CC2)) == (TIM_IT_CC2))
 8002f24:	076a      	lsls	r2, r5, #29
 8002f26:	d50e      	bpl.n	8002f46 <HAL_TIM_IRQHandler+0x50>
      __HAL_TIM_CLEAR_FLAG(htim, TIM_FLAG_CC2);
 8002f28:	f06f 0204 	mvn.w	r2, #4
 8002f2c:	6823      	ldr	r3, [r4, #0]
        HAL_TIM_IC_CaptureCallback(htim);
 8002f2e:	4620      	mov	r0, r4
      __HAL_TIM_CLEAR_FLAG(htim, TIM_FLAG_CC2);
 8002f30:	611a      	str	r2, [r3, #16]
      htim->Channel = HAL_TIM_ACTIVE_CHANNEL_2;
 8002f32:	2202      	movs	r2, #2
 8002f34:	7722      	strb	r2, [r4, #28]
      if ((htim->Instance->CCMR1 & TIM_CCMR1_CC2S) != 0x00U)
 8002f36:	699b      	ldr	r3, [r3, #24]
 8002f38:	f413 7f40 	tst.w	r3, #768	@ 0x300
 8002f3c:	d05c      	beq.n	8002ff8 <HAL_TIM_IRQHandler+0x102>
        HAL_TIM_IC_CaptureCallback(htim);
 8002f3e:	f7ff ffd7 	bl	8002ef0 <HAL_TIM_IC_CaptureCallback>
      htim->Channel = HAL_TIM_ACTIVE_CHANNEL_CLEARED;
 8002f42:	2300      	movs	r3, #0
 8002f44:	7723      	strb	r3, [r4, #28]
  if ((itflag & (TIM_FLAG_CC3)) == (TIM_FLAG_CC3))
 8002f46:	0733      	lsls	r3, r6, #28
 8002f48:	d50f      	bpl.n	8002f6a <HAL_TIM_IRQHandler+0x74>
    if ((itsource & (TIM_IT_CC3)) == (TIM_IT_CC3))
 8002f4a:	0728      	lsls	r0, r5, #28
 8002f4c:	d50d      	bpl.n	8002f6a <HAL_TIM_IRQHandler+0x74>
      __HAL_TIM_CLEAR_FLAG(htim, TIM_FLAG_CC3);
 8002f4e:	f06f 0208 	mvn.w	r2, #8
 8002f52:	6823      	ldr	r3, [r4, #0]
        HAL_TIM_IC_CaptureCallback(htim);
 8002f54:	4620      	mov	r0, r4
      __HAL_TIM_CLEAR_FLAG(htim, TIM_FLAG_CC3);
 8002f56:	611a      	str	r2, [r3, #16]
      htim->Channel = HAL_TIM_ACTIVE_CHANNEL_3;
 8002f58:	2204      	movs	r2, #4
 8002f5a:	7722      	strb	r2, [r4, #28]
      if ((htim->Instance->CCMR2 & TIM_CCMR2_CC3S) != 0x00U)
 8002f5c:	69db      	ldr	r3, [r3, #28]
 8002f5e:	0799      	lsls	r1, r3, #30
 8002f60:	d050      	beq.n	8003004 <HAL_TIM_IRQHandler+0x10e>
        HAL_TIM_IC_CaptureCallback(htim);
 8002f62:	f7ff ffc5 	bl	8002ef0 <HAL_TIM_IC_CaptureCallback>
      htim->Channel = HAL_TIM_ACTIVE_CHANNEL_CLEARED;
 8002f66:	2300      	movs	r3, #0
 8002f68:	7723      	strb	r3, [r4, #28]
  if ((itflag & (TIM_FLAG_CC4)) == (TIM_FLAG_CC4))
 8002f6a:	06f2      	lsls	r2, r6, #27
 8002f6c:	d510      	bpl.n	8002f90 <HAL_TIM_IRQHandler+0x9a>
    if ((itsource & (TIM_IT_CC4)) == (TIM_IT_CC4))
 8002f6e:	06eb      	lsls	r3, r5, #27
 8002f70:	d50e      	bpl.n	8002f90 <HAL_TIM_IRQHandler+0x9a>
      __HAL_TIM_CLEAR_FLAG(htim, TIM_FLAG_CC4);
 8002f72:	f06f 0210 	mvn.w	r2, #16
 8002f76:	6823      	ldr	r3, [r4, #0]
        HAL_TIM_IC_CaptureCallback(htim);
 8002f78:	4620      	mov	r0, r4
      __HAL_TIM_CLEAR_FLAG(htim, TIM_FLAG_CC4);
 8002f7a:	611a      	str	r2, [r3, #16]
      htim->Channel = HAL_TIM_ACTIVE_CHANNEL_4;
 8002f7c:	2208      	movs	r2, #8
 8002f7e:	7722      	strb	r2, [r4, #28]
      if ((htim->Instance->CCMR2 & TIM_CCMR2_CC4S) != 0x00U)
 8002f80:	69db      	ldr	r3, [r3, #28]
 8002f82:	f413 7f40 	tst.w	r3, #768	@ 0x300
 8002f86:	d043      	beq.n	8003010 <HAL_TIM_IRQHandler+0x11a>
        HAL_TIM_IC_CaptureCallback(htim);
 8002f88:	f7ff ffb2 	bl	8002ef0 <HAL_TIM_IC_CaptureCallback>
      htim->Channel = HAL_TIM_ACTIVE_CHANNEL_CLEARED;
 8002f8c:	2300      	movs	r3, #0
 8002f8e:	7723      	strb	r3, [r4, #28]
  if ((itflag & (TIM_FLAG_UPDATE)) == (TIM_FLAG_UPDATE))
 8002f90:	07f0      	lsls	r0, r6, #31
 8002f92:	d508      	bpl.n	8002fa6 <HAL_TIM_IRQHandler+0xb0>
    if ((itsource & (TIM_IT_UPDATE)) == (TIM_IT_UPDATE))
 8002f94:	07e9      	lsls	r1, r5, #31
 8002f96:	d506      	bpl.n	8002fa6 <HAL_TIM_IRQHandler+0xb0>
      __HAL_TIM_CLEAR_FLAG(htim, TIM_FLAG_UPDATE);
 8002f98:	f06f 0201 	mvn.w	r2, #1
 8002f9c:	6823      	ldr	r3, [r4, #0]
      HAL_TIM_PeriodElapsedCallback(htim);
 8002f9e:	4620      	mov	r0, r4
      __HAL_TIM_CLEAR_FLAG(htim, TIM_FLAG_UPDATE);
 8002fa0:	611a      	str	r2, [r3, #16]
      HAL_TIM_PeriodElapsedCallback(htim);
 8002fa2:	f7fe f817 	bl	8000fd4 <HAL_TIM_PeriodElapsedCallback>
  if ((itflag & (TIM_FLAG_BREAK)) == (TIM_FLAG_BREAK))
 8002fa6:	0632      	lsls	r2, r6, #24
 8002fa8:	d508      	bpl.n	8002fbc <HAL_TIM_IRQHandler+0xc6>
    if ((itsource & (TIM_IT_BREAK)) == (TIM_IT_BREAK))
 8002faa:	062b      	lsls	r3, r5, #24
 8002fac:	d506      	bpl.n	8002fbc <HAL_TIM_IRQHandler+0xc6>
      __HAL_TIM_CLEAR_FLAG(htim, TIM_FLAG_BREAK);
 8002fae:	f06f 0280 	mvn.w	r2, #128	@ 0x80
 8002fb2:	6823      	ldr	r3, [r4, #0]
      HAL_TIMEx_BreakCallback(htim);
 8002fb4:	4620      	mov	r0, r4
      __HAL_TIM_CLEAR_FLAG(htim, TIM_FLAG_BREAK);
 8002fb6:	611a      	str	r2, [r3, #16]
      HAL_TIMEx_BreakCallback(htim);
 8002fb8:	f000 fa95 	bl	80034e6 <HAL_TIMEx_BreakCallback>
  if ((itflag & (TIM_FLAG_TRIGGER)) == (TIM_FLAG_TRIGGER))
 8002fbc:	0670      	lsls	r0, r6, #25
 8002fbe:	d508      	bpl.n	8002fd2 <HAL_TIM_IRQHandler+0xdc>
    if ((itsource & (TIM_IT_TRIGGER)) == (TIM_IT_TRIGGER))
 8002fc0:	0669      	lsls	r1, r5, #25
 8002fc2:	d506      	bpl.n	8002fd2 <HAL_TIM_IRQHandler+0xdc>
      __HAL_TIM_CLEAR_FLAG(htim, TIM_FLAG_TRIGGER);
 8002fc4:	f06f 0240 	mvn.w	r2, #64	@ 0x40
 8002fc8:	6823      	ldr	r3, [r4, #0]
      HAL_TIM_TriggerCallback(htim);
 8002fca:	4620      	mov	r0, r4
      __HAL_TIM_CLEAR_FLAG(htim, TIM_FLAG_TRIGGER);
 8002fcc:	611a      	str	r2, [r3, #16]
      HAL_TIM_TriggerCallback(htim);
 8002fce:	f7ff ff91 	bl	8002ef4 <HAL_TIM_TriggerCallback>
  if ((itflag & (TIM_FLAG_COM)) == (TIM_FLAG_COM))
 8002fd2:	06b2      	lsls	r2, r6, #26
 8002fd4:	d522      	bpl.n	800301c <HAL_TIM_IRQHandler+0x126>
    if ((itsource & (TIM_IT_COM)) == (TIM_IT_COM))
 8002fd6:	06ab      	lsls	r3, r5, #26
 8002fd8:	d520      	bpl.n	800301c <HAL_TIM_IRQHandler+0x126>
      __HAL_TIM_CLEAR_FLAG(htim, TIM_FLAG_COM);
 8002fda:	f06f 0220 	mvn.w	r2, #32
 8002fde:	6823      	ldr	r3, [r4, #0]
      HAL_TIMEx_CommutCallback(htim);
 8002fe0:	4620      	mov	r0, r4
}
 8002fe2:	e8bd 4070 	ldmia.w	sp!, {r4, r5, r6, lr}
      __HAL_TIM_CLEAR_FLAG(htim, TIM_FLAG_COM);
 8002fe6:	611a      	str	r2, [r3, #16]
      HAL_TIMEx_CommutCallback(htim);
 8002fe8:	f000 ba7c 	b.w	80034e4 <HAL_TIMEx_CommutCallback>
          HAL_TIM_OC_DelayElapsedCallback(htim);
 8002fec:	f7ff ff7f 	bl	8002eee <HAL_TIM_OC_DelayElapsedCallback>
          HAL_TIM_PWM_PulseFinishedCallback(htim);
 8002ff0:	4620      	mov	r0, r4
 8002ff2:	f7ff ff7e 	bl	8002ef2 <HAL_TIM_PWM_PulseFinishedCallback>
 8002ff6:	e791      	b.n	8002f1c <HAL_TIM_IRQHandler+0x26>
        HAL_TIM_OC_DelayElapsedCallback(htim);
 8002ff8:	f7ff ff79 	bl	8002eee <HAL_TIM_OC_DelayElapsedCallback>
        HAL_TIM_PWM_PulseFinishedCallback(htim);
 8002ffc:	4620      	mov	r0, r4
 8002ffe:	f7ff ff78 	bl	8002ef2 <HAL_TIM_PWM_PulseFinishedCallback>
 8003002:	e79e      	b.n	8002f42 <HAL_TIM_IRQHandler+0x4c>
        HAL_TIM_OC_DelayElapsedCallback(htim);
 8003004:	f7ff ff73 	bl	8002eee <HAL_TIM_OC_DelayElapsedCallback>
        HAL_TIM_PWM_PulseFinishedCallback(htim);
 8003008:	4620      	mov	r0, r4
 800300a:	f7ff ff72 	bl	8002ef2 <HAL_TIM_PWM_PulseFinishedCallback>
 800300e:	e7aa      	b.n	8002f66 <HAL_TIM_IRQHandler+0x70>
        HAL_TIM_OC_DelayElapsedCallback(htim);
 8003010:	f7ff ff6d 	bl	8002eee <HAL_TIM_OC_DelayElapsedCallback>
        HAL_TIM_PWM_PulseFinishedCallback(htim);
 8003014:	4620      	mov	r0, r4
 8003016:	f7ff ff6c 	bl	8002ef2 <HAL_TIM_PWM_PulseFinishedCallback>
 800301a:	e7b7      	b.n	8002f8c <HAL_TIM_IRQHandler+0x96>
}
 800301c:	bd70      	pop	{r4, r5, r6, pc}
	...

08003020 <TIM_Base_SetConfig>:
  if (IS_TIM_COUNTER_MODE_SELECT_INSTANCE(TIMx))
 8003020:	4a19      	ldr	r2, [pc, #100]	@ (8003088 <TIM_Base_SetConfig+0x68>)
{
 8003022:	b510      	push	{r4, lr}
  if (IS_TIM_COUNTER_MODE_SELECT_INSTANCE(TIMx))
 8003024:	4290      	cmp	r0, r2
  tmpcr1 = TIMx->CR1;
 8003026:	6803      	ldr	r3, [r0, #0]
  if (IS_TIM_COUNTER_MODE_SELECT_INSTANCE(TIMx))
 8003028:	d005      	beq.n	8003036 <TIM_Base_SetConfig+0x16>
 800302a:	f1b0 4f80 	cmp.w	r0, #1073741824	@ 0x40000000
 800302e:	d002      	beq.n	8003036 <TIM_Base_SetConfig+0x16>
 8003030:	4c16      	ldr	r4, [pc, #88]	@ (800308c <TIM_Base_SetConfig+0x6c>)
 8003032:	42a0      	cmp	r0, r4
 8003034:	d110      	bne.n	8003058 <TIM_Base_SetConfig+0x38>
    tmpcr1 |= Structure->CounterMode;
 8003036:	684c      	ldr	r4, [r1, #4]
    tmpcr1 &= ~(TIM_CR1_DIR | TIM_CR1_CMS);
 8003038:	f023 0370 	bic.w	r3, r3, #112	@ 0x70
  if (IS_TIM_CLOCK_DIVISION_INSTANCE(TIMx))
 800303c:	4290      	cmp	r0, r2
    tmpcr1 |= Structure->CounterMode;
 800303e:	ea43 0304 	orr.w	r3, r3, r4
  if (IS_TIM_CLOCK_DIVISION_INSTANCE(TIMx))
 8003042:	d005      	beq.n	8003050 <TIM_Base_SetConfig+0x30>
 8003044:	f1b0 4f80 	cmp.w	r0, #1073741824	@ 0x40000000
 8003048:	d002      	beq.n	8003050 <TIM_Base_SetConfig+0x30>
 800304a:	4a10      	ldr	r2, [pc, #64]	@ (800308c <TIM_Base_SetConfig+0x6c>)
 800304c:	4290      	cmp	r0, r2
 800304e:	d103      	bne.n	8003058 <TIM_Base_SetConfig+0x38>
    tmpcr1 |= (uint32_t)Structure->ClockDivision;
 8003050:	68ca      	ldr	r2, [r1, #12]
    tmpcr1 &= ~TIM_CR1_CKD;
 8003052:	f423 7340 	bic.w	r3, r3, #768	@ 0x300
    tmpcr1 |= (uint32_t)Structure->ClockDivision;
 8003056:	4313      	orrs	r3, r2
  MODIFY_REG(tmpcr1, TIM_CR1_ARPE, Structure->AutoReloadPreload);
 8003058:	694a      	ldr	r2, [r1, #20]
 800305a:	f023 0380 	bic.w	r3, r3, #128	@ 0x80
 800305e:	4313      	orrs	r3, r2
  TIMx->CR1 = tmpcr1;
 8003060:	6003      	str	r3, [r0, #0]
  TIMx->ARR = (uint32_t)Structure->Period ;
 8003062:	688b      	ldr	r3, [r1, #8]
 8003064:	62c3      	str	r3, [r0, #44]	@ 0x2c
  TIMx->PSC = Structure->Prescaler;
 8003066:	680b      	ldr	r3, [r1, #0]
 8003068:	6283      	str	r3, [r0, #40]	@ 0x28
  if (IS_TIM_REPETITION_COUNTER_INSTANCE(TIMx))
 800306a:	4b07      	ldr	r3, [pc, #28]	@ (8003088 <TIM_Base_SetConfig+0x68>)
 800306c:	4298      	cmp	r0, r3
    TIMx->RCR = Structure->RepetitionCounter;
 800306e:	bf04      	itt	eq
 8003070:	690b      	ldreq	r3, [r1, #16]
 8003072:	6303      	streq	r3, [r0, #48]	@ 0x30
  TIMx->EGR = TIM_EGR_UG;
 8003074:	2301      	movs	r3, #1
 8003076:	6143      	str	r3, [r0, #20]
  if (HAL_IS_BIT_SET(TIMx->SR, TIM_FLAG_UPDATE))
 8003078:	6903      	ldr	r3, [r0, #16]
 800307a:	07db      	lsls	r3, r3, #31
    CLEAR_BIT(TIMx->SR, TIM_FLAG_UPDATE);
 800307c:	bf42      	ittt	mi
 800307e:	6903      	ldrmi	r3, [r0, #16]
 8003080:	f023 0301 	bicmi.w	r3, r3, #1
 8003084:	6103      	strmi	r3, [r0, #16]
}
 8003086:	bd10      	pop	{r4, pc}
 8003088:	40012c00 	.word	0x40012c00
 800308c:	40000400 	.word	0x40000400

08003090 <HAL_TIM_Base_Init>:
{
 8003090:	b510      	push	{r4, lr}
  if (htim == NULL)
 8003092:	4604      	mov	r4, r0
 8003094:	b330      	cbz	r0, 80030e4 <HAL_TIM_Base_Init+0x54>
  if (htim->State == HAL_TIM_STATE_RESET)
 8003096:	f890 303d 	ldrb.w	r3, [r0, #61]	@ 0x3d
 800309a:	f003 02ff 	and.w	r2, r3, #255	@ 0xff
 800309e:	b91b      	cbnz	r3, 80030a8 <HAL_TIM_Base_Init+0x18>
    htim->Lock = HAL_UNLOCKED;
 80030a0:	f880 203c 	strb.w	r2, [r0, #60]	@ 0x3c
    HAL_TIM_Base_MspInit(htim);
 80030a4:	f7fe fa20 	bl	80014e8 <HAL_TIM_Base_MspInit>
  htim->State = HAL_TIM_STATE_BUSY;
 80030a8:	2302      	movs	r3, #2
  TIM_Base_SetConfig(htim->Instance, &htim->Init);
 80030aa:	6820      	ldr	r0, [r4, #0]
  htim->State = HAL_TIM_STATE_BUSY;
 80030ac:	f884 303d 	strb.w	r3, [r4, #61]	@ 0x3d
  TIM_Base_SetConfig(htim->Instance, &htim->Init);
 80030b0:	1d21      	adds	r1, r4, #4
 80030b2:	f7ff ffb5 	bl	8003020 <TIM_Base_SetConfig>
  htim->DMABurstState = HAL_DMA_BURST_STATE_READY;
 80030b6:	2301      	movs	r3, #1
  return HAL_OK;
 80030b8:	2000      	movs	r0, #0
  htim->DMABurstState = HAL_DMA_BURST_STATE_READY;
 80030ba:	f884 3046 	strb.w	r3, [r4, #70]	@ 0x46
  TIM_CHANNEL_STATE_SET_ALL(htim, HAL_TIM_CHANNEL_STATE_READY);
 80030be:	f884 303e 	strb.w	r3, [r4, #62]	@ 0x3e
 80030c2:	f884 303f 	strb.w	r3, [r4, #63]	@ 0x3f
 80030c6:	f884 3040 	strb.w	r3, [r4, #64]	@ 0x40
 80030ca:	f884 3041 	strb.w	r3, [r4, #65]	@ 0x41
  TIM_CHANNEL_N_STATE_SET_ALL(htim, HAL_TIM_CHANNEL_STATE_READY);
 80030ce:	f884 3042 	strb.w	r3, [r4, #66]	@ 0x42
 80030d2:	f884 3043 	strb.w	r3, [r4, #67]	@ 0x43
 80030d6:	f884 3044 	strb.w	r3, [r4, #68]	@ 0x44
 80030da:	f884 3045 	strb.w	r3, [r4, #69]	@ 0x45
  htim->State = HAL_TIM_STATE_READY;
 80030de:	f884 303d 	strb.w	r3, [r4, #61]	@ 0x3d
}
 80030e2:	bd10      	pop	{r4, pc}
    return HAL_ERROR;
 80030e4:	2001      	movs	r0, #1
 80030e6:	e7fc      	b.n	80030e2 <HAL_TIM_Base_Init+0x52>

080030e8 <HAL_TIM_PWM_Init>:
{
 80030e8:	b510      	push	{r4, lr}
  if (htim == NULL)
 80030ea:	4604      	mov	r4, r0
 80030ec:	b330      	cbz	r0, 800313c <HAL_TIM_PWM_Init+0x54>
  if (htim->State == HAL_TIM_STATE_RESET)
 80030ee:	f890 303d 	ldrb.w	r3, [r0, #61]	@ 0x3d
 80030f2:	f003 02ff 	and.w	r2, r3, #255	@ 0xff
 80030f6:	b91b      	cbnz	r3, 8003100 <HAL_TIM_PWM_Init+0x18>
    htim->Lock = HAL_UNLOCKED;
 80030f8:	f880 203c 	strb.w	r2, [r0, #60]	@ 0x3c
    HAL_TIM_PWM_MspInit(htim);
 80030fc:	f7ff fef6 	bl	8002eec <HAL_TIM_PWM_MspInit>
  htim->State = HAL_TIM_STATE_BUSY;
 8003100:	2302      	movs	r3, #2
  TIM_Base_SetConfig(htim->Instance, &htim->Init);
 8003102:	6820      	ldr	r0, [r4, #0]
  htim->State = HAL_TIM_STATE_BUSY;
 8003104:	f884 303d 	strb.w	r3, [r4, #61]	@ 0x3d
  TIM_Base_SetConfig(htim->Instance, &htim->Init);
 8003108:	1d21      	adds	r1, r4, #4
 800310a:	f7ff ff89 	bl	8003020 <TIM_Base_SetConfig>
  htim->DMABurstState = HAL_DMA_BURST_STATE_READY;
 800310e:	2301      	movs	r3, #1
  return HAL_OK;
 8003110:	2000      	movs	r0, #0
  htim->DMABurstState = HAL_DMA_BURST_STATE_READY;
 8003112:	f884 3046 	strb.w	r3, [r4, #70]	@ 0x46
  TIM_CHANNEL_STATE_SET_ALL(htim, HAL_TIM_CHANNEL_STATE_READY);
 8003116:	f884 303e 	strb.w	r3, [r4, #62]	@ 0x3e
 800311a:	f884 303f 	strb.w	r3, [r4, #63]	@ 0x3f
 800311e:	f884 3040 	strb.w	r3, [r4, #64]	@ 0x40
 8003122:	f884 3041 	strb.w	r3, [r4, #65]	@ 0x41
  TIM_CHANNEL_N_STATE_SET_ALL(htim, HAL_TIM_CHANNEL_STATE_READY);
 8003126:	f884 3042 	strb.w	r3, [r4, #66]	@ 0x42
 800312a:	f884 3043 	strb.w	r3, [r4, #67]	@ 0x43
 800312e:	f884 3044 	strb.w	r3, [r4, #68]	@ 0x44
 8003132:	f884 3045 	strb.w	r3, [r4, #69]	@ 0x45
  htim->State = HAL_TIM_STATE_READY;
 8003136:	f884 303d 	strb.w	r3, [r4, #61]	@ 0x3d
}
 800313a:	bd10      	pop	{r4, pc}
    return HAL_ERROR;
 800313c:	2001      	movs	r0, #1
 800313e:	e7fc      	b.n	800313a <HAL_TIM_PWM_Init+0x52>

08003140 <TIM_OC2_SetConfig>:
  tmpccer = TIMx->CCER;
 8003140:	6a03      	ldr	r3, [r0, #32]
  TIMx->CCER &= ~TIM_CCER_CC2E;
 8003142:	6a02      	ldr	r2, [r0, #32]
{
 8003144:	b570      	push	{r4, r5, r6, lr}
  TIMx->CCER &= ~TIM_CCER_CC2E;
 8003146:	f022 0210 	bic.w	r2, r2, #16
 800314a:	6202      	str	r2, [r0, #32]
  tmpcr2 =  TIMx->CR2;
 800314c:	6844      	ldr	r4, [r0, #4]
  tmpccmrx = TIMx->CCMR1;
 800314e:	6982      	ldr	r2, [r0, #24]
  tmpccmrx |= (OC_Config->OCMode << 8U);
 8003150:	680d      	ldr	r5, [r1, #0]
  tmpccmrx &= ~TIM_CCMR1_CC2S;
 8003152:	f422 42e6 	bic.w	r2, r2, #29440	@ 0x7300
  tmpccmrx |= (OC_Config->OCMode << 8U);
 8003156:	ea42 2205 	orr.w	r2, r2, r5, lsl #8
  tmpccer |= (OC_Config->OCPolarity << 4U);
 800315a:	688d      	ldr	r5, [r1, #8]
  tmpccer &= ~TIM_CCER_CC2P;
 800315c:	f023 0320 	bic.w	r3, r3, #32
  tmpccer |= (OC_Config->OCPolarity << 4U);
 8003160:	ea43 1305 	orr.w	r3, r3, r5, lsl #4
  if (IS_TIM_CCXN_INSTANCE(TIMx, TIM_CHANNEL_2))
 8003164:	4d0b      	ldr	r5, [pc, #44]	@ (8003194 <TIM_OC2_SetConfig+0x54>)
 8003166:	42a8      	cmp	r0, r5
 8003168:	d10d      	bne.n	8003186 <TIM_OC2_SetConfig+0x46>
    tmpccer |= (OC_Config->OCNPolarity << 4U);
 800316a:	68cd      	ldr	r5, [r1, #12]
    tmpccer &= ~TIM_CCER_CC2NP;
 800316c:	f023 0380 	bic.w	r3, r3, #128	@ 0x80
    tmpccer |= (OC_Config->OCNPolarity << 4U);
 8003170:	ea43 1305 	orr.w	r3, r3, r5, lsl #4
    tmpcr2 &= ~TIM_CR2_OIS2N;
 8003174:	f424 6440 	bic.w	r4, r4, #3072	@ 0xc00
    tmpcr2 |= (OC_Config->OCNIdleState << 2U);
 8003178:	e9d1 5605 	ldrd	r5, r6, [r1, #20]
 800317c:	4335      	orrs	r5, r6
    tmpccer &= ~TIM_CCER_CC2NE;
 800317e:	f023 0340 	bic.w	r3, r3, #64	@ 0x40
    tmpcr2 |= (OC_Config->OCNIdleState << 2U);
 8003182:	ea44 0485 	orr.w	r4, r4, r5, lsl #2
  TIMx->CR2 = tmpcr2;
 8003186:	6044      	str	r4, [r0, #4]
  TIMx->CCMR1 = tmpccmrx;
 8003188:	6182      	str	r2, [r0, #24]
  TIMx->CCR2 = OC_Config->Pulse;
 800318a:	684a      	ldr	r2, [r1, #4]
 800318c:	6382      	str	r2, [r0, #56]	@ 0x38
  TIMx->CCER = tmpccer;
 800318e:	6203      	str	r3, [r0, #32]
}
 8003190:	bd70      	pop	{r4, r5, r6, pc}
 8003192:	bf00      	nop
 8003194:	40012c00 	.word	0x40012c00

08003198 <HAL_TIM_PWM_ConfigChannel>:
{
 8003198:	b538      	push	{r3, r4, r5, lr}
  __HAL_LOCK(htim);
 800319a:	f890 303c 	ldrb.w	r3, [r0, #60]	@ 0x3c
{
 800319e:	4604      	mov	r4, r0
  __HAL_LOCK(htim);
 80031a0:	2b01      	cmp	r3, #1
 80031a2:	d04f      	beq.n	8003244 <HAL_TIM_PWM_ConfigChannel+0xac>
 80031a4:	2001      	movs	r0, #1
  switch (Channel)
 80031a6:	2a08      	cmp	r2, #8
  __HAL_LOCK(htim);
 80031a8:	f884 003c 	strb.w	r0, [r4, #60]	@ 0x3c
  switch (Channel)
 80031ac:	d03a      	beq.n	8003224 <HAL_TIM_PWM_ConfigChannel+0x8c>
 80031ae:	d806      	bhi.n	80031be <HAL_TIM_PWM_ConfigChannel+0x26>
 80031b0:	b1ba      	cbz	r2, 80031e2 <HAL_TIM_PWM_ConfigChannel+0x4a>
 80031b2:	2a04      	cmp	r2, #4
 80031b4:	d026      	beq.n	8003204 <HAL_TIM_PWM_ConfigChannel+0x6c>
  __HAL_UNLOCK(htim);
 80031b6:	2300      	movs	r3, #0
 80031b8:	f884 303c 	strb.w	r3, [r4, #60]	@ 0x3c
}
 80031bc:	bd38      	pop	{r3, r4, r5, pc}
  switch (Channel)
 80031be:	2a0c      	cmp	r2, #12
 80031c0:	d1f9      	bne.n	80031b6 <HAL_TIM_PWM_ConfigChannel+0x1e>
      TIM_OC4_SetConfig(htim->Instance, sConfig);
 80031c2:	6820      	ldr	r0, [r4, #0]
 80031c4:	f7ff fe4a 	bl	8002e5c <TIM_OC4_SetConfig>
      htim->Instance->CCMR2 |= TIM_CCMR2_OC4PE;
 80031c8:	69c3      	ldr	r3, [r0, #28]
      htim->Instance->CCMR2 |= sConfig->OCFastMode << 8U;
 80031ca:	690a      	ldr	r2, [r1, #16]
      htim->Instance->CCMR2 |= TIM_CCMR2_OC4PE;
 80031cc:	f443 6300 	orr.w	r3, r3, #2048	@ 0x800
 80031d0:	61c3      	str	r3, [r0, #28]
      htim->Instance->CCMR2 &= ~TIM_CCMR2_OC4FE;
 80031d2:	69c3      	ldr	r3, [r0, #28]
 80031d4:	f423 6380 	bic.w	r3, r3, #1024	@ 0x400
 80031d8:	61c3      	str	r3, [r0, #28]
      htim->Instance->CCMR2 |= sConfig->OCFastMode << 8U;
 80031da:	69c3      	ldr	r3, [r0, #28]
 80031dc:	ea43 2302 	orr.w	r3, r3, r2, lsl #8
 80031e0:	e02e      	b.n	8003240 <HAL_TIM_PWM_ConfigChannel+0xa8>
      TIM_OC1_SetConfig(htim->Instance, sConfig);
 80031e2:	6820      	ldr	r0, [r4, #0]
 80031e4:	f7ff fde8 	bl	8002db8 <TIM_OC1_SetConfig>
      htim->Instance->CCMR1 |= TIM_CCMR1_OC1PE;
 80031e8:	6983      	ldr	r3, [r0, #24]
      htim->Instance->CCMR1 |= sConfig->OCFastMode;
 80031ea:	690a      	ldr	r2, [r1, #16]
      htim->Instance->CCMR1 |= TIM_CCMR1_OC1PE;
 80031ec:	f043 0308 	orr.w	r3, r3, #8
 80031f0:	6183      	str	r3, [r0, #24]
      htim->Instance->CCMR1 &= ~TIM_CCMR1_OC1FE;
 80031f2:	6983      	ldr	r3, [r0, #24]
 80031f4:	f023 0304 	bic.w	r3, r3, #4
 80031f8:	6183      	str	r3, [r0, #24]
      htim->Instance->CCMR1 |= sConfig->OCFastMode;
 80031fa:	6983      	ldr	r3, [r0, #24]
 80031fc:	4313      	orrs	r3, r2
      htim->Instance->CCMR1 |= sConfig->OCFastMode << 8U;
 80031fe:	6183      	str	r3, [r0, #24]
  HAL_StatusTypeDef status = HAL_OK;
 8003200:	2000      	movs	r0, #0
 8003202:	e7d8      	b.n	80031b6 <HAL_TIM_PWM_ConfigChannel+0x1e>
      TIM_OC2_SetConfig(htim->Instance, sConfig);
 8003204:	6820      	ldr	r0, [r4, #0]
 8003206:	f7ff ff9b 	bl	8003140 <TIM_OC2_SetConfig>
      htim->Instance->CCMR1 |= TIM_CCMR1_OC2PE;
 800320a:	6983      	ldr	r3, [r0, #24]
      htim->Instance->CCMR1 |= sConfig->OCFastMode << 8U;
 800320c:	690a      	ldr	r2, [r1, #16]
      htim->Instance->CCMR1 |= TIM_CCMR1_OC2PE;
 800320e:	f443 6300 	orr.w	r3, r3, #2048	@ 0x800
 8003212:	6183      	str	r3, [r0, #24]
      htim->Instance->CCMR1 &= ~TIM_CCMR1_OC2FE;
 8003214:	6983      	ldr	r3, [r0, #24]
 8003216:	f423 6380 	bic.w	r3, r3, #1024	@ 0x400
 800321a:	6183      	str	r3, [r0, #24]
      htim->Instance->CCMR1 |= sConfig->OCFastMode << 8U;
 800321c:	6983      	ldr	r3, [r0, #24]
 800321e:	ea43 2302 	orr.w	r3, r3, r2, lsl #8
 8003222:	e7ec      	b.n	80031fe <HAL_TIM_PWM_ConfigChannel+0x66>
      TIM_OC3_SetConfig(htim->Instance, sConfig);
 8003224:	6820      	ldr	r0, [r4, #0]
 8003226:	f7ff fdef 	bl	8002e08 <TIM_OC3_SetConfig>
      htim->Instance->CCMR2 |= TIM_CCMR2_OC3PE;
 800322a:	69c3      	ldr	r3, [r0, #28]
      htim->Instance->CCMR2 |= sConfig->OCFastMode;
 800322c:	690a      	ldr	r2, [r1, #16]
      htim->Instance->CCMR2 |= TIM_CCMR2_OC3PE;
 800322e:	f043 0308 	orr.w	r3, r3, #8
 8003232:	61c3      	str	r3, [r0, #28]
      htim->Instance->CCMR2 &= ~TIM_CCMR2_OC3FE;
 8003234:	69c3      	ldr	r3, [r0, #28]
 8003236:	f023 0304 	bic.w	r3, r3, #4
 800323a:	61c3      	str	r3, [r0, #28]
      htim->Instance->CCMR2 |= sConfig->OCFastMode;
 800323c:	69c3      	ldr	r3, [r0, #28]
 800323e:	4313      	orrs	r3, r2
      htim->Instance->CCMR2 |= sConfig->OCFastMode << 8U;
 8003240:	61c3      	str	r3, [r0, #28]
      break;
 8003242:	e7dd      	b.n	8003200 <HAL_TIM_PWM_ConfigChannel+0x68>
  __HAL_LOCK(htim);
 8003244:	2002      	movs	r0, #2
 8003246:	e7b9      	b.n	80031bc <HAL_TIM_PWM_ConfigChannel+0x24>

08003248 <TIM_ETR_SetConfig>:
  *          This parameter must be a value between 0x00 and 0x0F
  * @retval None
  */
void TIM_ETR_SetConfig(TIM_TypeDef *TIMx, uint32_t TIM_ExtTRGPrescaler,
                       uint32_t TIM_ExtTRGPolarity, uint32_t ExtTRGFilter)
{
 8003248:	b510      	push	{r4, lr}
  uint32_t tmpsmcr;

  tmpsmcr = TIMx->SMCR;
 800324a:	6884      	ldr	r4, [r0, #8]

  /* Reset the ETR Bits */
  tmpsmcr &= ~(TIM_SMCR_ETF | TIM_SMCR_ETPS | TIM_SMCR_ECE | TIM_SMCR_ETP);

  /* Set the Prescaler, the Filter value and the Polarity */
  tmpsmcr |= (uint32_t)(TIM_ExtTRGPrescaler | (TIM_ExtTRGPolarity | (ExtTRGFilter << 8U)));
 800324c:	430a      	orrs	r2, r1
  tmpsmcr &= ~(TIM_SMCR_ETF | TIM_SMCR_ETPS | TIM_SMCR_ECE | TIM_SMCR_ETP);
 800324e:	f424 447f 	bic.w	r4, r4, #65280	@ 0xff00
  tmpsmcr |= (uint32_t)(TIM_ExtTRGPrescaler | (TIM_ExtTRGPolarity | (ExtTRGFilter << 8U)));
 8003252:	ea42 2203 	orr.w	r2, r2, r3, lsl #8
 8003256:	4322      	orrs	r2, r4

  /* Write to TIMx SMCR */
  TIMx->SMCR = tmpsmcr;
 8003258:	6082      	str	r2, [r0, #8]
}
 800325a:	bd10      	pop	{r4, pc}

0800325c <HAL_TIM_ConfigClockSource>:
{
 800325c:	b538      	push	{r3, r4, r5, lr}
  __HAL_LOCK(htim);
 800325e:	f890 303c 	ldrb.w	r3, [r0, #60]	@ 0x3c
{
 8003262:	4604      	mov	r4, r0
  __HAL_LOCK(htim);
 8003264:	2b01      	cmp	r3, #1
 8003266:	f04f 0002 	mov.w	r0, #2
 800326a:	f000 808e 	beq.w	800338a <HAL_TIM_ConfigClockSource+0x12e>
 800326e:	2201      	movs	r2, #1
  htim->State = HAL_TIM_STATE_BUSY;
 8003270:	f884 003d 	strb.w	r0, [r4, #61]	@ 0x3d
  tmpsmcr = htim->Instance->SMCR;
 8003274:	6820      	ldr	r0, [r4, #0]
  __HAL_LOCK(htim);
 8003276:	f884 203c 	strb.w	r2, [r4, #60]	@ 0x3c
  tmpsmcr = htim->Instance->SMCR;
 800327a:	6883      	ldr	r3, [r0, #8]
  tmpsmcr &= ~(TIM_SMCR_ETF | TIM_SMCR_ETPS | TIM_SMCR_ECE | TIM_SMCR_ETP);
 800327c:	f423 437f 	bic.w	r3, r3, #65280	@ 0xff00
 8003280:	f023 0377 	bic.w	r3, r3, #119	@ 0x77
  htim->Instance->SMCR = tmpsmcr;
 8003284:	6083      	str	r3, [r0, #8]
  switch (sClockSourceConfig->ClockSource)
 8003286:	680b      	ldr	r3, [r1, #0]
 8003288:	2b60      	cmp	r3, #96	@ 0x60
 800328a:	d04f      	beq.n	800332c <HAL_TIM_ConfigClockSource+0xd0>
 800328c:	d832      	bhi.n	80032f4 <HAL_TIM_ConfigClockSource+0x98>
 800328e:	2b40      	cmp	r3, #64	@ 0x40
 8003290:	d064      	beq.n	800335c <HAL_TIM_ConfigClockSource+0x100>
 8003292:	d816      	bhi.n	80032c2 <HAL_TIM_ConfigClockSource+0x66>
 8003294:	2b20      	cmp	r3, #32
 8003296:	d00d      	beq.n	80032b4 <HAL_TIM_ConfigClockSource+0x58>
 8003298:	d80a      	bhi.n	80032b0 <HAL_TIM_ConfigClockSource+0x54>
 800329a:	f033 0110 	bics.w	r1, r3, #16
 800329e:	d009      	beq.n	80032b4 <HAL_TIM_ConfigClockSource+0x58>
  htim->State = HAL_TIM_STATE_READY;
 80032a0:	2301      	movs	r3, #1
 80032a2:	f884 303d 	strb.w	r3, [r4, #61]	@ 0x3d
  __HAL_UNLOCK(htim);
 80032a6:	2300      	movs	r3, #0
 80032a8:	f884 303c 	strb.w	r3, [r4, #60]	@ 0x3c
}
 80032ac:	4610      	mov	r0, r2
 80032ae:	bd38      	pop	{r3, r4, r5, pc}
  switch (sClockSourceConfig->ClockSource)
 80032b0:	2b30      	cmp	r3, #48	@ 0x30
 80032b2:	d1f5      	bne.n	80032a0 <HAL_TIM_ConfigClockSource+0x44>
  tmpsmcr = TIMx->SMCR;
 80032b4:	6882      	ldr	r2, [r0, #8]
  tmpsmcr &= ~TIM_SMCR_TS;
 80032b6:	f022 0270 	bic.w	r2, r2, #112	@ 0x70
  tmpsmcr |= (InputTriggerSource | TIM_SLAVEMODE_EXTERNAL1);
 80032ba:	4313      	orrs	r3, r2
 80032bc:	f043 0307 	orr.w	r3, r3, #7
  TIMx->SMCR = tmpsmcr;
 80032c0:	e028      	b.n	8003314 <HAL_TIM_ConfigClockSource+0xb8>
  switch (sClockSourceConfig->ClockSource)
 80032c2:	2b50      	cmp	r3, #80	@ 0x50
 80032c4:	d1ec      	bne.n	80032a0 <HAL_TIM_ConfigClockSource+0x44>
                               sClockSourceConfig->ClockPolarity,
 80032c6:	684a      	ldr	r2, [r1, #4]
                               sClockSourceConfig->ClockFilter);
 80032c8:	68cd      	ldr	r5, [r1, #12]
  tmpccer = TIMx->CCER;
 80032ca:	6a01      	ldr	r1, [r0, #32]
  TIMx->CCER &= ~TIM_CCER_CC1E;
 80032cc:	6a03      	ldr	r3, [r0, #32]
  tmpccer &= ~(TIM_CCER_CC1P | TIM_CCER_CC1NP);
 80032ce:	f021 010a 	bic.w	r1, r1, #10
  TIMx->CCER &= ~TIM_CCER_CC1E;
 80032d2:	f023 0301 	bic.w	r3, r3, #1
 80032d6:	6203      	str	r3, [r0, #32]
  tmpccmr1 = TIMx->CCMR1;
 80032d8:	6983      	ldr	r3, [r0, #24]
  tmpccer |= TIM_ICPolarity;
 80032da:	430a      	orrs	r2, r1
  tmpccmr1 &= ~TIM_CCMR1_IC1F;
 80032dc:	f023 03f0 	bic.w	r3, r3, #240	@ 0xf0
  tmpccmr1 |= (TIM_ICFilter << 4U);
 80032e0:	ea43 1305 	orr.w	r3, r3, r5, lsl #4
  TIMx->CCMR1 = tmpccmr1;
 80032e4:	6183      	str	r3, [r0, #24]
  TIMx->CCER = tmpccer;
 80032e6:	6202      	str	r2, [r0, #32]
  tmpsmcr = TIMx->SMCR;
 80032e8:	6883      	ldr	r3, [r0, #8]
  tmpsmcr &= ~TIM_SMCR_TS;
 80032ea:	f023 0370 	bic.w	r3, r3, #112	@ 0x70
  tmpsmcr |= (InputTriggerSource | TIM_SLAVEMODE_EXTERNAL1);
 80032ee:	f043 0357 	orr.w	r3, r3, #87	@ 0x57
  TIMx->SMCR = tmpsmcr;
 80032f2:	e00f      	b.n	8003314 <HAL_TIM_ConfigClockSource+0xb8>
  switch (sClockSourceConfig->ClockSource)
 80032f4:	f5b3 5f80 	cmp.w	r3, #4096	@ 0x1000
 80032f8:	d00d      	beq.n	8003316 <HAL_TIM_ConfigClockSource+0xba>
 80032fa:	f5b3 5f00 	cmp.w	r3, #8192	@ 0x2000
 80032fe:	d00c      	beq.n	800331a <HAL_TIM_ConfigClockSource+0xbe>
 8003300:	2b70      	cmp	r3, #112	@ 0x70
 8003302:	d1cd      	bne.n	80032a0 <HAL_TIM_ConfigClockSource+0x44>
      TIM_ETR_SetConfig(htim->Instance,
 8003304:	68cb      	ldr	r3, [r1, #12]
 8003306:	e9d1 2101 	ldrd	r2, r1, [r1, #4]
 800330a:	f7ff ff9d 	bl	8003248 <TIM_ETR_SetConfig>
      tmpsmcr = htim->Instance->SMCR;
 800330e:	6883      	ldr	r3, [r0, #8]
      tmpsmcr |= (TIM_SLAVEMODE_EXTERNAL1 | TIM_CLOCKSOURCE_ETRMODE1);
 8003310:	f043 0377 	orr.w	r3, r3, #119	@ 0x77
      htim->Instance->SMCR = tmpsmcr;
 8003314:	6083      	str	r3, [r0, #8]
  HAL_StatusTypeDef status = HAL_OK;
 8003316:	2200      	movs	r2, #0
 8003318:	e7c2      	b.n	80032a0 <HAL_TIM_ConfigClockSource+0x44>
      TIM_ETR_SetConfig(htim->Instance,
 800331a:	68cb      	ldr	r3, [r1, #12]
 800331c:	e9d1 2101 	ldrd	r2, r1, [r1, #4]
 8003320:	f7ff ff92 	bl	8003248 <TIM_ETR_SetConfig>
      htim->Instance->SMCR |= TIM_SMCR_ECE;
 8003324:	6883      	ldr	r3, [r0, #8]
 8003326:	f443 4380 	orr.w	r3, r3, #16384	@ 0x4000
 800332a:	e7f3      	b.n	8003314 <HAL_TIM_ConfigClockSource+0xb8>
  tmpccer = TIMx->CCER;
 800332c:	6a03      	ldr	r3, [r0, #32]
  TIMx->CCER &= ~TIM_CCER_CC2E;
 800332e:	6a02      	ldr	r2, [r0, #32]
                               sClockSourceConfig->ClockPolarity,
 8003330:	684d      	ldr	r5, [r1, #4]
  TIMx->CCER &= ~TIM_CCER_CC2E;
 8003332:	f022 0210 	bic.w	r2, r2, #16
                               sClockSourceConfig->ClockFilter);
 8003336:	68c9      	ldr	r1, [r1, #12]
  TIMx->CCER &= ~TIM_CCER_CC2E;
 8003338:	6202      	str	r2, [r0, #32]
  tmpccmr1 = TIMx->CCMR1;
 800333a:	6982      	ldr	r2, [r0, #24]
  tmpccer &= ~(TIM_CCER_CC2P | TIM_CCER_CC2NP);
 800333c:	f023 03a0 	bic.w	r3, r3, #160	@ 0xa0
  tmpccmr1 &= ~TIM_CCMR1_IC2F;
 8003340:	f422 4270 	bic.w	r2, r2, #61440	@ 0xf000
  tmpccer |= (TIM_ICPolarity << 4U);
 8003344:	ea43 1305 	orr.w	r3, r3, r5, lsl #4
  tmpccmr1 |= (TIM_ICFilter << 12U);
 8003348:	ea42 3201 	orr.w	r2, r2, r1, lsl #12
  TIMx->CCMR1 = tmpccmr1 ;
 800334c:	6182      	str	r2, [r0, #24]
  TIMx->CCER = tmpccer;
 800334e:	6203      	str	r3, [r0, #32]
  tmpsmcr = TIMx->SMCR;
 8003350:	6883      	ldr	r3, [r0, #8]
  tmpsmcr &= ~TIM_SMCR_TS;
 8003352:	f023 0370 	bic.w	r3, r3, #112	@ 0x70
  tmpsmcr |= (InputTriggerSource | TIM_SLAVEMODE_EXTERNAL1);
 8003356:	f043 0367 	orr.w	r3, r3, #103	@ 0x67
  TIMx->SMCR = tmpsmcr;
 800335a:	e7db      	b.n	8003314 <HAL_TIM_ConfigClockSource+0xb8>
                               sClockSourceConfig->ClockPolarity,
 800335c:	684a      	ldr	r2, [r1, #4]
                               sClockSourceConfig->ClockFilter);
 800335e:	68cd      	ldr	r5, [r1, #12]
  tmpccer = TIMx->CCER;
 8003360:	6a01      	ldr	r1, [r0, #32]
  TIMx->CCER &= ~TIM_CCER_CC1E;
 8003362:	6a03      	ldr	r3, [r0, #32]
  tmpccer &= ~(TIM_CCER_CC1P | TIM_CCER_CC1NP);
 8003364:	f021 010a 	bic.w	r1, r1, #10
  TIMx->CCER &= ~TIM_CCER_CC1E;
 8003368:	f023 0301 	bic.w	r3, r3, #1
 800336c:	6203      	str	r3, [r0, #32]
  tmpccmr1 = TIMx->CCMR1;
 800336e:	6983      	ldr	r3, [r0, #24]
  tmpccer |= TIM_ICPolarity;
 8003370:	430a      	orrs	r2, r1
  tmpccmr1 &= ~TIM_CCMR1_IC1F;
 8003372:	f023 03f0 	bic.w	r3, r3, #240	@ 0xf0
  tmpccmr1 |= (TIM_ICFilter << 4U);
 8003376:	ea43 1305 	orr.w	r3, r3, r5, lsl #4
  TIMx->CCMR1 = tmpccmr1;
 800337a:	6183      	str	r3, [r0, #24]
  TIMx->CCER = tmpccer;
 800337c:	6202      	str	r2, [r0, #32]
  tmpsmcr = TIMx->SMCR;
 800337e:	6883      	ldr	r3, [r0, #8]
  tmpsmcr &= ~TIM_SMCR_TS;
 8003380:	f023 0370 	bic.w	r3, r3, #112	@ 0x70
  tmpsmcr |= (InputTriggerSource | TIM_SLAVEMODE_EXTERNAL1);
 8003384:	f043 0347 	orr.w	r3, r3, #71	@ 0x47
  TIMx->SMCR = tmpsmcr;
 8003388:	e7c4      	b.n	8003314 <HAL_TIM_ConfigClockSource+0xb8>
  __HAL_LOCK(htim);
 800338a:	4602      	mov	r2, r0
 800338c:	e78e      	b.n	80032ac <HAL_TIM_ConfigClockSource+0x50>

0800338e <TIM_CCxChannelCmd>:
  * @param  ChannelState specifies the TIM Channel CCxE bit new state.
  *          This parameter can be: TIM_CCx_ENABLE or TIM_CCx_DISABLE.
  * @retval None
  */
void TIM_CCxChannelCmd(TIM_TypeDef *TIMx, uint32_t Channel, uint32_t ChannelState)
{
 800338e:	b510      	push	{r4, lr}

  /* Check the parameters */
  assert_param(IS_TIM_CC1_INSTANCE(TIMx));
  assert_param(IS_TIM_CHANNELS(Channel));

  tmp = TIM_CCER_CC1E << (Channel & 0x1FU); /* 0x1FU = 31 bits max shift */
 8003390:	2401      	movs	r4, #1

  /* Reset the CCxE Bit */
  TIMx->CCER &= ~tmp;
 8003392:	6a03      	ldr	r3, [r0, #32]
  tmp = TIM_CCER_CC1E << (Channel & 0x1FU); /* 0x1FU = 31 bits max shift */
 8003394:	f001 011f 	and.w	r1, r1, #31
 8003398:	408c      	lsls	r4, r1
  TIMx->CCER &= ~tmp;
 800339a:	ea23 0304 	bic.w	r3, r3, r4
 800339e:	6203      	str	r3, [r0, #32]

  /* Set or reset the CCxE Bit */
  TIMx->CCER |= (uint32_t)(ChannelState << (Channel & 0x1FU)); /* 0x1FU = 31 bits max shift */
 80033a0:	6a03      	ldr	r3, [r0, #32]
 80033a2:	408a      	lsls	r2, r1
 80033a4:	431a      	orrs	r2, r3
 80033a6:	6202      	str	r2, [r0, #32]
}
 80033a8:	bd10      	pop	{r4, pc}
	...

080033ac <HAL_TIM_OC_Start>:
{
 80033ac:	b508      	push	{r3, lr}
  if (TIM_CHANNEL_STATE_GET(htim, Channel) != HAL_TIM_CHANNEL_STATE_READY)
 80033ae:	b929      	cbnz	r1, 80033bc <HAL_TIM_OC_Start+0x10>
 80033b0:	f890 303e 	ldrb.w	r3, [r0, #62]	@ 0x3e
 80033b4:	2b01      	cmp	r3, #1
 80033b6:	d01d      	beq.n	80033f4 <HAL_TIM_OC_Start+0x48>
    return HAL_ERROR;
 80033b8:	2001      	movs	r0, #1
 80033ba:	e02e      	b.n	800341a <HAL_TIM_OC_Start+0x6e>
  if (TIM_CHANNEL_STATE_GET(htim, Channel) != HAL_TIM_CHANNEL_STATE_READY)
 80033bc:	2904      	cmp	r1, #4
 80033be:	d107      	bne.n	80033d0 <HAL_TIM_OC_Start+0x24>
 80033c0:	f890 303f 	ldrb.w	r3, [r0, #63]	@ 0x3f
 80033c4:	2b01      	cmp	r3, #1
 80033c6:	d1f7      	bne.n	80033b8 <HAL_TIM_OC_Start+0xc>
  TIM_CHANNEL_STATE_SET(htim, Channel, HAL_TIM_CHANNEL_STATE_BUSY);
 80033c8:	2302      	movs	r3, #2
 80033ca:	f880 303f 	strb.w	r3, [r0, #63]	@ 0x3f
 80033ce:	e014      	b.n	80033fa <HAL_TIM_OC_Start+0x4e>
  if (TIM_CHANNEL_STATE_GET(htim, Channel) != HAL_TIM_CHANNEL_STATE_READY)
 80033d0:	2908      	cmp	r1, #8
 80033d2:	d107      	bne.n	80033e4 <HAL_TIM_OC_Start+0x38>
 80033d4:	f890 3040 	ldrb.w	r3, [r0, #64]	@ 0x40
 80033d8:	2b01      	cmp	r3, #1
 80033da:	d1ed      	bne.n	80033b8 <HAL_TIM_OC_Start+0xc>
  TIM_CHANNEL_STATE_SET(htim, Channel, HAL_TIM_CHANNEL_STATE_BUSY);
 80033dc:	2302      	movs	r3, #2
 80033de:	f880 3040 	strb.w	r3, [r0, #64]	@ 0x40
 80033e2:	e00a      	b.n	80033fa <HAL_TIM_OC_Start+0x4e>
  if (TIM_CHANNEL_STATE_GET(htim, Channel) != HAL_TIM_CHANNEL_STATE_READY)
 80033e4:	f890 3041 	ldrb.w	r3, [r0, #65]	@ 0x41
 80033e8:	2b01      	cmp	r3, #1
 80033ea:	d1e5      	bne.n	80033b8 <HAL_TIM_OC_Start+0xc>
  TIM_CHANNEL_STATE_SET(htim, Channel, HAL_TIM_CHANNEL_STATE_BUSY);
 80033ec:	2302      	movs	r3, #2
 80033ee:	f880 3041 	strb.w	r3, [r0, #65]	@ 0x41
 80033f2:	e002      	b.n	80033fa <HAL_TIM_OC_Start+0x4e>
 80033f4:	2302      	movs	r3, #2
 80033f6:	f880 303e 	strb.w	r3, [r0, #62]	@ 0x3e
  TIM_CCxChannelCmd(htim->Instance, Channel, TIM_CCx_ENABLE);
 80033fa:	6800      	ldr	r0, [r0, #0]
 80033fc:	2201      	movs	r2, #1
 80033fe:	f7ff ffc6 	bl	800338e <TIM_CCxChannelCmd>
  if (IS_TIM_BREAK_INSTANCE(htim->Instance) != RESET)
 8003402:	4b0d      	ldr	r3, [pc, #52]	@ (8003438 <HAL_TIM_OC_Start+0x8c>)
 8003404:	4298      	cmp	r0, r3
 8003406:	d009      	beq.n	800341c <HAL_TIM_OC_Start+0x70>
  if (IS_TIM_SLAVE_INSTANCE(htim->Instance))
 8003408:	f1b0 4f80 	cmp.w	r0, #1073741824	@ 0x40000000
 800340c:	d10b      	bne.n	8003426 <HAL_TIM_OC_Start+0x7a>
    tmpsmcr = htim->Instance->SMCR & TIM_SMCR_SMS;
 800340e:	6883      	ldr	r3, [r0, #8]
 8003410:	f003 0307 	and.w	r3, r3, #7
    if (!IS_TIM_SLAVEMODE_TRIGGER_ENABLED(tmpsmcr))
 8003414:	2b06      	cmp	r3, #6
 8003416:	d109      	bne.n	800342c <HAL_TIM_OC_Start+0x80>
  return HAL_OK;
 8003418:	2000      	movs	r0, #0
}
 800341a:	bd08      	pop	{r3, pc}
    __HAL_TIM_MOE_ENABLE(htim);
 800341c:	6c43      	ldr	r3, [r0, #68]	@ 0x44
 800341e:	f443 4300 	orr.w	r3, r3, #32768	@ 0x8000
 8003422:	6443      	str	r3, [r0, #68]	@ 0x44
  if (IS_TIM_SLAVE_INSTANCE(htim->Instance))
 8003424:	e7f3      	b.n	800340e <HAL_TIM_OC_Start+0x62>
 8003426:	4b05      	ldr	r3, [pc, #20]	@ (800343c <HAL_TIM_OC_Start+0x90>)
 8003428:	4298      	cmp	r0, r3
 800342a:	d0f0      	beq.n	800340e <HAL_TIM_OC_Start+0x62>
      __HAL_TIM_ENABLE(htim);
 800342c:	6803      	ldr	r3, [r0, #0]
 800342e:	f043 0301 	orr.w	r3, r3, #1
 8003432:	6003      	str	r3, [r0, #0]
 8003434:	e7f0      	b.n	8003418 <HAL_TIM_OC_Start+0x6c>
 8003436:	bf00      	nop
 8003438:	40012c00 	.word	0x40012c00
 800343c:	40000400 	.word	0x40000400

08003440 <HAL_TIM_PWM_Start>:
HAL_StatusTypeDef HAL_TIM_PWM_Start(TIM_HandleTypeDef *htim, uint32_t Channel)
 8003440:	f7ff bfb4 	b.w	80033ac <HAL_TIM_OC_Start>

08003444 <HAL_TIMEx_MasterConfigSynchronization>:
  *         mode.
  * @retval HAL status
  */
HAL_StatusTypeDef HAL_TIMEx_MasterConfigSynchronization(TIM_HandleTypeDef *htim,
                                                        const TIM_MasterConfigTypeDef *sMasterConfig)
{
 8003444:	b530      	push	{r4, r5, lr}
  assert_param(IS_TIM_MASTER_INSTANCE(htim->Instance));
  assert_param(IS_TIM_TRGO_SOURCE(sMasterConfig->MasterOutputTrigger));
  assert_param(IS_TIM_MSM_STATE(sMasterConfig->MasterSlaveMode));

  /* Check input state */
  __HAL_LOCK(htim);
 8003446:	f890 203c 	ldrb.w	r2, [r0, #60]	@ 0x3c
{
 800344a:	4603      	mov	r3, r0
  __HAL_LOCK(htim);
 800344c:	2a01      	cmp	r2, #1
 800344e:	f04f 0002 	mov.w	r0, #2
 8003452:	d01e      	beq.n	8003492 <HAL_TIMEx_MasterConfigSynchronization+0x4e>

  /* Change the handler state */
  htim->State = HAL_TIM_STATE_BUSY;

  /* Get the TIMx CR2 register value */
  tmpcr2 = htim->Instance->CR2;
 8003454:	681a      	ldr	r2, [r3, #0]
  htim->State = HAL_TIM_STATE_BUSY;
 8003456:	f883 003d 	strb.w	r0, [r3, #61]	@ 0x3d
  tmpcr2 = htim->Instance->CR2;
 800345a:	6854      	ldr	r4, [r2, #4]
  tmpsmcr = htim->Instance->SMCR;

  /* Reset the MMS Bits */
  tmpcr2 &= ~TIM_CR2_MMS;
  /* Select the TRGO source */
  tmpcr2 |=  sMasterConfig->MasterOutputTrigger;
 800345c:	680d      	ldr	r5, [r1, #0]
  tmpcr2 &= ~TIM_CR2_MMS;
 800345e:	f024 0470 	bic.w	r4, r4, #112	@ 0x70
  tmpcr2 |=  sMasterConfig->MasterOutputTrigger;
 8003462:	432c      	orrs	r4, r5
  tmpsmcr = htim->Instance->SMCR;
 8003464:	6890      	ldr	r0, [r2, #8]

  /* Update TIMx CR2 */
  htim->Instance->CR2 = tmpcr2;
 8003466:	6054      	str	r4, [r2, #4]

  if (IS_TIM_SLAVE_INSTANCE(htim->Instance))
 8003468:	4c0a      	ldr	r4, [pc, #40]	@ (8003494 <HAL_TIMEx_MasterConfigSynchronization+0x50>)
 800346a:	42a2      	cmp	r2, r4
 800346c:	d006      	beq.n	800347c <HAL_TIMEx_MasterConfigSynchronization+0x38>
 800346e:	f1b2 4f80 	cmp.w	r2, #1073741824	@ 0x40000000
 8003472:	d003      	beq.n	800347c <HAL_TIMEx_MasterConfigSynchronization+0x38>
 8003474:	f5a4 3494 	sub.w	r4, r4, #75776	@ 0x12800
 8003478:	42a2      	cmp	r2, r4
 800347a:	d104      	bne.n	8003486 <HAL_TIMEx_MasterConfigSynchronization+0x42>
  {
    /* Reset the MSM Bit */
    tmpsmcr &= ~TIM_SMCR_MSM;
    /* Set master mode */
    tmpsmcr |= sMasterConfig->MasterSlaveMode;
 800347c:	6849      	ldr	r1, [r1, #4]
    tmpsmcr &= ~TIM_SMCR_MSM;
 800347e:	f020 0080 	bic.w	r0, r0, #128	@ 0x80
    tmpsmcr |= sMasterConfig->MasterSlaveMode;
 8003482:	4301      	orrs	r1, r0

    /* Update TIMx SMCR */
    htim->Instance->SMCR = tmpsmcr;
 8003484:	6091      	str	r1, [r2, #8]
  }

  /* Change the htim state */
  htim->State = HAL_TIM_STATE_READY;
 8003486:	2201      	movs	r2, #1

  __HAL_UNLOCK(htim);
 8003488:	2000      	movs	r0, #0
  htim->State = HAL_TIM_STATE_READY;
 800348a:	f883 203d 	strb.w	r2, [r3, #61]	@ 0x3d
  __HAL_UNLOCK(htim);
 800348e:	f883 003c 	strb.w	r0, [r3, #60]	@ 0x3c

  return HAL_OK;
}
 8003492:	bd30      	pop	{r4, r5, pc}
 8003494:	40012c00 	.word	0x40012c00

08003498 <HAL_TIMEx_ConfigBreakDeadTime>:
  assert_param(IS_TIM_BREAK_STATE(sBreakDeadTimeConfig->BreakState));
  assert_param(IS_TIM_BREAK_POLARITY(sBreakDeadTimeConfig->BreakPolarity));
  assert_param(IS_TIM_AUTOMATIC_OUTPUT_STATE(sBreakDeadTimeConfig->AutomaticOutput));

  /* Check input state */
  __HAL_LOCK(htim);
 8003498:	f890 303c 	ldrb.w	r3, [r0, #60]	@ 0x3c
{
 800349c:	4602      	mov	r2, r0
  __HAL_LOCK(htim);
 800349e:	2b01      	cmp	r3, #1
 80034a0:	d01e      	beq.n	80034e0 <HAL_TIMEx_ConfigBreakDeadTime+0x48>
  /* Set the Lock level, the Break enable Bit and the Polarity, the OSSR State,
     the OSSI State, the dead time value and the Automatic Output Enable Bit */

  /* Set the BDTR bits */
  MODIFY_REG(tmpbdtr, TIM_BDTR_DTG, sBreakDeadTimeConfig->DeadTime);
  MODIFY_REG(tmpbdtr, TIM_BDTR_LOCK, sBreakDeadTimeConfig->LockLevel);
 80034a2:	68cb      	ldr	r3, [r1, #12]
 80034a4:	6888      	ldr	r0, [r1, #8]
 80034a6:	f423 7340 	bic.w	r3, r3, #768	@ 0x300
 80034aa:	4303      	orrs	r3, r0
  MODIFY_REG(tmpbdtr, TIM_BDTR_OSSI, sBreakDeadTimeConfig->OffStateIDLEMode);
 80034ac:	6848      	ldr	r0, [r1, #4]
 80034ae:	f423 6380 	bic.w	r3, r3, #1024	@ 0x400
 80034b2:	4303      	orrs	r3, r0
  MODIFY_REG(tmpbdtr, TIM_BDTR_OSSR, sBreakDeadTimeConfig->OffStateRunMode);
 80034b4:	6808      	ldr	r0, [r1, #0]
 80034b6:	f423 6300 	bic.w	r3, r3, #2048	@ 0x800
 80034ba:	4303      	orrs	r3, r0
  MODIFY_REG(tmpbdtr, TIM_BDTR_BKE, sBreakDeadTimeConfig->BreakState);
 80034bc:	6908      	ldr	r0, [r1, #16]
 80034be:	f423 5380 	bic.w	r3, r3, #4096	@ 0x1000
 80034c2:	4303      	orrs	r3, r0
  MODIFY_REG(tmpbdtr, TIM_BDTR_BKP, sBreakDeadTimeConfig->BreakPolarity);
 80034c4:	6948      	ldr	r0, [r1, #20]
 80034c6:	f423 5300 	bic.w	r3, r3, #8192	@ 0x2000
 80034ca:	4303      	orrs	r3, r0


  /* Set TIMx_BDTR */
  htim->Instance->BDTR = tmpbdtr;

  __HAL_UNLOCK(htim);
 80034cc:	2000      	movs	r0, #0
  MODIFY_REG(tmpbdtr, TIM_BDTR_AOE, sBreakDeadTimeConfig->AutomaticOutput);
 80034ce:	69c9      	ldr	r1, [r1, #28]
 80034d0:	f423 4380 	bic.w	r3, r3, #16384	@ 0x4000
 80034d4:	430b      	orrs	r3, r1
  htim->Instance->BDTR = tmpbdtr;
 80034d6:	6811      	ldr	r1, [r2, #0]
 80034d8:	644b      	str	r3, [r1, #68]	@ 0x44
  __HAL_UNLOCK(htim);
 80034da:	f882 003c 	strb.w	r0, [r2, #60]	@ 0x3c

  return HAL_OK;
 80034de:	4770      	bx	lr
  __HAL_LOCK(htim);
 80034e0:	2002      	movs	r0, #2
}
 80034e2:	4770      	bx	lr

080034e4 <HAL_TIMEx_CommutCallback>:
/**
  * @brief  Commutation callback in non-blocking mode
  * @param  htim TIM handle
  * @retval None
  */
__weak void HAL_TIMEx_CommutCallback(TIM_HandleTypeDef *htim)
 80034e4:	4770      	bx	lr

080034e6 <HAL_TIMEx_BreakCallback>:
/**
  * @brief  Break detection callback in non-blocking mode
  * @param  htim TIM handle
  * @retval None
  */
__weak void HAL_TIMEx_BreakCallback(TIM_HandleTypeDef *htim)
 80034e6:	4770      	bx	lr

080034e8 <UART_EndRxTransfer>:
  * @retval None
  */
static void UART_EndRxTransfer(UART_HandleTypeDef *huart)
{
  /* Disable RXNE, PE and ERR (Frame error, noise error, overrun error) interrupts */
  ATOMIC_CLEAR_BIT(huart->Instance->CR1, (USART_CR1_RXNEIE | USART_CR1_PEIE));
 80034e8:	6802      	ldr	r2, [r0, #0]
 */
__STATIC_FORCEINLINE uint32_t __LDREXW(volatile uint32_t *addr)
{
    uint32_t result;

   __ASM volatile ("ldrex %0, %1" : "=r" (result) : "Q" (*addr) );
 80034ea:	f102 030c 	add.w	r3, r2, #12
 80034ee:	e853 3f00 	ldrex	r3, [r3]
 80034f2:	f423 7390 	bic.w	r3, r3, #288	@ 0x120
 */
__STATIC_FORCEINLINE uint32_t __STREXW(uint32_t value, volatile uint32_t *addr)
{
   uint32_t result;

   __ASM volatile ("strex %0, %2, %1" : "=&r" (result), "=Q" (*addr) : "r" (value) );
 80034f6:	320c      	adds	r2, #12
 80034f8:	e842 3100 	strex	r1, r3, [r2]
   return(result);
 80034fc:	6802      	ldr	r2, [r0, #0]
 80034fe:	2900      	cmp	r1, #0
 8003500:	d1f2      	bne.n	80034e8 <UART_EndRxTransfer>
   __ASM volatile ("ldrex %0, %1" : "=r" (result) : "Q" (*addr) );
 8003502:	f102 0314 	add.w	r3, r2, #20
 8003506:	e853 3f00 	ldrex	r3, [r3]
  ATOMIC_CLEAR_BIT(huart->Instance->CR3, USART_CR3_EIE);
 800350a:	f023 0301 	bic.w	r3, r3, #1
   __ASM volatile ("strex %0, %2, %1" : "=&r" (result), "=Q" (*addr) : "r" (value) );
 800350e:	f102 0c14 	add.w	ip, r2, #20
 8003512:	e84c 3100 	strex	r1, r3, [ip]
 8003516:	2900      	cmp	r1, #0
 8003518:	d1f3      	bne.n	8003502 <UART_EndRxTransfer+0x1a>

  /* In case of reception waiting for IDLE event, disable also the IDLE IE interrupt source */
  if (huart->ReceptionType == HAL_UART_RECEPTION_TOIDLE)
 800351a:	6b03      	ldr	r3, [r0, #48]	@ 0x30
 800351c:	2b01      	cmp	r3, #1
 800351e:	d10b      	bne.n	8003538 <UART_EndRxTransfer+0x50>
   __ASM volatile ("ldrex %0, %1" : "=r" (result) : "Q" (*addr) );
 8003520:	f102 030c 	add.w	r3, r2, #12
 8003524:	e853 3f00 	ldrex	r3, [r3]
  {
    ATOMIC_CLEAR_BIT(huart->Instance->CR1, USART_CR1_IDLEIE);
 8003528:	f023 0310 	bic.w	r3, r3, #16
   __ASM volatile ("strex %0, %2, %1" : "=&r" (result), "=Q" (*addr) : "r" (value) );
 800352c:	f102 0c0c 	add.w	ip, r2, #12
 8003530:	e84c 3100 	strex	r1, r3, [ip]
 8003534:	2900      	cmp	r1, #0
 8003536:	d1f3      	bne.n	8003520 <UART_EndRxTransfer+0x38>
  }

  /* At end of Rx process, restore huart->RxState to Ready */
  huart->RxState = HAL_UART_STATE_READY;
 8003538:	2320      	movs	r3, #32
 800353a:	f880 3042 	strb.w	r3, [r0, #66]	@ 0x42
  huart->ReceptionType = HAL_UART_RECEPTION_STANDARD;
 800353e:	2300      	movs	r3, #0
 8003540:	6303      	str	r3, [r0, #48]	@ 0x30
}
 8003542:	4770      	bx	lr

08003544 <UART_SetConfig>:
  * @param  huart  Pointer to a UART_HandleTypeDef structure that contains
  *                the configuration information for the specified UART module.
  * @retval None
  */
static void UART_SetConfig(UART_HandleTypeDef *huart)
{
 8003544:	b510      	push	{r4, lr}
 8003546:	4604      	mov	r4, r0
  assert_param(IS_UART_MODE(huart->Init.Mode));

  /*-------------------------- USART CR2 Configuration -----------------------*/
  /* Configure the UART Stop Bits: Set STOP[13:12] bits
     according to huart->Init.StopBits value */
  MODIFY_REG(huart->Instance->CR2, USART_CR2_STOP, huart->Init.StopBits);
 8003548:	6803      	ldr	r3, [r0, #0]
 800354a:	68c1      	ldr	r1, [r0, #12]
 800354c:	691a      	ldr	r2, [r3, #16]
 800354e:	f422 5240 	bic.w	r2, r2, #12288	@ 0x3000
 8003552:	430a      	orrs	r2, r1
 8003554:	611a      	str	r2, [r3, #16]
  tmpreg = (uint32_t)huart->Init.WordLength | huart->Init.Parity | huart->Init.Mode | huart->Init.OverSampling;
  MODIFY_REG(huart->Instance->CR1,
             (uint32_t)(USART_CR1_M | USART_CR1_PCE | USART_CR1_PS | USART_CR1_TE | USART_CR1_RE | USART_CR1_OVER8),
             tmpreg);
#else
  tmpreg = (uint32_t)huart->Init.WordLength | huart->Init.Parity | huart->Init.Mode;
 8003556:	6882      	ldr	r2, [r0, #8]
 8003558:	6900      	ldr	r0, [r0, #16]
  MODIFY_REG(huart->Instance->CR1,
 800355a:	68d9      	ldr	r1, [r3, #12]
  tmpreg = (uint32_t)huart->Init.WordLength | huart->Init.Parity | huart->Init.Mode;
 800355c:	4302      	orrs	r2, r0
 800355e:	6960      	ldr	r0, [r4, #20]
  MODIFY_REG(huart->Instance->CR1,
 8003560:	f421 51b0 	bic.w	r1, r1, #5632	@ 0x1600
 8003564:	f021 010c 	bic.w	r1, r1, #12
  tmpreg = (uint32_t)huart->Init.WordLength | huart->Init.Parity | huart->Init.Mode;
 8003568:	4302      	orrs	r2, r0
  MODIFY_REG(huart->Instance->CR1,
 800356a:	430a      	orrs	r2, r1
 800356c:	60da      	str	r2, [r3, #12]
             tmpreg);
#endif /* USART_CR1_OVER8 */

  /*-------------------------- USART CR3 Configuration -----------------------*/
  /* Configure the UART HFC: Set CTSE and RTSE bits according to huart->Init.HwFlowCtl value */
  MODIFY_REG(huart->Instance->CR3, (USART_CR3_RTSE | USART_CR3_CTSE), huart->Init.HwFlowCtl);
 800356e:	695a      	ldr	r2, [r3, #20]
 8003570:	69a1      	ldr	r1, [r4, #24]
 8003572:	f422 7240 	bic.w	r2, r2, #768	@ 0x300
 8003576:	430a      	orrs	r2, r1
 8003578:	615a      	str	r2, [r3, #20]


  if(huart->Instance == USART1)
 800357a:	4a0e      	ldr	r2, [pc, #56]	@ (80035b4 <UART_SetConfig+0x70>)
 800357c:	4293      	cmp	r3, r2
 800357e:	d115      	bne.n	80035ac <UART_SetConfig+0x68>
  {
    pclk = HAL_RCC_GetPCLK2Freq();
 8003580:	f7ff fb14 	bl	8002bac <HAL_RCC_GetPCLK2Freq>
  else
  {
    huart->Instance->BRR = UART_BRR_SAMPLING16(pclk, huart->Init.BaudRate);
  }
#else
  huart->Instance->BRR = UART_BRR_SAMPLING16(pclk, huart->Init.BaudRate);
 8003584:	2319      	movs	r3, #25
 8003586:	4343      	muls	r3, r0
 8003588:	6862      	ldr	r2, [r4, #4]
 800358a:	6820      	ldr	r0, [r4, #0]
 800358c:	0092      	lsls	r2, r2, #2
 800358e:	fbb3 f3f2 	udiv	r3, r3, r2
 8003592:	2264      	movs	r2, #100	@ 0x64
 8003594:	fbb3 f1f2 	udiv	r1, r3, r2
 8003598:	fb02 3311 	mls	r3, r2, r1, r3
 800359c:	011b      	lsls	r3, r3, #4
 800359e:	3332      	adds	r3, #50	@ 0x32
 80035a0:	fbb3 f3f2 	udiv	r3, r3, r2
 80035a4:	eb03 1301 	add.w	r3, r3, r1, lsl #4
 80035a8:	6083      	str	r3, [r0, #8]
#endif /* USART_CR1_OVER8 */
}
 80035aa:	bd10      	pop	{r4, pc}
    pclk = HAL_RCC_GetPCLK1Freq();
 80035ac:	f7ff faee 	bl	8002b8c <HAL_RCC_GetPCLK1Freq>
 80035b0:	e7e8      	b.n	8003584 <UART_SetConfig+0x40>
 80035b2:	bf00      	nop
 80035b4:	40013800 	.word	0x40013800

080035b8 <HAL_UART_Init>:
{
 80035b8:	b510      	push	{r4, lr}
  if (huart == NULL)
 80035ba:	4604      	mov	r4, r0
 80035bc:	b348      	cbz	r0, 8003612 <HAL_UART_Init+0x5a>
  if (huart->gState == HAL_UART_STATE_RESET)
 80035be:	f890 3041 	ldrb.w	r3, [r0, #65]	@ 0x41
 80035c2:	f003 02ff 	and.w	r2, r3, #255	@ 0xff
 80035c6:	b91b      	cbnz	r3, 80035d0 <HAL_UART_Init+0x18>
    huart->Lock = HAL_UNLOCKED;
 80035c8:	f880 2040 	strb.w	r2, [r0, #64]	@ 0x40
    HAL_UART_MspInit(huart);
 80035cc:	f7fd fffc 	bl	80015c8 <HAL_UART_MspInit>
  huart->gState = HAL_UART_STATE_BUSY;
 80035d0:	2324      	movs	r3, #36	@ 0x24
  __HAL_UART_DISABLE(huart);
 80035d2:	6822      	ldr	r2, [r4, #0]
  huart->gState = HAL_UART_STATE_BUSY;
 80035d4:	f884 3041 	strb.w	r3, [r4, #65]	@ 0x41
  __HAL_UART_DISABLE(huart);
 80035d8:	68d3      	ldr	r3, [r2, #12]
  UART_SetConfig(huart);
 80035da:	4620      	mov	r0, r4
  __HAL_UART_DISABLE(huart);
 80035dc:	f423 5300 	bic.w	r3, r3, #8192	@ 0x2000
 80035e0:	60d3      	str	r3, [r2, #12]
  UART_SetConfig(huart);
 80035e2:	f7ff ffaf 	bl	8003544 <UART_SetConfig>
  CLEAR_BIT(huart->Instance->CR2, (USART_CR2_LINEN | USART_CR2_CLKEN));
 80035e6:	6823      	ldr	r3, [r4, #0]
  huart->ErrorCode = HAL_UART_ERROR_NONE;
 80035e8:	2000      	movs	r0, #0
  CLEAR_BIT(huart->Instance->CR2, (USART_CR2_LINEN | USART_CR2_CLKEN));
 80035ea:	691a      	ldr	r2, [r3, #16]
 80035ec:	f422 4290 	bic.w	r2, r2, #18432	@ 0x4800
 80035f0:	611a      	str	r2, [r3, #16]
  CLEAR_BIT(huart->Instance->CR3, (USART_CR3_SCEN | USART_CR3_HDSEL | USART_CR3_IREN));
 80035f2:	695a      	ldr	r2, [r3, #20]
 80035f4:	f022 022a 	bic.w	r2, r2, #42	@ 0x2a
 80035f8:	615a      	str	r2, [r3, #20]
  __HAL_UART_ENABLE(huart);
 80035fa:	68da      	ldr	r2, [r3, #12]
 80035fc:	f442 5200 	orr.w	r2, r2, #8192	@ 0x2000
 8003600:	60da      	str	r2, [r3, #12]
  huart->gState = HAL_UART_STATE_READY;
 8003602:	2320      	movs	r3, #32
  huart->ErrorCode = HAL_UART_ERROR_NONE;
 8003604:	6460      	str	r0, [r4, #68]	@ 0x44
  huart->gState = HAL_UART_STATE_READY;
 8003606:	f884 3041 	strb.w	r3, [r4, #65]	@ 0x41
  huart->RxState = HAL_UART_STATE_READY;
 800360a:	f884 3042 	strb.w	r3, [r4, #66]	@ 0x42
  huart->RxEventType = HAL_UART_RXEVENT_TC;
 800360e:	6360      	str	r0, [r4, #52]	@ 0x34
}
 8003610:	bd10      	pop	{r4, pc}
    return HAL_ERROR;
 8003612:	2001      	movs	r0, #1
 8003614:	e7fc      	b.n	8003610 <HAL_UART_Init+0x58>

08003616 <HAL_UART_TxCpltCallback>:
__weak void HAL_UART_TxCpltCallback(UART_HandleTypeDef *huart)
 8003616:	4770      	bx	lr

08003618 <HAL_UART_RxCpltCallback>:
__weak void HAL_UART_RxCpltCallback(UART_HandleTypeDef *huart)
 8003618:	4770      	bx	lr

0800361a <HAL_UART_ErrorCallback>:
__weak void HAL_UART_ErrorCallback(UART_HandleTypeDef *huart)
 800361a:	4770      	bx	lr

0800361c <UART_DMAAbortOnError>:
{
 800361c:	b508      	push	{r3, lr}
  huart->RxXferCount = 0x00U;
 800361e:	2300      	movs	r3, #0
  UART_HandleTypeDef *huart = (UART_HandleTypeDef *)((DMA_HandleTypeDef *)hdma)->Parent;
 8003620:	6a40      	ldr	r0, [r0, #36]	@ 0x24
  huart->RxXferCount = 0x00U;
 8003622:	85c3      	strh	r3, [r0, #46]	@ 0x2e
  huart->TxXferCount = 0x00U;
 8003624:	84c3      	strh	r3, [r0, #38]	@ 0x26
  HAL_UART_ErrorCallback(huart);
 8003626:	f7ff fff8 	bl	800361a <HAL_UART_ErrorCallback>
}
 800362a:	bd08      	pop	{r3, pc}

0800362c <HAL_UARTEx_RxEventCallback>:
}
 800362c:	4770      	bx	lr

0800362e <UART_Receive_IT.isra.0>:
  if (huart->RxState == HAL_UART_STATE_BUSY_RX)
 800362e:	f890 3042 	ldrb.w	r3, [r0, #66]	@ 0x42
static HAL_StatusTypeDef UART_Receive_IT(UART_HandleTypeDef *huart)
 8003632:	b507      	push	{r0, r1, r2, lr}
  if (huart->RxState == HAL_UART_STATE_BUSY_RX)
 8003634:	2b22      	cmp	r3, #34	@ 0x22
 8003636:	d142      	bne.n	80036be <UART_Receive_IT.isra.0+0x90>
    if ((huart->Init.WordLength == UART_WORDLENGTH_9B) && (huart->Init.Parity == UART_PARITY_NONE))
 8003638:	6881      	ldr	r1, [r0, #8]
      *pdata16bits = (uint16_t)(huart->Instance->DR & (uint16_t)0x01FF);
 800363a:	6802      	ldr	r2, [r0, #0]
    if ((huart->Init.WordLength == UART_WORDLENGTH_9B) && (huart->Init.Parity == UART_PARITY_NONE))
 800363c:	f5b1 5f80 	cmp.w	r1, #4096	@ 0x1000
      pdata16bits = (uint16_t *) huart->pRxBuffPtr;
 8003640:	6a83      	ldr	r3, [r0, #40]	@ 0x28
    if ((huart->Init.WordLength == UART_WORDLENGTH_9B) && (huart->Init.Parity == UART_PARITY_NONE))
 8003642:	d13f      	bne.n	80036c4 <UART_Receive_IT.isra.0+0x96>
 8003644:	6901      	ldr	r1, [r0, #16]
 8003646:	2900      	cmp	r1, #0
 8003648:	d13f      	bne.n	80036ca <UART_Receive_IT.isra.0+0x9c>
      *pdata16bits = (uint16_t)(huart->Instance->DR & (uint16_t)0x01FF);
 800364a:	6852      	ldr	r2, [r2, #4]
 800364c:	f3c2 0208 	ubfx	r2, r2, #0, #9
 8003650:	f823 2b02 	strh.w	r2, [r3], #2
      huart->pRxBuffPtr += 2U;
 8003654:	6283      	str	r3, [r0, #40]	@ 0x28
    if (--huart->RxXferCount == 0U)
 8003656:	8dc3      	ldrh	r3, [r0, #46]	@ 0x2e
 8003658:	3b01      	subs	r3, #1
 800365a:	b29b      	uxth	r3, r3
 800365c:	85c3      	strh	r3, [r0, #46]	@ 0x2e
 800365e:	2b00      	cmp	r3, #0
 8003660:	d12d      	bne.n	80036be <UART_Receive_IT.isra.0+0x90>
      __HAL_UART_DISABLE_IT(huart, UART_IT_RXNE);
 8003662:	6802      	ldr	r2, [r0, #0]
 8003664:	68d1      	ldr	r1, [r2, #12]
 8003666:	f021 0120 	bic.w	r1, r1, #32
 800366a:	60d1      	str	r1, [r2, #12]
      __HAL_UART_DISABLE_IT(huart, UART_IT_PE);
 800366c:	68d1      	ldr	r1, [r2, #12]
 800366e:	f421 7180 	bic.w	r1, r1, #256	@ 0x100
 8003672:	60d1      	str	r1, [r2, #12]
      __HAL_UART_DISABLE_IT(huart, UART_IT_ERR);
 8003674:	6951      	ldr	r1, [r2, #20]
 8003676:	f021 0101 	bic.w	r1, r1, #1
 800367a:	6151      	str	r1, [r2, #20]
      huart->RxState = HAL_UART_STATE_READY;
 800367c:	2220      	movs	r2, #32
 800367e:	f880 2042 	strb.w	r2, [r0, #66]	@ 0x42
      huart->RxEventType = HAL_UART_RXEVENT_TC;
 8003682:	6343      	str	r3, [r0, #52]	@ 0x34
      if (huart->ReceptionType == HAL_UART_RECEPTION_TOIDLE)
 8003684:	6b02      	ldr	r2, [r0, #48]	@ 0x30
 8003686:	2a01      	cmp	r2, #1
 8003688:	6802      	ldr	r2, [r0, #0]
 800368a:	d128      	bne.n	80036de <UART_Receive_IT.isra.0+0xb0>
        huart->ReceptionType = HAL_UART_RECEPTION_STANDARD;
 800368c:	6303      	str	r3, [r0, #48]	@ 0x30
   __ASM volatile ("ldrex %0, %1" : "=r" (result) : "Q" (*addr) );
 800368e:	f102 030c 	add.w	r3, r2, #12
 8003692:	e853 3f00 	ldrex	r3, [r3]
        ATOMIC_CLEAR_BIT(huart->Instance->CR1, USART_CR1_IDLEIE);
 8003696:	f023 0310 	bic.w	r3, r3, #16
   __ASM volatile ("strex %0, %2, %1" : "=&r" (result), "=Q" (*addr) : "r" (value) );
 800369a:	f102 0c0c 	add.w	ip, r2, #12
 800369e:	e84c 3100 	strex	r1, r3, [ip]
 80036a2:	2900      	cmp	r1, #0
 80036a4:	d1f3      	bne.n	800368e <UART_Receive_IT.isra.0+0x60>
        if (__HAL_UART_GET_FLAG(huart, UART_FLAG_IDLE))
 80036a6:	6813      	ldr	r3, [r2, #0]
 80036a8:	06db      	lsls	r3, r3, #27
 80036aa:	d505      	bpl.n	80036b8 <UART_Receive_IT.isra.0+0x8a>
          __HAL_UART_CLEAR_IDLEFLAG(huart);
 80036ac:	9101      	str	r1, [sp, #4]
 80036ae:	6813      	ldr	r3, [r2, #0]
 80036b0:	9301      	str	r3, [sp, #4]
 80036b2:	6853      	ldr	r3, [r2, #4]
 80036b4:	9301      	str	r3, [sp, #4]
 80036b6:	9b01      	ldr	r3, [sp, #4]
        HAL_UARTEx_RxEventCallback(huart, huart->RxXferSize);
 80036b8:	8d81      	ldrh	r1, [r0, #44]	@ 0x2c
 80036ba:	f7ff ffb7 	bl	800362c <HAL_UARTEx_RxEventCallback>
}
 80036be:	b003      	add	sp, #12
 80036c0:	f85d fb04 	ldr.w	pc, [sp], #4
      if ((huart->Init.WordLength == UART_WORDLENGTH_9B) || ((huart->Init.WordLength == UART_WORDLENGTH_8B) && (huart->Init.Parity == UART_PARITY_NONE)))
 80036c4:	b939      	cbnz	r1, 80036d6 <UART_Receive_IT.isra.0+0xa8>
 80036c6:	6901      	ldr	r1, [r0, #16]
 80036c8:	b929      	cbnz	r1, 80036d6 <UART_Receive_IT.isra.0+0xa8>
        *pdata8bits = (uint8_t)(huart->Instance->DR & (uint8_t)0x00FF);
 80036ca:	6852      	ldr	r2, [r2, #4]
 80036cc:	b2d2      	uxtb	r2, r2
 80036ce:	701a      	strb	r2, [r3, #0]
      huart->pRxBuffPtr += 1U;
 80036d0:	6a83      	ldr	r3, [r0, #40]	@ 0x28
 80036d2:	3301      	adds	r3, #1
 80036d4:	e7be      	b.n	8003654 <UART_Receive_IT.isra.0+0x26>
        *pdata8bits = (uint8_t)(huart->Instance->DR & (uint8_t)0x007F);
 80036d6:	6852      	ldr	r2, [r2, #4]
 80036d8:	f002 027f 	and.w	r2, r2, #127	@ 0x7f
 80036dc:	e7f7      	b.n	80036ce <UART_Receive_IT.isra.0+0xa0>
        HAL_UART_RxCpltCallback(huart);
 80036de:	f7ff ff9b 	bl	8003618 <HAL_UART_RxCpltCallback>
 80036e2:	e7ec      	b.n	80036be <UART_Receive_IT.isra.0+0x90>

080036e4 <HAL_UART_IRQHandler>:
  uint32_t isrflags   = READ_REG(huart->Instance->SR);
 80036e4:	6803      	ldr	r3, [r0, #0]
{
 80036e6:	b573      	push	{r0, r1, r4, r5, r6, lr}
  uint32_t isrflags   = READ_REG(huart->Instance->SR);
 80036e8:	681a      	ldr	r2, [r3, #0]
{
 80036ea:	4604      	mov	r4, r0
  if (errorflags == RESET)
 80036ec:	0716      	lsls	r6, r2, #28
  uint32_t cr1its     = READ_REG(huart->Instance->CR1);
 80036ee:	68d9      	ldr	r1, [r3, #12]
  uint32_t cr3its     = READ_REG(huart->Instance->CR3);
 80036f0:	695d      	ldr	r5, [r3, #20]
  if (errorflags == RESET)
 80036f2:	d108      	bne.n	8003706 <HAL_UART_IRQHandler+0x22>
    if (((isrflags & USART_SR_RXNE) != RESET) && ((cr1its & USART_CR1_RXNEIE) != RESET))
 80036f4:	0696      	lsls	r6, r2, #26
 80036f6:	d568      	bpl.n	80037ca <HAL_UART_IRQHandler+0xe6>
 80036f8:	068d      	lsls	r5, r1, #26
 80036fa:	d566      	bpl.n	80037ca <HAL_UART_IRQHandler+0xe6>
}
 80036fc:	b002      	add	sp, #8
 80036fe:	e8bd 4070 	ldmia.w	sp!, {r4, r5, r6, lr}
      UART_Receive_IT(huart);
 8003702:	f7ff bf94 	b.w	800362e <UART_Receive_IT.isra.0>
  if ((errorflags != RESET) && (((cr3its & USART_CR3_EIE) != RESET)
 8003706:	f005 0001 	and.w	r0, r5, #1
                                || ((cr1its & (USART_CR1_RXNEIE | USART_CR1_PEIE)) != RESET)))
 800370a:	f401 7590 	and.w	r5, r1, #288	@ 0x120
 800370e:	4305      	orrs	r5, r0
 8003710:	d05b      	beq.n	80037ca <HAL_UART_IRQHandler+0xe6>
    if (((isrflags & USART_SR_PE) != RESET) && ((cr1its & USART_CR1_PEIE) != RESET))
 8003712:	07d6      	lsls	r6, r2, #31
 8003714:	d505      	bpl.n	8003722 <HAL_UART_IRQHandler+0x3e>
 8003716:	05cd      	lsls	r5, r1, #23
      huart->ErrorCode |= HAL_UART_ERROR_PE;
 8003718:	bf42      	ittt	mi
 800371a:	6c63      	ldrmi	r3, [r4, #68]	@ 0x44
 800371c:	f043 0301 	orrmi.w	r3, r3, #1
 8003720:	6463      	strmi	r3, [r4, #68]	@ 0x44
    if (((isrflags & USART_SR_NE) != RESET) && ((cr3its & USART_CR3_EIE) != RESET))
 8003722:	0753      	lsls	r3, r2, #29
 8003724:	d504      	bpl.n	8003730 <HAL_UART_IRQHandler+0x4c>
 8003726:	b118      	cbz	r0, 8003730 <HAL_UART_IRQHandler+0x4c>
      huart->ErrorCode |= HAL_UART_ERROR_NE;
 8003728:	6c63      	ldr	r3, [r4, #68]	@ 0x44
 800372a:	f043 0302 	orr.w	r3, r3, #2
 800372e:	6463      	str	r3, [r4, #68]	@ 0x44
    if (((isrflags & USART_SR_FE) != RESET) && ((cr3its & USART_CR3_EIE) != RESET))
 8003730:	0796      	lsls	r6, r2, #30
 8003732:	d504      	bpl.n	800373e <HAL_UART_IRQHandler+0x5a>
 8003734:	b118      	cbz	r0, 800373e <HAL_UART_IRQHandler+0x5a>
      huart->ErrorCode |= HAL_UART_ERROR_FE;
 8003736:	6c63      	ldr	r3, [r4, #68]	@ 0x44
 8003738:	f043 0304 	orr.w	r3, r3, #4
 800373c:	6463      	str	r3, [r4, #68]	@ 0x44
    if (((isrflags & USART_SR_ORE) != RESET) && (((cr1its & USART_CR1_RXNEIE) != RESET)
 800373e:	0715      	lsls	r5, r2, #28
 8003740:	d507      	bpl.n	8003752 <HAL_UART_IRQHandler+0x6e>
 8003742:	f001 0320 	and.w	r3, r1, #32
 8003746:	4303      	orrs	r3, r0
      huart->ErrorCode |= HAL_UART_ERROR_ORE;
 8003748:	bf1e      	ittt	ne
 800374a:	6c63      	ldrne	r3, [r4, #68]	@ 0x44
 800374c:	f043 0308 	orrne.w	r3, r3, #8
 8003750:	6463      	strne	r3, [r4, #68]	@ 0x44
    if (huart->ErrorCode != HAL_UART_ERROR_NONE)
 8003752:	6c63      	ldr	r3, [r4, #68]	@ 0x44
 8003754:	2b00      	cmp	r3, #0
 8003756:	d032      	beq.n	80037be <HAL_UART_IRQHandler+0xda>
      if (((isrflags & USART_SR_RXNE) != RESET) && ((cr1its & USART_CR1_RXNEIE) != RESET))
 8003758:	0692      	lsls	r2, r2, #26
 800375a:	d504      	bpl.n	8003766 <HAL_UART_IRQHandler+0x82>
 800375c:	068b      	lsls	r3, r1, #26
 800375e:	d502      	bpl.n	8003766 <HAL_UART_IRQHandler+0x82>
        UART_Receive_IT(huart);
 8003760:	4620      	mov	r0, r4
 8003762:	f7ff ff64 	bl	800362e <UART_Receive_IT.isra.0>
      dmarequest = HAL_IS_BIT_SET(huart->Instance->CR3, USART_CR3_DMAR);
 8003766:	6826      	ldr	r6, [r4, #0]
        UART_EndRxTransfer(huart);
 8003768:	4620      	mov	r0, r4
      dmarequest = HAL_IS_BIT_SET(huart->Instance->CR3, USART_CR3_DMAR);
 800376a:	6973      	ldr	r3, [r6, #20]
      if (((huart->ErrorCode & HAL_UART_ERROR_ORE) != RESET) || dmarequest)
 800376c:	6c62      	ldr	r2, [r4, #68]	@ 0x44
      dmarequest = HAL_IS_BIT_SET(huart->Instance->CR3, USART_CR3_DMAR);
 800376e:	f003 0340 	and.w	r3, r3, #64	@ 0x40
      if (((huart->ErrorCode & HAL_UART_ERROR_ORE) != RESET) || dmarequest)
 8003772:	f002 0208 	and.w	r2, r2, #8
 8003776:	ea53 0502 	orrs.w	r5, r3, r2
 800377a:	d022      	beq.n	80037c2 <HAL_UART_IRQHandler+0xde>
        UART_EndRxTransfer(huart);
 800377c:	f7ff feb4 	bl	80034e8 <UART_EndRxTransfer>
        if (HAL_IS_BIT_SET(huart->Instance->CR3, USART_CR3_DMAR))
 8003780:	6973      	ldr	r3, [r6, #20]
 8003782:	065e      	lsls	r6, r3, #25
 8003784:	d518      	bpl.n	80037b8 <HAL_UART_IRQHandler+0xd4>
          ATOMIC_CLEAR_BIT(huart->Instance->CR3, USART_CR3_DMAR);
 8003786:	6822      	ldr	r2, [r4, #0]
   __ASM volatile ("ldrex %0, %1" : "=r" (result) : "Q" (*addr) );
 8003788:	f102 0314 	add.w	r3, r2, #20
 800378c:	e853 3f00 	ldrex	r3, [r3]
 8003790:	f023 0340 	bic.w	r3, r3, #64	@ 0x40
   __ASM volatile ("strex %0, %2, %1" : "=&r" (result), "=Q" (*addr) : "r" (value) );
 8003794:	3214      	adds	r2, #20
 8003796:	e842 3100 	strex	r1, r3, [r2]
 800379a:	2900      	cmp	r1, #0
 800379c:	d1f3      	bne.n	8003786 <HAL_UART_IRQHandler+0xa2>
          if (huart->hdmarx != NULL)
 800379e:	6be0      	ldr	r0, [r4, #60]	@ 0x3c
 80037a0:	b150      	cbz	r0, 80037b8 <HAL_UART_IRQHandler+0xd4>
            huart->hdmarx->XferAbortCallback = UART_DMAAbortOnError;
 80037a2:	4b74      	ldr	r3, [pc, #464]	@ (8003974 <HAL_UART_IRQHandler+0x290>)
 80037a4:	6343      	str	r3, [r0, #52]	@ 0x34
            if (HAL_DMA_Abort_IT(huart->hdmarx) != HAL_OK)
 80037a6:	f7fe fb7b 	bl	8001ea0 <HAL_DMA_Abort_IT>
 80037aa:	b140      	cbz	r0, 80037be <HAL_UART_IRQHandler+0xda>
              huart->hdmarx->XferAbortCallback(huart->hdmarx);
 80037ac:	6be0      	ldr	r0, [r4, #60]	@ 0x3c
 80037ae:	6b43      	ldr	r3, [r0, #52]	@ 0x34
}
 80037b0:	b002      	add	sp, #8
 80037b2:	e8bd 4070 	ldmia.w	sp!, {r4, r5, r6, lr}
              huart->hdmarx->XferAbortCallback(huart->hdmarx);
 80037b6:	4718      	bx	r3
            HAL_UART_ErrorCallback(huart);
 80037b8:	4620      	mov	r0, r4
 80037ba:	f7ff ff2e 	bl	800361a <HAL_UART_ErrorCallback>
}
 80037be:	b002      	add	sp, #8
 80037c0:	bd70      	pop	{r4, r5, r6, pc}
        HAL_UART_ErrorCallback(huart);
 80037c2:	f7ff ff2a 	bl	800361a <HAL_UART_ErrorCallback>
        huart->ErrorCode = HAL_UART_ERROR_NONE;
 80037c6:	6465      	str	r5, [r4, #68]	@ 0x44
 80037c8:	e7f9      	b.n	80037be <HAL_UART_IRQHandler+0xda>
  if ((huart->ReceptionType == HAL_UART_RECEPTION_TOIDLE)
 80037ca:	6b20      	ldr	r0, [r4, #48]	@ 0x30
 80037cc:	2801      	cmp	r0, #1
 80037ce:	f040 8094 	bne.w	80038fa <HAL_UART_IRQHandler+0x216>
      && ((isrflags & USART_SR_IDLE) != 0U)
 80037d2:	06d5      	lsls	r5, r2, #27
 80037d4:	f140 8091 	bpl.w	80038fa <HAL_UART_IRQHandler+0x216>
      && ((cr1its & USART_SR_IDLE) != 0U))
 80037d8:	06c8      	lsls	r0, r1, #27
 80037da:	f140 808e 	bpl.w	80038fa <HAL_UART_IRQHandler+0x216>
    __HAL_UART_CLEAR_IDLEFLAG(huart);
 80037de:	2200      	movs	r2, #0
 80037e0:	9201      	str	r2, [sp, #4]
 80037e2:	681a      	ldr	r2, [r3, #0]
 80037e4:	9201      	str	r2, [sp, #4]
 80037e6:	685a      	ldr	r2, [r3, #4]
 80037e8:	9201      	str	r2, [sp, #4]
 80037ea:	9a01      	ldr	r2, [sp, #4]
    if (HAL_IS_BIT_SET(huart->Instance->CR3, USART_CR3_DMAR))
 80037ec:	695a      	ldr	r2, [r3, #20]
 80037ee:	0652      	lsls	r2, r2, #25
 80037f0:	d54d      	bpl.n	800388e <HAL_UART_IRQHandler+0x1aa>
      uint16_t nb_remaining_rx_data = (uint16_t) __HAL_DMA_GET_COUNTER(huart->hdmarx);
 80037f2:	6be1      	ldr	r1, [r4, #60]	@ 0x3c
 80037f4:	680a      	ldr	r2, [r1, #0]
 80037f6:	6852      	ldr	r2, [r2, #4]
 80037f8:	b292      	uxth	r2, r2
      if ((nb_remaining_rx_data > 0U)
 80037fa:	2a00      	cmp	r2, #0
 80037fc:	d0df      	beq.n	80037be <HAL_UART_IRQHandler+0xda>
          && (nb_remaining_rx_data < huart->RxXferSize))
 80037fe:	8da0      	ldrh	r0, [r4, #44]	@ 0x2c
 8003800:	4290      	cmp	r0, r2
 8003802:	d9dc      	bls.n	80037be <HAL_UART_IRQHandler+0xda>
        huart->RxXferCount = nb_remaining_rx_data;
 8003804:	85e2      	strh	r2, [r4, #46]	@ 0x2e
        if (huart->hdmarx->Init.Mode != DMA_CIRCULAR)
 8003806:	698a      	ldr	r2, [r1, #24]
 8003808:	2a20      	cmp	r2, #32
 800380a:	d036      	beq.n	800387a <HAL_UART_IRQHandler+0x196>
   __ASM volatile ("ldrex %0, %1" : "=r" (result) : "Q" (*addr) );
 800380c:	f103 020c 	add.w	r2, r3, #12
 8003810:	e852 2f00 	ldrex	r2, [r2]
          ATOMIC_CLEAR_BIT(huart->Instance->CR1, USART_CR1_PEIE);
 8003814:	f422 7280 	bic.w	r2, r2, #256	@ 0x100
   __ASM volatile ("strex %0, %2, %1" : "=&r" (result), "=Q" (*addr) : "r" (value) );
 8003818:	f103 000c 	add.w	r0, r3, #12
 800381c:	e840 2100 	strex	r1, r2, [r0]
 8003820:	2900      	cmp	r1, #0
 8003822:	d1f3      	bne.n	800380c <HAL_UART_IRQHandler+0x128>
   __ASM volatile ("ldrex %0, %1" : "=r" (result) : "Q" (*addr) );
 8003824:	f103 0214 	add.w	r2, r3, #20
 8003828:	e852 2f00 	ldrex	r2, [r2]
          ATOMIC_CLEAR_BIT(huart->Instance->CR3, USART_CR3_EIE);
 800382c:	f022 0201 	bic.w	r2, r2, #1
   __ASM volatile ("strex %0, %2, %1" : "=&r" (result), "=Q" (*addr) : "r" (value) );
 8003830:	f103 0014 	add.w	r0, r3, #20
 8003834:	e840 2100 	strex	r1, r2, [r0]
 8003838:	2900      	cmp	r1, #0
 800383a:	d1f3      	bne.n	8003824 <HAL_UART_IRQHandler+0x140>
   __ASM volatile ("ldrex %0, %1" : "=r" (result) : "Q" (*addr) );
 800383c:	f103 0214 	add.w	r2, r3, #20
 8003840:	e852 2f00 	ldrex	r2, [r2]
          ATOMIC_CLEAR_BIT(huart->Instance->CR3, USART_CR3_DMAR);
 8003844:	f022 0240 	bic.w	r2, r2, #64	@ 0x40
   __ASM volatile ("strex %0, %2, %1" : "=&r" (result), "=Q" (*addr) : "r" (value) );
 8003848:	f103 0014 	add.w	r0, r3, #20
 800384c:	e840 2100 	strex	r1, r2, [r0]
 8003850:	2900      	cmp	r1, #0
 8003852:	d1f3      	bne.n	800383c <HAL_UART_IRQHandler+0x158>
          huart->RxState = HAL_UART_STATE_READY;
 8003854:	2220      	movs	r2, #32
 8003856:	f884 2042 	strb.w	r2, [r4, #66]	@ 0x42
          huart->ReceptionType = HAL_UART_RECEPTION_STANDARD;
 800385a:	6321      	str	r1, [r4, #48]	@ 0x30
   __ASM volatile ("ldrex %0, %1" : "=r" (result) : "Q" (*addr) );
 800385c:	f103 020c 	add.w	r2, r3, #12
 8003860:	e852 2f00 	ldrex	r2, [r2]
          ATOMIC_CLEAR_BIT(huart->Instance->CR1, USART_CR1_IDLEIE);
 8003864:	f022 0210 	bic.w	r2, r2, #16
   __ASM volatile ("strex %0, %2, %1" : "=&r" (result), "=Q" (*addr) : "r" (value) );
 8003868:	f103 000c 	add.w	r0, r3, #12
 800386c:	e840 2100 	strex	r1, r2, [r0]
 8003870:	2900      	cmp	r1, #0
 8003872:	d1f3      	bne.n	800385c <HAL_UART_IRQHandler+0x178>
          (void)HAL_DMA_Abort(huart->hdmarx);
 8003874:	6be0      	ldr	r0, [r4, #60]	@ 0x3c
 8003876:	f7fe faf3 	bl	8001e60 <HAL_DMA_Abort>
        huart->RxEventType = HAL_UART_RXEVENT_IDLE;
 800387a:	2302      	movs	r3, #2
 800387c:	6363      	str	r3, [r4, #52]	@ 0x34
        HAL_UARTEx_RxEventCallback(huart, (huart->RxXferSize - huart->RxXferCount));
 800387e:	8de3      	ldrh	r3, [r4, #46]	@ 0x2e
 8003880:	8da1      	ldrh	r1, [r4, #44]	@ 0x2c
 8003882:	1ac9      	subs	r1, r1, r3
 8003884:	b289      	uxth	r1, r1
        HAL_UARTEx_RxEventCallback(huart, nb_rx_data);
 8003886:	4620      	mov	r0, r4
 8003888:	f7ff fed0 	bl	800362c <HAL_UARTEx_RxEventCallback>
 800388c:	e797      	b.n	80037be <HAL_UART_IRQHandler+0xda>
      uint16_t nb_rx_data = huart->RxXferSize - huart->RxXferCount;
 800388e:	8de2      	ldrh	r2, [r4, #46]	@ 0x2e
      if ((huart->RxXferCount > 0U)
 8003890:	8de0      	ldrh	r0, [r4, #46]	@ 0x2e
      uint16_t nb_rx_data = huart->RxXferSize - huart->RxXferCount;
 8003892:	8da1      	ldrh	r1, [r4, #44]	@ 0x2c
      if ((huart->RxXferCount > 0U)
 8003894:	b280      	uxth	r0, r0
      uint16_t nb_rx_data = huart->RxXferSize - huart->RxXferCount;
 8003896:	b292      	uxth	r2, r2
      if ((huart->RxXferCount > 0U)
 8003898:	2800      	cmp	r0, #0
 800389a:	d090      	beq.n	80037be <HAL_UART_IRQHandler+0xda>
      uint16_t nb_rx_data = huart->RxXferSize - huart->RxXferCount;
 800389c:	1a89      	subs	r1, r1, r2
 800389e:	b289      	uxth	r1, r1
          && (nb_rx_data > 0U))
 80038a0:	2900      	cmp	r1, #0
 80038a2:	d08c      	beq.n	80037be <HAL_UART_IRQHandler+0xda>
   __ASM volatile ("ldrex %0, %1" : "=r" (result) : "Q" (*addr) );
 80038a4:	f103 020c 	add.w	r2, r3, #12
 80038a8:	e852 2f00 	ldrex	r2, [r2]
        ATOMIC_CLEAR_BIT(huart->Instance->CR1, (USART_CR1_RXNEIE | USART_CR1_PEIE));
 80038ac:	f422 7290 	bic.w	r2, r2, #288	@ 0x120
   __ASM volatile ("strex %0, %2, %1" : "=&r" (result), "=Q" (*addr) : "r" (value) );
 80038b0:	f103 050c 	add.w	r5, r3, #12
 80038b4:	e845 2000 	strex	r0, r2, [r5]
 80038b8:	2800      	cmp	r0, #0
 80038ba:	d1f3      	bne.n	80038a4 <HAL_UART_IRQHandler+0x1c0>
   __ASM volatile ("ldrex %0, %1" : "=r" (result) : "Q" (*addr) );
 80038bc:	f103 0214 	add.w	r2, r3, #20
 80038c0:	e852 2f00 	ldrex	r2, [r2]
        ATOMIC_CLEAR_BIT(huart->Instance->CR3, USART_CR3_EIE);
 80038c4:	f022 0201 	bic.w	r2, r2, #1
   __ASM volatile ("strex %0, %2, %1" : "=&r" (result), "=Q" (*addr) : "r" (value) );
 80038c8:	f103 0514 	add.w	r5, r3, #20
 80038cc:	e845 2000 	strex	r0, r2, [r5]
 80038d0:	2800      	cmp	r0, #0
 80038d2:	d1f3      	bne.n	80038bc <HAL_UART_IRQHandler+0x1d8>
        huart->RxState = HAL_UART_STATE_READY;
 80038d4:	2220      	movs	r2, #32
 80038d6:	f884 2042 	strb.w	r2, [r4, #66]	@ 0x42
        huart->ReceptionType = HAL_UART_RECEPTION_STANDARD;
 80038da:	6320      	str	r0, [r4, #48]	@ 0x30
   __ASM volatile ("ldrex %0, %1" : "=r" (result) : "Q" (*addr) );
 80038dc:	f103 020c 	add.w	r2, r3, #12
 80038e0:	e852 2f00 	ldrex	r2, [r2]
        ATOMIC_CLEAR_BIT(huart->Instance->CR1, USART_CR1_IDLEIE);
 80038e4:	f022 0210 	bic.w	r2, r2, #16
   __ASM volatile ("strex %0, %2, %1" : "=&r" (result), "=Q" (*addr) : "r" (value) );
 80038e8:	f103 050c 	add.w	r5, r3, #12
 80038ec:	e845 2000 	strex	r0, r2, [r5]
 80038f0:	2800      	cmp	r0, #0
 80038f2:	d1f3      	bne.n	80038dc <HAL_UART_IRQHandler+0x1f8>
        huart->RxEventType = HAL_UART_RXEVENT_IDLE;
 80038f4:	2302      	movs	r3, #2
 80038f6:	6363      	str	r3, [r4, #52]	@ 0x34
 80038f8:	e7c5      	b.n	8003886 <HAL_UART_IRQHandler+0x1a2>
  if (((isrflags & USART_SR_TXE) != RESET) && ((cr1its & USART_CR1_TXEIE) != RESET))
 80038fa:	0616      	lsls	r6, r2, #24
 80038fc:	d528      	bpl.n	8003950 <HAL_UART_IRQHandler+0x26c>
 80038fe:	060d      	lsls	r5, r1, #24
 8003900:	d526      	bpl.n	8003950 <HAL_UART_IRQHandler+0x26c>
  if (huart->gState == HAL_UART_STATE_BUSY_TX)
 8003902:	f894 2041 	ldrb.w	r2, [r4, #65]	@ 0x41
 8003906:	2a21      	cmp	r2, #33	@ 0x21
 8003908:	f47f af59 	bne.w	80037be <HAL_UART_IRQHandler+0xda>
    if ((huart->Init.WordLength == UART_WORDLENGTH_9B) && (huart->Init.Parity == UART_PARITY_NONE))
 800390c:	68a1      	ldr	r1, [r4, #8]
      tmp = (const uint16_t *) huart->pTxBuffPtr;
 800390e:	6a22      	ldr	r2, [r4, #32]
    if ((huart->Init.WordLength == UART_WORDLENGTH_9B) && (huart->Init.Parity == UART_PARITY_NONE))
 8003910:	f5b1 5f80 	cmp.w	r1, #4096	@ 0x1000
 8003914:	d117      	bne.n	8003946 <HAL_UART_IRQHandler+0x262>
 8003916:	6921      	ldr	r1, [r4, #16]
 8003918:	b9a9      	cbnz	r1, 8003946 <HAL_UART_IRQHandler+0x262>
      huart->Instance->DR = (uint16_t)(*tmp & (uint16_t)0x01FF);
 800391a:	f832 1b02 	ldrh.w	r1, [r2], #2
 800391e:	f3c1 0108 	ubfx	r1, r1, #0, #9
 8003922:	6059      	str	r1, [r3, #4]
      huart->pTxBuffPtr += 2U;
 8003924:	6222      	str	r2, [r4, #32]
    if (--huart->TxXferCount == 0U)
 8003926:	8ce2      	ldrh	r2, [r4, #38]	@ 0x26
 8003928:	3a01      	subs	r2, #1
 800392a:	b292      	uxth	r2, r2
 800392c:	84e2      	strh	r2, [r4, #38]	@ 0x26
 800392e:	2a00      	cmp	r2, #0
 8003930:	f47f af45 	bne.w	80037be <HAL_UART_IRQHandler+0xda>
      __HAL_UART_DISABLE_IT(huart, UART_IT_TXE);
 8003934:	68da      	ldr	r2, [r3, #12]
 8003936:	f022 0280 	bic.w	r2, r2, #128	@ 0x80
 800393a:	60da      	str	r2, [r3, #12]
      __HAL_UART_ENABLE_IT(huart, UART_IT_TC);
 800393c:	68da      	ldr	r2, [r3, #12]
 800393e:	f042 0240 	orr.w	r2, r2, #64	@ 0x40
 8003942:	60da      	str	r2, [r3, #12]
 8003944:	e73b      	b.n	80037be <HAL_UART_IRQHandler+0xda>
      huart->Instance->DR = (uint8_t)(*huart->pTxBuffPtr++ & (uint8_t)0x00FF);
 8003946:	1c51      	adds	r1, r2, #1
 8003948:	6221      	str	r1, [r4, #32]
 800394a:	7812      	ldrb	r2, [r2, #0]
 800394c:	605a      	str	r2, [r3, #4]
 800394e:	e7ea      	b.n	8003926 <HAL_UART_IRQHandler+0x242>
  if (((isrflags & USART_SR_TC) != RESET) && ((cr1its & USART_CR1_TCIE) != RESET))
 8003950:	0650      	lsls	r0, r2, #25
 8003952:	f57f af34 	bpl.w	80037be <HAL_UART_IRQHandler+0xda>
 8003956:	064a      	lsls	r2, r1, #25
 8003958:	f57f af31 	bpl.w	80037be <HAL_UART_IRQHandler+0xda>
  __HAL_UART_DISABLE_IT(huart, UART_IT_TC);
 800395c:	68da      	ldr	r2, [r3, #12]
  HAL_UART_TxCpltCallback(huart);
 800395e:	4620      	mov	r0, r4
  __HAL_UART_DISABLE_IT(huart, UART_IT_TC);
 8003960:	f022 0240 	bic.w	r2, r2, #64	@ 0x40
 8003964:	60da      	str	r2, [r3, #12]
  huart->gState = HAL_UART_STATE_READY;
 8003966:	2320      	movs	r3, #32
 8003968:	f884 3041 	strb.w	r3, [r4, #65]	@ 0x41
  HAL_UART_TxCpltCallback(huart);
 800396c:	f7ff fe53 	bl	8003616 <HAL_UART_TxCpltCallback>
  return HAL_OK;
 8003970:	e725      	b.n	80037be <HAL_UART_IRQHandler+0xda>
 8003972:	bf00      	nop
 8003974:	0800361d 	.word	0x0800361d

08003978 <USB_CoreInit>:
  * @param  cfg pointer to a USB_CfgTypeDef structure that contains
  *         the configuration information for the specified USBx peripheral.
  * @retval HAL status
  */
HAL_StatusTypeDef USB_CoreInit(USB_TypeDef *USBx, USB_CfgTypeDef cfg)
{
 8003978:	b084      	sub	sp, #16
 800397a:	a804      	add	r0, sp, #16
 800397c:	e900 000e 	stmdb	r0, {r1, r2, r3}
              only by USB OTG FS peripheral.
            - This function is added to ensure compatibility across platforms.
   */

  return HAL_OK;
}
 8003980:	2000      	movs	r0, #0
 8003982:	b004      	add	sp, #16
 8003984:	4770      	bx	lr

08003986 <USB_DisableGlobalInt>:
                   USB_CNTR_SUSPM | USB_CNTR_ERRM |
                   USB_CNTR_SOFM | USB_CNTR_ESOFM |
                   USB_CNTR_RESETM;

  /* Clear interrupt mask */
  USBx->CNTR &= (uint16_t)(~winterruptmask);
 8003986:	f8b0 3040 	ldrh.w	r3, [r0, #64]	@ 0x40
 800398a:	f423 537c 	bic.w	r3, r3, #16128	@ 0x3f00
 800398e:	045b      	lsls	r3, r3, #17
 8003990:	0c5b      	lsrs	r3, r3, #17
 8003992:	f8a0 3040 	strh.w	r3, [r0, #64]	@ 0x40

  return HAL_OK;
}
 8003996:	2000      	movs	r0, #0
 8003998:	4770      	bx	lr

0800399a <USB_SetCurrentMode>:
  /* NOTE : - This function is not required by USB Device FS peripheral, it is used
              only by USB OTG FS peripheral.
            - This function is added to ensure compatibility across platforms.
   */
  return HAL_OK;
}
 800399a:	2000      	movs	r0, #0
 800399c:	4770      	bx	lr

0800399e <USB_DevInit>:
  * @param  cfg  pointer to a USB_CfgTypeDef structure that contains
  *         the configuration information for the specified USBx peripheral.
  * @retval HAL status
  */
HAL_StatusTypeDef USB_DevInit(USB_TypeDef *USBx, USB_CfgTypeDef cfg)
{
 800399e:	b51f      	push	{r0, r1, r2, r3, r4, lr}
 80039a0:	4604      	mov	r4, r0
 80039a2:	a804      	add	r0, sp, #16
 80039a4:	e900 000e 	stmdb	r0, {r1, r2, r3}
  /* Init Device */
  /* CNTR_FRES = 1 */
  USBx->CNTR = (uint16_t)USB_CNTR_FRES;

  /* CNTR_FRES = 0 */
  USBx->CNTR = 0U;
 80039a8:	2000      	movs	r0, #0
  USBx->CNTR = (uint16_t)USB_CNTR_FRES;
 80039aa:	2301      	movs	r3, #1
 80039ac:	f8a4 3040 	strh.w	r3, [r4, #64]	@ 0x40
  USBx->CNTR = 0U;
 80039b0:	f8a4 0040 	strh.w	r0, [r4, #64]	@ 0x40

  /* Clear pending interrupts */
  USBx->ISTR = 0U;
 80039b4:	f8a4 0044 	strh.w	r0, [r4, #68]	@ 0x44

  /*Set Btable Address*/
  USBx->BTABLE = BTABLE_ADDRESS;
 80039b8:	f8a4 0050 	strh.w	r0, [r4, #80]	@ 0x50

  return HAL_OK;
}
 80039bc:	b004      	add	sp, #16
 80039be:	bd10      	pop	{r4, pc}

080039c0 <USB_DevDisconnect>:
/**
  * @brief  USB_DevDisconnect Disconnect the USB device by disabling the pull-up/pull-down
  * @param  USBx Selected device
  * @retval HAL status
  */
HAL_StatusTypeDef  USB_DevDisconnect(USB_TypeDef *USBx)
 80039c0:	2000      	movs	r0, #0
 80039c2:	4770      	bx	lr

080039c4 <SysTick_Handler>:

/*
  SysTick handler implementation that also clears overflow flag.
*/
#if (USE_CUSTOM_SYSTICK_HANDLER_IMPLEMENTATION == 0)
void SysTick_Handler (void) {
 80039c4:	b508      	push	{r3, lr}
  /* Clear overflow flag */
  SysTick->CTRL;
 80039c6:	f04f 23e0 	mov.w	r3, #3758153728	@ 0xe000e000
 80039ca:	691b      	ldr	r3, [r3, #16]

  if (xTaskGetSchedulerState() != taskSCHEDULER_NOT_STARTED) {
 80039cc:	f001 f900 	bl	8004bd0 <xTaskGetSchedulerState>
 80039d0:	2801      	cmp	r0, #1
 80039d2:	d003      	beq.n	80039dc <SysTick_Handler+0x18>
    /* Call tick handler */
    xPortSysTickHandler();
  }
}
 80039d4:	e8bd 4008 	ldmia.w	sp!, {r3, lr}
    xPortSysTickHandler();
 80039d8:	f001 bd34 	b.w	8005444 <xPortSysTickHandler>
}
 80039dc:	bd08      	pop	{r3, pc}
	...

080039e0 <osKernelInitialize>:
  __ASM volatile ("MRS %0, ipsr" : "=r" (result) );
 80039e0:	f3ef 8305 	mrs	r3, IPSR
/*---------------------------------------------------------------------------*/

osStatus_t osKernelInitialize (void) {
  osStatus_t stat;

  if (IS_IRQ()) {
 80039e4:	b92b      	cbnz	r3, 80039f2 <osKernelInitialize+0x12>
    stat = osErrorISR;
  }
  else {
    if (KernelState == osKernelInactive) {
 80039e6:	4b06      	ldr	r3, [pc, #24]	@ (8003a00 <osKernelInitialize+0x20>)
 80039e8:	6818      	ldr	r0, [r3, #0]
 80039ea:	b928      	cbnz	r0, 80039f8 <osKernelInitialize+0x18>
        EvrFreeRTOSSetup(0U);
      #endif
      #if defined(USE_FreeRTOS_HEAP_5) && (HEAP_5_REGION_SETUP == 1)
        vPortDefineHeapRegions (configHEAP_5_REGIONS);
      #endif
      KernelState = osKernelReady;
 80039ec:	2201      	movs	r2, #1
 80039ee:	601a      	str	r2, [r3, #0]
      stat = osOK;
 80039f0:	4770      	bx	lr
    stat = osErrorISR;
 80039f2:	f06f 0005 	mvn.w	r0, #5
 80039f6:	4770      	bx	lr
    } else {
      stat = osError;
 80039f8:	f04f 30ff 	mov.w	r0, #4294967295	@ 0xffffffff
    }
  }

  return (stat);
}
 80039fc:	4770      	bx	lr
 80039fe:	bf00      	nop
 8003a00:	20000eec 	.word	0x20000eec

08003a04 <osKernelStart>:
  }

  return (state);
}

osStatus_t osKernelStart (void) {
 8003a04:	b510      	push	{r4, lr}
 8003a06:	f3ef 8405 	mrs	r4, IPSR
  osStatus_t stat;

  if (IS_IRQ()) {
 8003a0a:	b95c      	cbnz	r4, 8003a24 <osKernelStart+0x20>
    stat = osErrorISR;
  }
  else {
    if (KernelState == osKernelReady) {
 8003a0c:	4b08      	ldr	r3, [pc, #32]	@ (8003a30 <osKernelStart+0x2c>)
 8003a0e:	681a      	ldr	r2, [r3, #0]
 8003a10:	2a01      	cmp	r2, #1
 8003a12:	d10a      	bne.n	8003a2a <osKernelStart+0x26>
    SCB->SHP[(((uint32_t)IRQn) & 0xFUL)-4UL] = (uint8_t)((priority << (8U - __NVIC_PRIO_BITS)) & (uint32_t)0xFFUL);
 8003a14:	4a07      	ldr	r2, [pc, #28]	@ (8003a34 <osKernelStart+0x30>)
 8003a16:	77d4      	strb	r4, [r2, #31]
      /* Ensure SVC priority is at the reset value */
      SVC_Setup();
      /* Change state to enable IRQ masking check */
      KernelState = osKernelRunning;
 8003a18:	2202      	movs	r2, #2
 8003a1a:	601a      	str	r2, [r3, #0]
      /* Start the kernel scheduler */
      vTaskStartScheduler();
 8003a1c:	f000 fe3a 	bl	8004694 <vTaskStartScheduler>
      stat = osOK;
 8003a20:	4620      	mov	r0, r4
      stat = osError;
    }
  }

  return (stat);
}
 8003a22:	bd10      	pop	{r4, pc}
    stat = osErrorISR;
 8003a24:	f06f 0005 	mvn.w	r0, #5
 8003a28:	e7fb      	b.n	8003a22 <osKernelStart+0x1e>
      stat = osError;
 8003a2a:	f04f 30ff 	mov.w	r0, #4294967295	@ 0xffffffff
  return (stat);
 8003a2e:	e7f8      	b.n	8003a22 <osKernelStart+0x1e>
 8003a30:	20000eec 	.word	0x20000eec
 8003a34:	e000ed00 	.word	0xe000ed00

08003a38 <osThreadNew>:
  return (configCPU_CLOCK_HZ);
}

/*---------------------------------------------------------------------------*/

osThreadId_t osThreadNew (osThreadFunc_t func, void *argument, const osThreadAttr_t *attr) {
 8003a38:	b5f0      	push	{r4, r5, r6, r7, lr}
 8003a3a:	4614      	mov	r4, r2
  uint32_t stack;
  TaskHandle_t hTask;
  UBaseType_t prio;
  int32_t mem;

  hTask = NULL;
 8003a3c:	2200      	movs	r2, #0
osThreadId_t osThreadNew (osThreadFunc_t func, void *argument, const osThreadAttr_t *attr) {
 8003a3e:	b087      	sub	sp, #28
 8003a40:	460b      	mov	r3, r1
  hTask = NULL;
 8003a42:	9205      	str	r2, [sp, #20]
 8003a44:	f3ef 8205 	mrs	r2, IPSR

  if (!IS_IRQ() && (func != NULL)) {
 8003a48:	b9ca      	cbnz	r2, 8003a7e <osThreadNew+0x46>
 8003a4a:	b1c0      	cbz	r0, 8003a7e <osThreadNew+0x46>
    prio  = (UBaseType_t)osPriorityNormal;

    name = NULL;
    mem  = -1;

    if (attr != NULL) {
 8003a4c:	b36c      	cbz	r4, 8003aaa <osThreadNew+0x72>
      if (attr->name != NULL) {
        name = attr->name;
      }
      if (attr->priority != osPriorityNone) {
 8003a4e:	69a5      	ldr	r5, [r4, #24]
 8003a50:	2d00      	cmp	r5, #0
 8003a52:	bf08      	it	eq
 8003a54:	2518      	moveq	r5, #24
        prio = (UBaseType_t)attr->priority;
      }

      if ((prio < osPriorityIdle) || (prio > osPriorityISR) || ((attr->attr_bits & osThreadJoinable) == osThreadJoinable)) {
 8003a56:	1e69      	subs	r1, r5, #1
 8003a58:	2937      	cmp	r1, #55	@ 0x37
 8003a5a:	46ac      	mov	ip, r5
 8003a5c:	d82a      	bhi.n	8003ab4 <osThreadNew+0x7c>
 8003a5e:	6861      	ldr	r1, [r4, #4]
 8003a60:	07c9      	lsls	r1, r1, #31
 8003a62:	d427      	bmi.n	8003ab4 <osThreadNew+0x7c>
        return (NULL);
      }

      if (attr->stack_size > 0U) {
 8003a64:	6966      	ldr	r6, [r4, #20]
 8003a66:	b16e      	cbz	r6, 8003a84 <osThreadNew+0x4c>
        /* In FreeRTOS stack is not in bytes, but in sizeof(StackType_t) which is 4 on ARM ports.       */
        /* Stack size should be therefore 4 byte aligned in order to avoid division caused side effects */
        stack = attr->stack_size / sizeof(StackType_t);
 8003a68:	08b2      	lsrs	r2, r6, #2
      if (attr->name != NULL) {
 8003a6a:	6821      	ldr	r1, [r4, #0]
      }

      if ((attr->cb_mem    != NULL) && (attr->cb_size    >= sizeof(StaticTask_t)) &&
 8003a6c:	e9d4 7e02 	ldrd	r7, lr, [r4, #8]
 8003a70:	b157      	cbz	r7, 8003a88 <osThreadNew+0x50>
 8003a72:	f1be 0fa7 	cmp.w	lr, #167	@ 0xa7
 8003a76:	d902      	bls.n	8003a7e <osThreadNew+0x46>
          (attr->stack_mem != NULL) && (attr->stack_size >  0U)) {
 8003a78:	6924      	ldr	r4, [r4, #16]
      if ((attr->cb_mem    != NULL) && (attr->cb_size    >= sizeof(StaticTask_t)) &&
 8003a7a:	b104      	cbz	r4, 8003a7e <osThreadNew+0x46>
          (attr->stack_mem != NULL) && (attr->stack_size >  0U)) {
 8003a7c:	b9e6      	cbnz	r6, 8003ab8 <osThreadNew+0x80>
        #endif
      }
    }
  }

  return ((osThreadId_t)hTask);
 8003a7e:	9805      	ldr	r0, [sp, #20]
}
 8003a80:	b007      	add	sp, #28
 8003a82:	bdf0      	pop	{r4, r5, r6, r7, pc}
    stack = configMINIMAL_STACK_SIZE;
 8003a84:	2280      	movs	r2, #128	@ 0x80
 8003a86:	e7f0      	b.n	8003a6a <osThreadNew+0x32>
        if ((attr->cb_mem == NULL) && (attr->cb_size == 0U) && (attr->stack_mem == NULL)) {
 8003a88:	f1be 0f00 	cmp.w	lr, #0
 8003a8c:	d1f7      	bne.n	8003a7e <osThreadNew+0x46>
      if (mem == 0) {
 8003a8e:	6924      	ldr	r4, [r4, #16]
 8003a90:	2c00      	cmp	r4, #0
 8003a92:	d1f4      	bne.n	8003a7e <osThreadNew+0x46>
          if (xTaskCreate ((TaskFunction_t)func, name, (uint16_t)stack, argument, prio, &hTask) != pdPASS) {
 8003a94:	ac05      	add	r4, sp, #20
 8003a96:	e9cd c400 	strd	ip, r4, [sp]
 8003a9a:	b292      	uxth	r2, r2
 8003a9c:	f000 fdcc 	bl	8004638 <xTaskCreate>
 8003aa0:	2801      	cmp	r0, #1
            hTask = NULL;
 8003aa2:	bf1c      	itt	ne
 8003aa4:	2300      	movne	r3, #0
 8003aa6:	9305      	strne	r3, [sp, #20]
 8003aa8:	e7e9      	b.n	8003a7e <osThreadNew+0x46>
    name = NULL;
 8003aaa:	4621      	mov	r1, r4
    prio  = (UBaseType_t)osPriorityNormal;
 8003aac:	f04f 0c18 	mov.w	ip, #24
    stack = configMINIMAL_STACK_SIZE;
 8003ab0:	2280      	movs	r2, #128	@ 0x80
 8003ab2:	e7ef      	b.n	8003a94 <osThreadNew+0x5c>
        return (NULL);
 8003ab4:	4610      	mov	r0, r2
 8003ab6:	e7e3      	b.n	8003a80 <osThreadNew+0x48>
        hTask = xTaskCreateStatic ((TaskFunction_t)func, name, stack, argument, prio, (StackType_t  *)attr->stack_mem,
 8003ab8:	e9cd 4701 	strd	r4, r7, [sp, #4]
 8003abc:	9500      	str	r5, [sp, #0]
 8003abe:	f000 fd83 	bl	80045c8 <xTaskCreateStatic>
 8003ac2:	9005      	str	r0, [sp, #20]
 8003ac4:	e7db      	b.n	8003a7e <osThreadNew+0x46>

08003ac6 <osThreadFlagsSet>:
  return (count);
}
#endif /* (configUSE_OS2_THREAD_ENUMERATE == 1) */

#if (configUSE_OS2_THREAD_FLAGS == 1)
uint32_t osThreadFlagsSet (osThreadId_t thread_id, uint32_t flags) {
 8003ac6:	b530      	push	{r4, r5, lr}
  TaskHandle_t hTask = (TaskHandle_t)thread_id;
  uint32_t rflags;
  BaseType_t yield;

  if ((hTask == NULL) || ((flags & THREAD_FLAGS_INVALID_BITS) != 0U)) {
 8003ac8:	4604      	mov	r4, r0
uint32_t osThreadFlagsSet (osThreadId_t thread_id, uint32_t flags) {
 8003aca:	b085      	sub	sp, #20
  if ((hTask == NULL) || ((flags & THREAD_FLAGS_INVALID_BITS) != 0U)) {
 8003acc:	b108      	cbz	r0, 8003ad2 <osThreadFlagsSet+0xc>
 8003ace:	2900      	cmp	r1, #0
 8003ad0:	da05      	bge.n	8003ade <osThreadFlagsSet+0x18>
    rflags = (uint32_t)osErrorParameter;
 8003ad2:	f06f 0303 	mvn.w	r3, #3
 8003ad6:	9302      	str	r3, [sp, #8]
      (void)xTaskNotifyAndQuery (hTask, 0, eNoAction, &rflags);
    }
  }
  /* Return flags after setting */
  return (rflags);
}
 8003ad8:	9802      	ldr	r0, [sp, #8]
 8003ada:	b005      	add	sp, #20
 8003adc:	bd30      	pop	{r4, r5, pc}
    rflags = (uint32_t)osError;
 8003ade:	f04f 33ff 	mov.w	r3, #4294967295	@ 0xffffffff
 8003ae2:	9302      	str	r3, [sp, #8]
 8003ae4:	f3ef 8505 	mrs	r5, IPSR
    if (IS_IRQ()) {
 8003ae8:	b1e5      	cbz	r5, 8003b24 <osThreadFlagsSet+0x5e>
      yield = pdFALSE;
 8003aea:	2500      	movs	r5, #0
      (void)xTaskNotifyFromISR (hTask, flags, eSetBits, &yield);
 8003aec:	ab03      	add	r3, sp, #12
 8003aee:	2201      	movs	r2, #1
 8003af0:	9300      	str	r3, [sp, #0]
 8003af2:	462b      	mov	r3, r5
      yield = pdFALSE;
 8003af4:	9503      	str	r5, [sp, #12]
      (void)xTaskNotifyFromISR (hTask, flags, eSetBits, &yield);
 8003af6:	f001 f97f 	bl	8004df8 <xTaskGenericNotifyFromISR>
      (void)xTaskNotifyAndQueryFromISR (hTask, 0, eNoAction, &rflags, NULL);
 8003afa:	ab02      	add	r3, sp, #8
 8003afc:	462a      	mov	r2, r5
 8003afe:	4629      	mov	r1, r5
 8003b00:	4620      	mov	r0, r4
 8003b02:	9500      	str	r5, [sp, #0]
 8003b04:	f001 f978 	bl	8004df8 <xTaskGenericNotifyFromISR>
      portYIELD_FROM_ISR (yield);
 8003b08:	9b03      	ldr	r3, [sp, #12]
 8003b0a:	2b00      	cmp	r3, #0
 8003b0c:	d0e4      	beq.n	8003ad8 <osThreadFlagsSet+0x12>
 8003b0e:	f04f 23e0 	mov.w	r3, #3758153728	@ 0xe000e000
 8003b12:	f04f 5280 	mov.w	r2, #268435456	@ 0x10000000
 8003b16:	f8c3 2d04 	str.w	r2, [r3, #3332]	@ 0xd04
 8003b1a:	f3bf 8f4f 	dsb	sy
 8003b1e:	f3bf 8f6f 	isb	sy
 8003b22:	e7d9      	b.n	8003ad8 <osThreadFlagsSet+0x12>
      (void)xTaskNotify (hTask, flags, eSetBits);
 8003b24:	462b      	mov	r3, r5
 8003b26:	2201      	movs	r2, #1
 8003b28:	f001 f8ee 	bl	8004d08 <xTaskGenericNotify>
      (void)xTaskNotifyAndQuery (hTask, 0, eNoAction, &rflags);
 8003b2c:	462a      	mov	r2, r5
 8003b2e:	4629      	mov	r1, r5
 8003b30:	4620      	mov	r0, r4
 8003b32:	ab02      	add	r3, sp, #8
 8003b34:	f001 f8e8 	bl	8004d08 <xTaskGenericNotify>
 8003b38:	e7ce      	b.n	8003ad8 <osThreadFlagsSet+0x12>

08003b3a <osThreadFlagsClear>:

uint32_t osThreadFlagsClear (uint32_t flags) {
 8003b3a:	b5f7      	push	{r0, r1, r2, r4, r5, r6, r7, lr}
 8003b3c:	4604      	mov	r4, r0
 8003b3e:	f3ef 8605 	mrs	r6, IPSR
  TaskHandle_t hTask;
  uint32_t rflags, cflags;

  if (IS_IRQ()) {
 8003b42:	b9de      	cbnz	r6, 8003b7c <osThreadFlagsClear+0x42>
    rflags = (uint32_t)osErrorISR;
  }
  else if ((flags & THREAD_FLAGS_INVALID_BITS) != 0U) {
 8003b44:	2800      	cmp	r0, #0
 8003b46:	db1c      	blt.n	8003b82 <osThreadFlagsClear+0x48>
    rflags = (uint32_t)osErrorParameter;
  }
  else {
    hTask = xTaskGetCurrentTaskHandle();
 8003b48:	f001 f83c 	bl	8004bc4 <xTaskGetCurrentTaskHandle>

    if (xTaskNotifyAndQuery (hTask, 0, eNoAction, &cflags) == pdPASS) {
 8003b4c:	4632      	mov	r2, r6
 8003b4e:	4631      	mov	r1, r6
 8003b50:	ab01      	add	r3, sp, #4
    hTask = xTaskGetCurrentTaskHandle();
 8003b52:	4607      	mov	r7, r0
    if (xTaskNotifyAndQuery (hTask, 0, eNoAction, &cflags) == pdPASS) {
 8003b54:	f001 f8d8 	bl	8004d08 <xTaskGenericNotify>
 8003b58:	2801      	cmp	r0, #1
 8003b5a:	d10a      	bne.n	8003b72 <osThreadFlagsClear+0x38>
      rflags = cflags;
 8003b5c:	9d01      	ldr	r5, [sp, #4]
      cflags &= ~flags;

      if (xTaskNotify (hTask, cflags, eSetValueWithOverwrite) != pdPASS) {
 8003b5e:	4633      	mov	r3, r6
      cflags &= ~flags;
 8003b60:	ea25 0104 	bic.w	r1, r5, r4
      if (xTaskNotify (hTask, cflags, eSetValueWithOverwrite) != pdPASS) {
 8003b64:	2203      	movs	r2, #3
 8003b66:	4638      	mov	r0, r7
      cflags &= ~flags;
 8003b68:	9101      	str	r1, [sp, #4]
      if (xTaskNotify (hTask, cflags, eSetValueWithOverwrite) != pdPASS) {
 8003b6a:	f001 f8cd 	bl	8004d08 <xTaskGenericNotify>
 8003b6e:	2801      	cmp	r0, #1
 8003b70:	d001      	beq.n	8003b76 <osThreadFlagsClear+0x3c>
        rflags = (uint32_t)osError;
 8003b72:	f04f 35ff 	mov.w	r5, #4294967295	@ 0xffffffff
    }
  }

  /* Return flags before clearing */
  return (rflags);
}
 8003b76:	4628      	mov	r0, r5
 8003b78:	b003      	add	sp, #12
 8003b7a:	bdf0      	pop	{r4, r5, r6, r7, pc}
    rflags = (uint32_t)osErrorISR;
 8003b7c:	f06f 0505 	mvn.w	r5, #5
 8003b80:	e7f9      	b.n	8003b76 <osThreadFlagsClear+0x3c>
    rflags = (uint32_t)osErrorParameter;
 8003b82:	f06f 0503 	mvn.w	r5, #3
  return (rflags);
 8003b86:	e7f6      	b.n	8003b76 <osThreadFlagsClear+0x3c>

08003b88 <osThreadFlagsWait>:
  }

  return (rflags);
}

uint32_t osThreadFlagsWait (uint32_t flags, uint32_t options, uint32_t timeout) {
 8003b88:	e92d 47f3 	stmdb	sp!, {r0, r1, r4, r5, r6, r7, r8, r9, sl, lr}
 8003b8c:	4606      	mov	r6, r0
 8003b8e:	460f      	mov	r7, r1
 8003b90:	4690      	mov	r8, r2
 8003b92:	f3ef 8405 	mrs	r4, IPSR
  uint32_t rflags, nval;
  uint32_t clear;
  TickType_t t0, td, tout;
  BaseType_t rval;

  if (IS_IRQ()) {
 8003b96:	2c00      	cmp	r4, #0
 8003b98:	d13c      	bne.n	8003c14 <osThreadFlagsWait+0x8c>
    rflags = (uint32_t)osErrorISR;
  }
  else if ((flags & THREAD_FLAGS_INVALID_BITS) != 0U) {
 8003b9a:	2800      	cmp	r0, #0
 8003b9c:	db3d      	blt.n	8003c1a <osThreadFlagsWait+0x92>
    rflags = (uint32_t)osErrorParameter;
  }
  else {
    if ((options & osFlagsNoClear) == osFlagsNoClear) {
 8003b9e:	f011 0f02 	tst.w	r1, #2
 8003ba2:	bf0c      	ite	eq
 8003ba4:	4682      	moveq	sl, r0
 8003ba6:	f04f 0a00 	movne.w	sl, #0
    }

    rflags = 0U;
    tout   = timeout;

    t0 = xTaskGetTickCount();
 8003baa:	f000 fdcb 	bl	8004744 <xTaskGetTickCount>
    tout   = timeout;
 8003bae:	4645      	mov	r5, r8
    t0 = xTaskGetTickCount();
 8003bb0:	4681      	mov	r9, r0

      if (rval == pdPASS) {
        rflags &= flags;
        rflags |= nval;

        if ((options & osFlagsWaitAll) == osFlagsWaitAll) {
 8003bb2:	f007 0701 	and.w	r7, r7, #1
      rval = xTaskNotifyWait (0, clear, &nval, tout);
 8003bb6:	462b      	mov	r3, r5
 8003bb8:	4651      	mov	r1, sl
 8003bba:	2000      	movs	r0, #0
 8003bbc:	aa01      	add	r2, sp, #4
 8003bbe:	f001 f859 	bl	8004c74 <xTaskNotifyWait>
      if (rval == pdPASS) {
 8003bc2:	2801      	cmp	r0, #1
 8003bc4:	d11c      	bne.n	8003c00 <osThreadFlagsWait+0x78>
        rflags |= nval;
 8003bc6:	9b01      	ldr	r3, [sp, #4]
        rflags &= flags;
 8003bc8:	4034      	ands	r4, r6
        rflags |= nval;
 8003bca:	431c      	orrs	r4, r3
          if ((flags & rflags) == flags) {
 8003bcc:	ea06 0304 	and.w	r3, r6, r4
        if ((options & osFlagsWaitAll) == osFlagsWaitAll) {
 8003bd0:	b13f      	cbz	r7, 8003be2 <osThreadFlagsWait+0x5a>
          if ((flags & rflags) == flags) {
 8003bd2:	429e      	cmp	r6, r3
 8003bd4:	d007      	beq.n	8003be6 <osThreadFlagsWait+0x5e>
            break;
          } else {
            if (timeout == 0U) {
 8003bd6:	f1b8 0f00 	cmp.w	r8, #0
 8003bda:	d108      	bne.n	8003bee <osThreadFlagsWait+0x66>
              rflags = (uint32_t)osErrorResource;
 8003bdc:	f06f 0402 	mvn.w	r4, #2
    }
    while (rval != pdFAIL);
  }

  /* Return flags before clearing */
  return (rflags);
 8003be0:	e001      	b.n	8003be6 <osThreadFlagsWait+0x5e>
          if ((flags & rflags) != 0) {
 8003be2:	2b00      	cmp	r3, #0
 8003be4:	d0f7      	beq.n	8003bd6 <osThreadFlagsWait+0x4e>
}
 8003be6:	4620      	mov	r0, r4
 8003be8:	b002      	add	sp, #8
 8003bea:	e8bd 87f0 	ldmia.w	sp!, {r4, r5, r6, r7, r8, r9, sl, pc}
        td = xTaskGetTickCount() - t0;
 8003bee:	f000 fda9 	bl	8004744 <xTaskGetTickCount>
 8003bf2:	eba0 0309 	sub.w	r3, r0, r9
        if (td > tout) {
 8003bf6:	429d      	cmp	r5, r3
 8003bf8:	d312      	bcc.n	8003c20 <osThreadFlagsWait+0x98>
          tout -= td;
 8003bfa:	444d      	add	r5, r9
 8003bfc:	1a2d      	subs	r5, r5, r0
 8003bfe:	e7da      	b.n	8003bb6 <osThreadFlagsWait+0x2e>
          rflags = (uint32_t)osErrorResource;
 8003c00:	f1b8 0f00 	cmp.w	r8, #0
 8003c04:	bf14      	ite	ne
 8003c06:	f06f 0401 	mvnne.w	r4, #1
 8003c0a:	f06f 0402 	mvneq.w	r4, #2
    while (rval != pdFAIL);
 8003c0e:	2800      	cmp	r0, #0
 8003c10:	d1d1      	bne.n	8003bb6 <osThreadFlagsWait+0x2e>
 8003c12:	e7e8      	b.n	8003be6 <osThreadFlagsWait+0x5e>
    rflags = (uint32_t)osErrorISR;
 8003c14:	f06f 0405 	mvn.w	r4, #5
 8003c18:	e7e5      	b.n	8003be6 <osThreadFlagsWait+0x5e>
    rflags = (uint32_t)osErrorParameter;
 8003c1a:	f06f 0403 	mvn.w	r4, #3
 8003c1e:	e7e2      	b.n	8003be6 <osThreadFlagsWait+0x5e>
          tout  = 0;
 8003c20:	2500      	movs	r5, #0
    while (rval != pdFAIL);
 8003c22:	e7c8      	b.n	8003bb6 <osThreadFlagsWait+0x2e>

08003c24 <osDelay>:
#endif /* (configUSE_OS2_THREAD_FLAGS == 1) */

osStatus_t osDelay (uint32_t ticks) {
 8003c24:	b508      	push	{r3, lr}
 8003c26:	f3ef 8205 	mrs	r2, IPSR
  osStatus_t stat;

  if (IS_IRQ()) {
 8003c2a:	b922      	cbnz	r2, 8003c36 <osDelay+0x12>
    stat = osErrorISR;
  }
  else {
    stat = osOK;

    if (ticks != 0U) {
 8003c2c:	b108      	cbz	r0, 8003c32 <osDelay+0xe>
      vTaskDelay(ticks);
 8003c2e:	f000 fe9b 	bl	8004968 <vTaskDelay>
    stat = osOK;
 8003c32:	2000      	movs	r0, #0
    }
  }

  return (stat);
}
 8003c34:	bd08      	pop	{r3, pc}
    stat = osErrorISR;
 8003c36:	f06f 0005 	mvn.w	r0, #5
  return (stat);
 8003c3a:	e7fb      	b.n	8003c34 <osDelay+0x10>

08003c3c <vApplicationGetIdleTaskMemory>:
__WEAK void vApplicationGetIdleTaskMemory (StaticTask_t **ppxIdleTaskTCBBuffer, StackType_t **ppxIdleTaskStackBuffer, uint32_t *pulIdleTaskStackSize) {
  /* Idle task control block and stack */
  static StaticTask_t Idle_TCB;
  static StackType_t  Idle_Stack[configMINIMAL_STACK_SIZE];

  *ppxIdleTaskTCBBuffer   = &Idle_TCB;
 8003c3c:	4b03      	ldr	r3, [pc, #12]	@ (8003c4c <vApplicationGetIdleTaskMemory+0x10>)
 8003c3e:	6003      	str	r3, [r0, #0]
  *ppxIdleTaskStackBuffer = &Idle_Stack[0];
 8003c40:	4b03      	ldr	r3, [pc, #12]	@ (8003c50 <vApplicationGetIdleTaskMemory+0x14>)
 8003c42:	600b      	str	r3, [r1, #0]
  *pulIdleTaskStackSize   = (uint32_t)configMINIMAL_STACK_SIZE;
 8003c44:	2380      	movs	r3, #128	@ 0x80
 8003c46:	6013      	str	r3, [r2, #0]
}
 8003c48:	4770      	bx	lr
 8003c4a:	bf00      	nop
 8003c4c:	20000e44 	.word	0x20000e44
 8003c50:	20000c44 	.word	0x20000c44

08003c54 <vApplicationGetTimerTaskMemory>:
__WEAK void vApplicationGetTimerTaskMemory (StaticTask_t **ppxTimerTaskTCBBuffer, StackType_t **ppxTimerTaskStackBuffer, uint32_t *pulTimerTaskStackSize) {
  /* Timer task control block and stack */
  static StaticTask_t Timer_TCB;
  static StackType_t  Timer_Stack[configTIMER_TASK_STACK_DEPTH];

  *ppxTimerTaskTCBBuffer   = &Timer_TCB;
 8003c54:	4b03      	ldr	r3, [pc, #12]	@ (8003c64 <vApplicationGetTimerTaskMemory+0x10>)
 8003c56:	6003      	str	r3, [r0, #0]
  *ppxTimerTaskStackBuffer = &Timer_Stack[0];
 8003c58:	4b03      	ldr	r3, [pc, #12]	@ (8003c68 <vApplicationGetTimerTaskMemory+0x14>)
 8003c5a:	600b      	str	r3, [r1, #0]
  *pulTimerTaskStackSize   = (uint32_t)configTIMER_TASK_STACK_DEPTH;
 8003c5c:	f44f 7380 	mov.w	r3, #256	@ 0x100
 8003c60:	6013      	str	r3, [r2, #0]
}
 8003c62:	4770      	bx	lr
 8003c64:	20000b9c 	.word	0x20000b9c
 8003c68:	2000079c 	.word	0x2000079c

08003c6c <vListInitialise>:
	as the only list entry. */
	pxList->pxIndex = ( ListItem_t * ) &( pxList->xListEnd );			/*lint !e826 !e740 !e9087 The mini list structure is used as the list end to save RAM.  This is checked and valid. */

	/* The list end value is the highest possible value in the list to
	ensure it remains at the end of the list. */
	pxList->xListEnd.xItemValue = portMAX_DELAY;
 8003c6c:	f04f 32ff 	mov.w	r2, #4294967295	@ 0xffffffff
	pxList->pxIndex = ( ListItem_t * ) &( pxList->xListEnd );			/*lint !e826 !e740 !e9087 The mini list structure is used as the list end to save RAM.  This is checked and valid. */
 8003c70:	f100 0308 	add.w	r3, r0, #8

	/* The list end next and previous pointers point to itself so we know
	when the list is empty. */
	pxList->xListEnd.pxNext = ( ListItem_t * ) &( pxList->xListEnd );	/*lint !e826 !e740 !e9087 The mini list structure is used as the list end to save RAM.  This is checked and valid. */
 8003c74:	e9c0 2302 	strd	r2, r3, [r0, #8]
	pxList->pxIndex = ( ListItem_t * ) &( pxList->xListEnd );			/*lint !e826 !e740 !e9087 The mini list structure is used as the list end to save RAM.  This is checked and valid. */
 8003c78:	6043      	str	r3, [r0, #4]
	pxList->xListEnd.pxPrevious = ( ListItem_t * ) &( pxList->xListEnd );/*lint !e826 !e740 !e9087 The mini list structure is used as the list end to save RAM.  This is checked and valid. */
 8003c7a:	6103      	str	r3, [r0, #16]

	pxList->uxNumberOfItems = ( UBaseType_t ) 0U;
 8003c7c:	2300      	movs	r3, #0
 8003c7e:	6003      	str	r3, [r0, #0]

	/* Write known values into the list if
	configUSE_LIST_DATA_INTEGRITY_CHECK_BYTES is set to 1. */
	listSET_LIST_INTEGRITY_CHECK_1_VALUE( pxList );
	listSET_LIST_INTEGRITY_CHECK_2_VALUE( pxList );
}
 8003c80:	4770      	bx	lr

08003c82 <vListInitialiseItem>:
/*-----------------------------------------------------------*/

void vListInitialiseItem( ListItem_t * const pxItem )
{
	/* Make sure the list item is not recorded as being on a list. */
	pxItem->pxContainer = NULL;
 8003c82:	2300      	movs	r3, #0
 8003c84:	6103      	str	r3, [r0, #16]

	/* Write known values into the list item if
	configUSE_LIST_DATA_INTEGRITY_CHECK_BYTES is set to 1. */
	listSET_FIRST_LIST_ITEM_INTEGRITY_CHECK_VALUE( pxItem );
	listSET_SECOND_LIST_ITEM_INTEGRITY_CHECK_VALUE( pxItem );
}
 8003c86:	4770      	bx	lr

08003c88 <vListInsertEnd>:
/*-----------------------------------------------------------*/

void vListInsertEnd( List_t * const pxList, ListItem_t * const pxNewListItem )
{
ListItem_t * const pxIndex = pxList->pxIndex;
 8003c88:	6843      	ldr	r3, [r0, #4]

	/* Insert a new list item into pxList, but rather than sort the list,
	makes the new list item the last item to be removed by a call to
	listGET_OWNER_OF_NEXT_ENTRY(). */
	pxNewListItem->pxNext = pxIndex;
	pxNewListItem->pxPrevious = pxIndex->pxPrevious;
 8003c8a:	689a      	ldr	r2, [r3, #8]
	pxNewListItem->pxNext = pxIndex;
 8003c8c:	604b      	str	r3, [r1, #4]
	pxNewListItem->pxPrevious = pxIndex->pxPrevious;
 8003c8e:	608a      	str	r2, [r1, #8]

	/* Only used during decision coverage testing. */
	mtCOVERAGE_TEST_DELAY();

	pxIndex->pxPrevious->pxNext = pxNewListItem;
 8003c90:	6051      	str	r1, [r2, #4]
	pxIndex->pxPrevious = pxNewListItem;
 8003c92:	6099      	str	r1, [r3, #8]

	/* Remember which list the item is in. */
	pxNewListItem->pxContainer = pxList;

	( pxList->uxNumberOfItems )++;
 8003c94:	6803      	ldr	r3, [r0, #0]
	pxNewListItem->pxContainer = pxList;
 8003c96:	6108      	str	r0, [r1, #16]
	( pxList->uxNumberOfItems )++;
 8003c98:	3301      	adds	r3, #1
 8003c9a:	6003      	str	r3, [r0, #0]
}
 8003c9c:	4770      	bx	lr

08003c9e <vListInsert>:
/*-----------------------------------------------------------*/

void vListInsert( List_t * const pxList, ListItem_t * const pxNewListItem )
{
 8003c9e:	b530      	push	{r4, r5, lr}
ListItem_t *pxIterator;
const TickType_t xValueOfInsertion = pxNewListItem->xItemValue;
 8003ca0:	680c      	ldr	r4, [r1, #0]
	new list item should be placed after it.  This ensures that TCBs which are
	stored in ready lists (all of which have the same xItemValue value) get a
	share of the CPU.  However, if the xItemValue is the same as the back marker
	the iteration loop below will not end.  Therefore the value is checked
	first, and the algorithm slightly modified if necessary. */
	if( xValueOfInsertion == portMAX_DELAY )
 8003ca2:	1c63      	adds	r3, r4, #1
 8003ca4:	d10a      	bne.n	8003cbc <vListInsert+0x1e>
	{
		pxIterator = pxList->xListEnd.pxPrevious;
 8003ca6:	6903      	ldr	r3, [r0, #16]
			/* There is nothing to do here, just iterating to the wanted
			insertion position. */
		}
	}

	pxNewListItem->pxNext = pxIterator->pxNext;
 8003ca8:	685a      	ldr	r2, [r3, #4]
 8003caa:	604a      	str	r2, [r1, #4]
	pxNewListItem->pxNext->pxPrevious = pxNewListItem;
 8003cac:	6091      	str	r1, [r2, #8]
	pxNewListItem->pxPrevious = pxIterator;
 8003cae:	608b      	str	r3, [r1, #8]
	pxIterator->pxNext = pxNewListItem;
 8003cb0:	6059      	str	r1, [r3, #4]

	/* Remember which list the item is in.  This allows fast removal of the
	item later. */
	pxNewListItem->pxContainer = pxList;

	( pxList->uxNumberOfItems )++;
 8003cb2:	6803      	ldr	r3, [r0, #0]
	pxNewListItem->pxContainer = pxList;
 8003cb4:	6108      	str	r0, [r1, #16]
	( pxList->uxNumberOfItems )++;
 8003cb6:	3301      	adds	r3, #1
 8003cb8:	6003      	str	r3, [r0, #0]
}
 8003cba:	bd30      	pop	{r4, r5, pc}
		for( pxIterator = ( ListItem_t * ) &( pxList->xListEnd ); pxIterator->pxNext->xItemValue <= xValueOfInsertion; pxIterator = pxIterator->pxNext ) /*lint !e826 !e740 !e9087 The mini list structure is used as the list end to save RAM.  This is checked and valid. *//*lint !e440 The iterator moves to a different value, not xValueOfInsertion. */
 8003cbc:	f100 0208 	add.w	r2, r0, #8
 8003cc0:	4613      	mov	r3, r2
 8003cc2:	6852      	ldr	r2, [r2, #4]
 8003cc4:	6815      	ldr	r5, [r2, #0]
 8003cc6:	42a5      	cmp	r5, r4
 8003cc8:	d9fa      	bls.n	8003cc0 <vListInsert+0x22>
 8003cca:	e7ed      	b.n	8003ca8 <vListInsert+0xa>

08003ccc <uxListRemove>:

UBaseType_t uxListRemove( ListItem_t * const pxItemToRemove )
{
/* The list item knows which list it is in.  Obtain the list from the list
item. */
List_t * const pxList = pxItemToRemove->pxContainer;
 8003ccc:	6903      	ldr	r3, [r0, #16]

	pxItemToRemove->pxNext->pxPrevious = pxItemToRemove->pxPrevious;
 8003cce:	e9d0 1201 	ldrd	r1, r2, [r0, #4]
 8003cd2:	608a      	str	r2, [r1, #8]
	pxItemToRemove->pxPrevious->pxNext = pxItemToRemove->pxNext;
 8003cd4:	6051      	str	r1, [r2, #4]

	/* Only used during decision coverage testing. */
	mtCOVERAGE_TEST_DELAY();

	/* Make sure the index is left pointing to a valid item. */
	if( pxList->pxIndex == pxItemToRemove )
 8003cd6:	6859      	ldr	r1, [r3, #4]
 8003cd8:	4281      	cmp	r1, r0
	{
		pxList->pxIndex = pxItemToRemove->pxPrevious;
 8003cda:	bf08      	it	eq
 8003cdc:	605a      	streq	r2, [r3, #4]
	else
	{
		mtCOVERAGE_TEST_MARKER();
	}

	pxItemToRemove->pxContainer = NULL;
 8003cde:	2200      	movs	r2, #0
 8003ce0:	6102      	str	r2, [r0, #16]
	( pxList->uxNumberOfItems )--;
 8003ce2:	681a      	ldr	r2, [r3, #0]
 8003ce4:	3a01      	subs	r2, #1
 8003ce6:	601a      	str	r2, [r3, #0]

	return pxList->uxNumberOfItems;
 8003ce8:	6818      	ldr	r0, [r3, #0]
}
 8003cea:	4770      	bx	lr

08003cec <prvIsQueueEmpty>:
	taskEXIT_CRITICAL();
}
/*-----------------------------------------------------------*/

static BaseType_t prvIsQueueEmpty( const Queue_t *pxQueue )
{
 8003cec:	b510      	push	{r4, lr}
 8003cee:	4604      	mov	r4, r0
BaseType_t xReturn;

	taskENTER_CRITICAL();
 8003cf0:	f001 fb50 	bl	8005394 <vPortEnterCritical>
	{
		if( pxQueue->uxMessagesWaiting == ( UBaseType_t )  0 )
 8003cf4:	6ba4      	ldr	r4, [r4, #56]	@ 0x38
		else
		{
			xReturn = pdFALSE;
		}
	}
	taskEXIT_CRITICAL();
 8003cf6:	f001 fb6d 	bl	80053d4 <vPortExitCritical>

	return xReturn;
}
 8003cfa:	fab4 f084 	clz	r0, r4
 8003cfe:	0940      	lsrs	r0, r0, #5
 8003d00:	bd10      	pop	{r4, pc}

08003d02 <prvCopyDataToQueue>:
{
 8003d02:	b570      	push	{r4, r5, r6, lr}
 8003d04:	4616      	mov	r6, r2
	if( pxQueue->uxItemSize == ( UBaseType_t ) 0 )
 8003d06:	6c02      	ldr	r2, [r0, #64]	@ 0x40
{
 8003d08:	4604      	mov	r4, r0
	uxMessagesWaiting = pxQueue->uxMessagesWaiting;
 8003d0a:	6b85      	ldr	r5, [r0, #56]	@ 0x38
	if( pxQueue->uxItemSize == ( UBaseType_t ) 0 )
 8003d0c:	b942      	cbnz	r2, 8003d20 <prvCopyDataToQueue+0x1e>
			if( pxQueue->uxQueueType == queueQUEUE_IS_MUTEX )
 8003d0e:	6806      	ldr	r6, [r0, #0]
 8003d10:	b99e      	cbnz	r6, 8003d3a <prvCopyDataToQueue+0x38>
				xReturn = xTaskPriorityDisinherit( pxQueue->u.xSemaphore.xMutexHolder );
 8003d12:	6880      	ldr	r0, [r0, #8]
 8003d14:	f000 ff6c 	bl	8004bf0 <xTaskPriorityDisinherit>
				pxQueue->u.xSemaphore.xMutexHolder = NULL;
 8003d18:	60a6      	str	r6, [r4, #8]
	pxQueue->uxMessagesWaiting = uxMessagesWaiting + ( UBaseType_t ) 1;
 8003d1a:	3501      	adds	r5, #1
 8003d1c:	63a5      	str	r5, [r4, #56]	@ 0x38
}
 8003d1e:	bd70      	pop	{r4, r5, r6, pc}
	else if( xPosition == queueSEND_TO_BACK )
 8003d20:	b96e      	cbnz	r6, 8003d3e <prvCopyDataToQueue+0x3c>
		( void ) memcpy( ( void * ) pxQueue->pcWriteTo, pvItemToQueue, ( size_t ) pxQueue->uxItemSize ); /*lint !e961 !e418 !e9087 MISRA exception as the casts are only redundant for some ports, plus previous logic ensures a null pointer can only be passed to memcpy() if the copy size is 0.  Cast to void required by function signature and safe as no alignment requirement and copy length specified in bytes. */
 8003d22:	6840      	ldr	r0, [r0, #4]
 8003d24:	f001 fdfc 	bl	8005920 <memcpy>
		pxQueue->pcWriteTo += pxQueue->uxItemSize; /*lint !e9016 Pointer arithmetic on char types ok, especially in this use case where it is the clearest way of conveying intent. */
 8003d28:	6863      	ldr	r3, [r4, #4]
 8003d2a:	6c22      	ldr	r2, [r4, #64]	@ 0x40
 8003d2c:	4413      	add	r3, r2
		if( pxQueue->pcWriteTo >= pxQueue->u.xQueue.pcTail ) /*lint !e946 MISRA exception justified as comparison of pointers is the cleanest solution. */
 8003d2e:	68a2      	ldr	r2, [r4, #8]
		pxQueue->pcWriteTo += pxQueue->uxItemSize; /*lint !e9016 Pointer arithmetic on char types ok, especially in this use case where it is the clearest way of conveying intent. */
 8003d30:	6063      	str	r3, [r4, #4]
		if( pxQueue->pcWriteTo >= pxQueue->u.xQueue.pcTail ) /*lint !e946 MISRA exception justified as comparison of pointers is the cleanest solution. */
 8003d32:	4293      	cmp	r3, r2
			pxQueue->pcWriteTo = pxQueue->pcHead;
 8003d34:	bf24      	itt	cs
 8003d36:	6823      	ldrcs	r3, [r4, #0]
 8003d38:	6063      	strcs	r3, [r4, #4]
BaseType_t xReturn = pdFALSE;
 8003d3a:	2000      	movs	r0, #0
 8003d3c:	e7ed      	b.n	8003d1a <prvCopyDataToQueue+0x18>
		( void ) memcpy( ( void * ) pxQueue->u.xQueue.pcReadFrom, pvItemToQueue, ( size_t ) pxQueue->uxItemSize ); /*lint !e961 !e9087 !e418 MISRA exception as the casts are only redundant for some ports.  Cast to void required by function signature and safe as no alignment requirement and copy length specified in bytes.  Assert checks null pointer only used when length is 0. */
 8003d3e:	68c0      	ldr	r0, [r0, #12]
 8003d40:	f001 fdee 	bl	8005920 <memcpy>
		pxQueue->u.xQueue.pcReadFrom -= pxQueue->uxItemSize;
 8003d44:	6c22      	ldr	r2, [r4, #64]	@ 0x40
 8003d46:	68e3      	ldr	r3, [r4, #12]
 8003d48:	4251      	negs	r1, r2
 8003d4a:	1a9b      	subs	r3, r3, r2
		if( pxQueue->u.xQueue.pcReadFrom < pxQueue->pcHead ) /*lint !e946 MISRA exception justified as comparison of pointers is the cleanest solution. */
 8003d4c:	6822      	ldr	r2, [r4, #0]
		pxQueue->u.xQueue.pcReadFrom -= pxQueue->uxItemSize;
 8003d4e:	60e3      	str	r3, [r4, #12]
		if( pxQueue->u.xQueue.pcReadFrom < pxQueue->pcHead ) /*lint !e946 MISRA exception justified as comparison of pointers is the cleanest solution. */
 8003d50:	4293      	cmp	r3, r2
			pxQueue->u.xQueue.pcReadFrom = ( pxQueue->u.xQueue.pcTail - pxQueue->uxItemSize );
 8003d52:	bf3e      	ittt	cc
 8003d54:	68a3      	ldrcc	r3, [r4, #8]
 8003d56:	185b      	addcc	r3, r3, r1
 8003d58:	60e3      	strcc	r3, [r4, #12]
		if( xPosition == queueOVERWRITE )
 8003d5a:	2e02      	cmp	r6, #2
 8003d5c:	d1ed      	bne.n	8003d3a <prvCopyDataToQueue+0x38>
			if( uxMessagesWaiting > ( UBaseType_t ) 0 )
 8003d5e:	b10d      	cbz	r5, 8003d64 <prvCopyDataToQueue+0x62>
				--uxMessagesWaiting;
 8003d60:	3d01      	subs	r5, #1
 8003d62:	e7ea      	b.n	8003d3a <prvCopyDataToQueue+0x38>
BaseType_t xReturn = pdFALSE;
 8003d64:	4628      	mov	r0, r5
 8003d66:	e7d8      	b.n	8003d1a <prvCopyDataToQueue+0x18>

08003d68 <prvCopyDataFromQueue>:
{
 8003d68:	4603      	mov	r3, r0
	if( pxQueue->uxItemSize != ( UBaseType_t ) 0 )
 8003d6a:	6c1a      	ldr	r2, [r3, #64]	@ 0x40
{
 8003d6c:	4608      	mov	r0, r1
 8003d6e:	b410      	push	{r4}
	if( pxQueue->uxItemSize != ( UBaseType_t ) 0 )
 8003d70:	b162      	cbz	r2, 8003d8c <prvCopyDataFromQueue+0x24>
		pxQueue->u.xQueue.pcReadFrom += pxQueue->uxItemSize; /*lint !e9016 Pointer arithmetic on char types ok, especially in this use case where it is the clearest way of conveying intent. */
 8003d72:	68dc      	ldr	r4, [r3, #12]
		if( pxQueue->u.xQueue.pcReadFrom >= pxQueue->u.xQueue.pcTail ) /*lint !e946 MISRA exception justified as use of the relational operator is the cleanest solutions. */
 8003d74:	6899      	ldr	r1, [r3, #8]
		pxQueue->u.xQueue.pcReadFrom += pxQueue->uxItemSize; /*lint !e9016 Pointer arithmetic on char types ok, especially in this use case where it is the clearest way of conveying intent. */
 8003d76:	4414      	add	r4, r2
		if( pxQueue->u.xQueue.pcReadFrom >= pxQueue->u.xQueue.pcTail ) /*lint !e946 MISRA exception justified as use of the relational operator is the cleanest solutions. */
 8003d78:	428c      	cmp	r4, r1
			pxQueue->u.xQueue.pcReadFrom = pxQueue->pcHead;
 8003d7a:	bf28      	it	cs
 8003d7c:	6819      	ldrcs	r1, [r3, #0]
		pxQueue->u.xQueue.pcReadFrom += pxQueue->uxItemSize; /*lint !e9016 Pointer arithmetic on char types ok, especially in this use case where it is the clearest way of conveying intent. */
 8003d7e:	60dc      	str	r4, [r3, #12]
			pxQueue->u.xQueue.pcReadFrom = pxQueue->pcHead;
 8003d80:	bf28      	it	cs
 8003d82:	60d9      	strcs	r1, [r3, #12]
		( void ) memcpy( ( void * ) pvBuffer, ( void * ) pxQueue->u.xQueue.pcReadFrom, ( size_t ) pxQueue->uxItemSize ); /*lint !e961 !e418 !e9087 MISRA exception as the casts are only redundant for some ports.  Also previous logic ensures a null pointer can only be passed to memcpy() when the count is 0.  Cast to void required by function signature and safe as no alignment requirement and copy length specified in bytes. */
 8003d84:	68d9      	ldr	r1, [r3, #12]
}
 8003d86:	bc10      	pop	{r4}
		( void ) memcpy( ( void * ) pvBuffer, ( void * ) pxQueue->u.xQueue.pcReadFrom, ( size_t ) pxQueue->uxItemSize ); /*lint !e961 !e418 !e9087 MISRA exception as the casts are only redundant for some ports.  Also previous logic ensures a null pointer can only be passed to memcpy() when the count is 0.  Cast to void required by function signature and safe as no alignment requirement and copy length specified in bytes. */
 8003d88:	f001 bdca 	b.w	8005920 <memcpy>
}
 8003d8c:	bc10      	pop	{r4}
 8003d8e:	4770      	bx	lr

08003d90 <prvUnlockQueue>:
{
 8003d90:	b570      	push	{r4, r5, r6, lr}
 8003d92:	4604      	mov	r4, r0
	taskENTER_CRITICAL();
 8003d94:	f001 fafe 	bl	8005394 <vPortEnterCritical>
		int8_t cTxLock = pxQueue->cTxLock;
 8003d98:	f894 5045 	ldrb.w	r5, [r4, #69]	@ 0x45
					if( xTaskRemoveFromEventList( &( pxQueue->xTasksWaitingToReceive ) ) != pdFALSE )
 8003d9c:	f104 0624 	add.w	r6, r4, #36	@ 0x24
		int8_t cTxLock = pxQueue->cTxLock;
 8003da0:	b26d      	sxtb	r5, r5
		while( cTxLock > queueLOCKED_UNMODIFIED )
 8003da2:	2d00      	cmp	r5, #0
 8003da4:	dc14      	bgt.n	8003dd0 <prvUnlockQueue+0x40>
		pxQueue->cTxLock = queueUNLOCKED;
 8003da6:	23ff      	movs	r3, #255	@ 0xff
 8003da8:	f884 3045 	strb.w	r3, [r4, #69]	@ 0x45
	taskEXIT_CRITICAL();
 8003dac:	f001 fb12 	bl	80053d4 <vPortExitCritical>
	taskENTER_CRITICAL();
 8003db0:	f001 faf0 	bl	8005394 <vPortEnterCritical>
		int8_t cRxLock = pxQueue->cRxLock;
 8003db4:	f894 5044 	ldrb.w	r5, [r4, #68]	@ 0x44
				if( xTaskRemoveFromEventList( &( pxQueue->xTasksWaitingToSend ) ) != pdFALSE )
 8003db8:	f104 0610 	add.w	r6, r4, #16
		int8_t cRxLock = pxQueue->cRxLock;
 8003dbc:	b26d      	sxtb	r5, r5
		while( cRxLock > queueLOCKED_UNMODIFIED )
 8003dbe:	2d00      	cmp	r5, #0
 8003dc0:	dc12      	bgt.n	8003de8 <prvUnlockQueue+0x58>
		pxQueue->cRxLock = queueUNLOCKED;
 8003dc2:	23ff      	movs	r3, #255	@ 0xff
 8003dc4:	f884 3044 	strb.w	r3, [r4, #68]	@ 0x44
}
 8003dc8:	e8bd 4070 	ldmia.w	sp!, {r4, r5, r6, lr}
	taskEXIT_CRITICAL();
 8003dcc:	f001 bb02 	b.w	80053d4 <vPortExitCritical>
				if( listLIST_IS_EMPTY( &( pxQueue->xTasksWaitingToReceive ) ) == pdFALSE )
 8003dd0:	6a63      	ldr	r3, [r4, #36]	@ 0x24
 8003dd2:	2b00      	cmp	r3, #0
 8003dd4:	d0e7      	beq.n	8003da6 <prvUnlockQueue+0x16>
					if( xTaskRemoveFromEventList( &( pxQueue->xTasksWaitingToReceive ) ) != pdFALSE )
 8003dd6:	4630      	mov	r0, r6
 8003dd8:	f000 fe66 	bl	8004aa8 <xTaskRemoveFromEventList>
 8003ddc:	b108      	cbz	r0, 8003de2 <prvUnlockQueue+0x52>
						vTaskMissedYield();
 8003dde:	f000 feeb 	bl	8004bb8 <vTaskMissedYield>
			--cTxLock;
 8003de2:	3d01      	subs	r5, #1
 8003de4:	b26d      	sxtb	r5, r5
 8003de6:	e7dc      	b.n	8003da2 <prvUnlockQueue+0x12>
			if( listLIST_IS_EMPTY( &( pxQueue->xTasksWaitingToSend ) ) == pdFALSE )
 8003de8:	6923      	ldr	r3, [r4, #16]
 8003dea:	2b00      	cmp	r3, #0
 8003dec:	d0e9      	beq.n	8003dc2 <prvUnlockQueue+0x32>
				if( xTaskRemoveFromEventList( &( pxQueue->xTasksWaitingToSend ) ) != pdFALSE )
 8003dee:	4630      	mov	r0, r6
 8003df0:	f000 fe5a 	bl	8004aa8 <xTaskRemoveFromEventList>
 8003df4:	b108      	cbz	r0, 8003dfa <prvUnlockQueue+0x6a>
					vTaskMissedYield();
 8003df6:	f000 fedf 	bl	8004bb8 <vTaskMissedYield>
				--cRxLock;
 8003dfa:	3d01      	subs	r5, #1
 8003dfc:	b26d      	sxtb	r5, r5
 8003dfe:	e7de      	b.n	8003dbe <prvUnlockQueue+0x2e>

08003e00 <xQueueGenericReset>:
{
 8003e00:	b538      	push	{r3, r4, r5, lr}
 8003e02:	460d      	mov	r5, r1
	configASSERT( pxQueue );
 8003e04:	4604      	mov	r4, r0
 8003e06:	b940      	cbnz	r0, 8003e1a <xQueueGenericReset+0x1a>

portFORCE_INLINE static void vPortRaiseBASEPRI( void )
{
uint32_t ulNewBASEPRI;

	__asm volatile
 8003e08:	f04f 0350 	mov.w	r3, #80	@ 0x50
 8003e0c:	f383 8811 	msr	BASEPRI, r3
 8003e10:	f3bf 8f6f 	isb	sy
 8003e14:	f3bf 8f4f 	dsb	sy
 8003e18:	e7fe      	b.n	8003e18 <xQueueGenericReset+0x18>
	taskENTER_CRITICAL();
 8003e1a:	f001 fabb 	bl	8005394 <vPortEnterCritical>
		pxQueue->u.xQueue.pcTail = pxQueue->pcHead + ( pxQueue->uxLength * pxQueue->uxItemSize ); /*lint !e9016 Pointer arithmetic allowed on char types, especially when it assists conveying intent. */
 8003e1e:	e9d4 310f 	ldrd	r3, r1, [r4, #60]	@ 0x3c
 8003e22:	434b      	muls	r3, r1
 8003e24:	6822      	ldr	r2, [r4, #0]
 8003e26:	18d0      	adds	r0, r2, r3
		pxQueue->u.xQueue.pcReadFrom = pxQueue->pcHead + ( ( pxQueue->uxLength - 1U ) * pxQueue->uxItemSize ); /*lint !e9016 Pointer arithmetic allowed on char types, especially when it assists conveying intent. */
 8003e28:	1a5b      	subs	r3, r3, r1
		pxQueue->u.xQueue.pcTail = pxQueue->pcHead + ( pxQueue->uxLength * pxQueue->uxItemSize ); /*lint !e9016 Pointer arithmetic allowed on char types, especially when it assists conveying intent. */
 8003e2a:	60a0      	str	r0, [r4, #8]
		pxQueue->pcWriteTo = pxQueue->pcHead;
 8003e2c:	6062      	str	r2, [r4, #4]
		pxQueue->uxMessagesWaiting = ( UBaseType_t ) 0U;
 8003e2e:	2000      	movs	r0, #0
		pxQueue->u.xQueue.pcReadFrom = pxQueue->pcHead + ( ( pxQueue->uxLength - 1U ) * pxQueue->uxItemSize ); /*lint !e9016 Pointer arithmetic allowed on char types, especially when it assists conveying intent. */
 8003e30:	441a      	add	r2, r3
		pxQueue->cRxLock = queueUNLOCKED;
 8003e32:	23ff      	movs	r3, #255	@ 0xff
		pxQueue->uxMessagesWaiting = ( UBaseType_t ) 0U;
 8003e34:	63a0      	str	r0, [r4, #56]	@ 0x38
		pxQueue->u.xQueue.pcReadFrom = pxQueue->pcHead + ( ( pxQueue->uxLength - 1U ) * pxQueue->uxItemSize ); /*lint !e9016 Pointer arithmetic allowed on char types, especially when it assists conveying intent. */
 8003e36:	60e2      	str	r2, [r4, #12]
		pxQueue->cRxLock = queueUNLOCKED;
 8003e38:	f884 3044 	strb.w	r3, [r4, #68]	@ 0x44
		pxQueue->cTxLock = queueUNLOCKED;
 8003e3c:	f884 3045 	strb.w	r3, [r4, #69]	@ 0x45
		if( xNewQueue == pdFALSE )
 8003e40:	b9a5      	cbnz	r5, 8003e6c <xQueueGenericReset+0x6c>
			if( listLIST_IS_EMPTY( &( pxQueue->xTasksWaitingToSend ) ) == pdFALSE )
 8003e42:	6923      	ldr	r3, [r4, #16]
 8003e44:	b173      	cbz	r3, 8003e64 <xQueueGenericReset+0x64>
				if( xTaskRemoveFromEventList( &( pxQueue->xTasksWaitingToSend ) ) != pdFALSE )
 8003e46:	f104 0010 	add.w	r0, r4, #16
 8003e4a:	f000 fe2d 	bl	8004aa8 <xTaskRemoveFromEventList>
 8003e4e:	b148      	cbz	r0, 8003e64 <xQueueGenericReset+0x64>
					queueYIELD_IF_USING_PREEMPTION();
 8003e50:	f04f 23e0 	mov.w	r3, #3758153728	@ 0xe000e000
 8003e54:	f04f 5280 	mov.w	r2, #268435456	@ 0x10000000
 8003e58:	f8c3 2d04 	str.w	r2, [r3, #3332]	@ 0xd04
 8003e5c:	f3bf 8f4f 	dsb	sy
 8003e60:	f3bf 8f6f 	isb	sy
	taskEXIT_CRITICAL();
 8003e64:	f001 fab6 	bl	80053d4 <vPortExitCritical>
}
 8003e68:	2001      	movs	r0, #1
 8003e6a:	bd38      	pop	{r3, r4, r5, pc}
			vListInitialise( &( pxQueue->xTasksWaitingToSend ) );
 8003e6c:	f104 0010 	add.w	r0, r4, #16
 8003e70:	f7ff fefc 	bl	8003c6c <vListInitialise>
			vListInitialise( &( pxQueue->xTasksWaitingToReceive ) );
 8003e74:	f104 0024 	add.w	r0, r4, #36	@ 0x24
 8003e78:	f7ff fef8 	bl	8003c6c <vListInitialise>
 8003e7c:	e7f2      	b.n	8003e64 <xQueueGenericReset+0x64>

08003e7e <xQueueGenericCreateStatic>:
	{
 8003e7e:	b537      	push	{r0, r1, r2, r4, r5, lr}
 8003e80:	460d      	mov	r5, r1
 8003e82:	461c      	mov	r4, r3
		configASSERT( uxQueueLength > ( UBaseType_t ) 0 );
 8003e84:	b940      	cbnz	r0, 8003e98 <xQueueGenericCreateStatic+0x1a>
 8003e86:	f04f 0350 	mov.w	r3, #80	@ 0x50
 8003e8a:	f383 8811 	msr	BASEPRI, r3
 8003e8e:	f3bf 8f6f 	isb	sy
 8003e92:	f3bf 8f4f 	dsb	sy
 8003e96:	e7fe      	b.n	8003e96 <xQueueGenericCreateStatic+0x18>
		configASSERT( pxStaticQueue != NULL );
 8003e98:	b943      	cbnz	r3, 8003eac <xQueueGenericCreateStatic+0x2e>
 8003e9a:	f04f 0350 	mov.w	r3, #80	@ 0x50
 8003e9e:	f383 8811 	msr	BASEPRI, r3
 8003ea2:	f3bf 8f6f 	isb	sy
 8003ea6:	f3bf 8f4f 	dsb	sy
 8003eaa:	e7fe      	b.n	8003eaa <xQueueGenericCreateStatic+0x2c>
		configASSERT( !( ( pucQueueStorage != NULL ) && ( uxItemSize == 0 ) ) );
 8003eac:	b14a      	cbz	r2, 8003ec2 <xQueueGenericCreateStatic+0x44>
 8003eae:	b991      	cbnz	r1, 8003ed6 <xQueueGenericCreateStatic+0x58>
 8003eb0:	f04f 0350 	mov.w	r3, #80	@ 0x50
 8003eb4:	f383 8811 	msr	BASEPRI, r3
 8003eb8:	f3bf 8f6f 	isb	sy
 8003ebc:	f3bf 8f4f 	dsb	sy
 8003ec0:	e7fe      	b.n	8003ec0 <xQueueGenericCreateStatic+0x42>
		configASSERT( !( ( pucQueueStorage == NULL ) && ( uxItemSize != 0 ) ) );
 8003ec2:	b141      	cbz	r1, 8003ed6 <xQueueGenericCreateStatic+0x58>
 8003ec4:	f04f 0350 	mov.w	r3, #80	@ 0x50
 8003ec8:	f383 8811 	msr	BASEPRI, r3
 8003ecc:	f3bf 8f6f 	isb	sy
 8003ed0:	f3bf 8f4f 	dsb	sy
 8003ed4:	e7fe      	b.n	8003ed4 <xQueueGenericCreateStatic+0x56>
			volatile size_t xSize = sizeof( StaticQueue_t );
 8003ed6:	2350      	movs	r3, #80	@ 0x50
 8003ed8:	9301      	str	r3, [sp, #4]
			configASSERT( xSize == sizeof( Queue_t ) );
 8003eda:	9b01      	ldr	r3, [sp, #4]
 8003edc:	2b50      	cmp	r3, #80	@ 0x50
 8003ede:	d008      	beq.n	8003ef2 <xQueueGenericCreateStatic+0x74>
 8003ee0:	f04f 0350 	mov.w	r3, #80	@ 0x50
 8003ee4:	f383 8811 	msr	BASEPRI, r3
 8003ee8:	f3bf 8f6f 	isb	sy
 8003eec:	f3bf 8f4f 	dsb	sy
 8003ef0:	e7fe      	b.n	8003ef0 <xQueueGenericCreateStatic+0x72>
				pxNewQueue->ucStaticallyAllocated = pdTRUE;
 8003ef2:	2101      	movs	r1, #1
		pxNewQueue->pcHead = ( int8_t * ) pxNewQueue;
 8003ef4:	2d00      	cmp	r5, #0
 8003ef6:	bf08      	it	eq
 8003ef8:	4622      	moveq	r2, r4
	pxNewQueue->uxItemSize = uxItemSize;
 8003efa:	e9c4 050f 	strd	r0, r5, [r4, #60]	@ 0x3c
				pxNewQueue->ucStaticallyAllocated = pdTRUE;
 8003efe:	f884 1046 	strb.w	r1, [r4, #70]	@ 0x46
	( void ) xQueueGenericReset( pxNewQueue, pdTRUE );
 8003f02:	4620      	mov	r0, r4
 8003f04:	6022      	str	r2, [r4, #0]
			( void ) xSize; /* Keeps lint quiet when configASSERT() is not defined. */
 8003f06:	9b01      	ldr	r3, [sp, #4]
	( void ) xQueueGenericReset( pxNewQueue, pdTRUE );
 8003f08:	f7ff ff7a 	bl	8003e00 <xQueueGenericReset>
	}
 8003f0c:	4620      	mov	r0, r4
		pxNewQueue->ucQueueType = ucQueueType;
 8003f0e:	f89d 3018 	ldrb.w	r3, [sp, #24]
 8003f12:	f884 304c 	strb.w	r3, [r4, #76]	@ 0x4c
	}
 8003f16:	b003      	add	sp, #12
 8003f18:	bd30      	pop	{r4, r5, pc}

08003f1a <xQueueGenericSend>:
{
 8003f1a:	e92d 41ff 	stmdb	sp!, {r0, r1, r2, r3, r4, r5, r6, r7, r8, lr}
 8003f1e:	460f      	mov	r7, r1
 8003f20:	461e      	mov	r6, r3
	configASSERT( pxQueue );
 8003f22:	4604      	mov	r4, r0
{
 8003f24:	9201      	str	r2, [sp, #4]
	configASSERT( pxQueue );
 8003f26:	b940      	cbnz	r0, 8003f3a <xQueueGenericSend+0x20>
 8003f28:	f04f 0350 	mov.w	r3, #80	@ 0x50
 8003f2c:	f383 8811 	msr	BASEPRI, r3
 8003f30:	f3bf 8f6f 	isb	sy
 8003f34:	f3bf 8f4f 	dsb	sy
 8003f38:	e7fe      	b.n	8003f38 <xQueueGenericSend+0x1e>
	configASSERT( !( ( pvItemToQueue == NULL ) && ( pxQueue->uxItemSize != ( UBaseType_t ) 0U ) ) );
 8003f3a:	b951      	cbnz	r1, 8003f52 <xQueueGenericSend+0x38>
 8003f3c:	6c03      	ldr	r3, [r0, #64]	@ 0x40
 8003f3e:	b143      	cbz	r3, 8003f52 <xQueueGenericSend+0x38>
 8003f40:	f04f 0350 	mov.w	r3, #80	@ 0x50
 8003f44:	f383 8811 	msr	BASEPRI, r3
 8003f48:	f3bf 8f6f 	isb	sy
 8003f4c:	f3bf 8f4f 	dsb	sy
 8003f50:	e7fe      	b.n	8003f50 <xQueueGenericSend+0x36>
	configASSERT( !( ( xCopyPosition == queueOVERWRITE ) && ( pxQueue->uxLength != 1 ) ) );
 8003f52:	2e02      	cmp	r6, #2
 8003f54:	d10b      	bne.n	8003f6e <xQueueGenericSend+0x54>
 8003f56:	6be3      	ldr	r3, [r4, #60]	@ 0x3c
 8003f58:	2b01      	cmp	r3, #1
 8003f5a:	d008      	beq.n	8003f6e <xQueueGenericSend+0x54>
 8003f5c:	f04f 0350 	mov.w	r3, #80	@ 0x50
 8003f60:	f383 8811 	msr	BASEPRI, r3
 8003f64:	f3bf 8f6f 	isb	sy
 8003f68:	f3bf 8f4f 	dsb	sy
 8003f6c:	e7fe      	b.n	8003f6c <xQueueGenericSend+0x52>
		configASSERT( !( ( xTaskGetSchedulerState() == taskSCHEDULER_SUSPENDED ) && ( xTicksToWait != 0 ) ) );
 8003f6e:	f000 fe2f 	bl	8004bd0 <xTaskGetSchedulerState>
 8003f72:	4605      	mov	r5, r0
 8003f74:	b330      	cbz	r0, 8003fc4 <xQueueGenericSend+0xaa>
 8003f76:	2500      	movs	r5, #0
		prvLockQueue( pxQueue );
 8003f78:	f04f 0800 	mov.w	r8, #0
		taskENTER_CRITICAL();
 8003f7c:	f001 fa0a 	bl	8005394 <vPortEnterCritical>
			if( ( pxQueue->uxMessagesWaiting < pxQueue->uxLength ) || ( xCopyPosition == queueOVERWRITE ) )
 8003f80:	6ba2      	ldr	r2, [r4, #56]	@ 0x38
 8003f82:	6be3      	ldr	r3, [r4, #60]	@ 0x3c
 8003f84:	429a      	cmp	r2, r3
 8003f86:	d301      	bcc.n	8003f8c <xQueueGenericSend+0x72>
 8003f88:	2e02      	cmp	r6, #2
 8003f8a:	d127      	bne.n	8003fdc <xQueueGenericSend+0xc2>
					xYieldRequired = prvCopyDataToQueue( pxQueue, pvItemToQueue, xCopyPosition );
 8003f8c:	4632      	mov	r2, r6
 8003f8e:	4639      	mov	r1, r7
 8003f90:	4620      	mov	r0, r4
 8003f92:	f7ff feb6 	bl	8003d02 <prvCopyDataToQueue>
					if( listLIST_IS_EMPTY( &( pxQueue->xTasksWaitingToReceive ) ) == pdFALSE )
 8003f96:	6a63      	ldr	r3, [r4, #36]	@ 0x24
 8003f98:	b11b      	cbz	r3, 8003fa2 <xQueueGenericSend+0x88>
						if( xTaskRemoveFromEventList( &( pxQueue->xTasksWaitingToReceive ) ) != pdFALSE )
 8003f9a:	f104 0024 	add.w	r0, r4, #36	@ 0x24
 8003f9e:	f000 fd83 	bl	8004aa8 <xTaskRemoveFromEventList>
					else if( xYieldRequired != pdFALSE )
 8003fa2:	b148      	cbz	r0, 8003fb8 <xQueueGenericSend+0x9e>
						queueYIELD_IF_USING_PREEMPTION();
 8003fa4:	f04f 23e0 	mov.w	r3, #3758153728	@ 0xe000e000
 8003fa8:	f04f 5280 	mov.w	r2, #268435456	@ 0x10000000
 8003fac:	f8c3 2d04 	str.w	r2, [r3, #3332]	@ 0xd04
 8003fb0:	f3bf 8f4f 	dsb	sy
 8003fb4:	f3bf 8f6f 	isb	sy
				taskEXIT_CRITICAL();
 8003fb8:	f001 fa0c 	bl	80053d4 <vPortExitCritical>
				return pdPASS;
 8003fbc:	2001      	movs	r0, #1
}
 8003fbe:	b004      	add	sp, #16
 8003fc0:	e8bd 81f0 	ldmia.w	sp!, {r4, r5, r6, r7, r8, pc}
		configASSERT( !( ( xTaskGetSchedulerState() == taskSCHEDULER_SUSPENDED ) && ( xTicksToWait != 0 ) ) );
 8003fc4:	9b01      	ldr	r3, [sp, #4]
 8003fc6:	2b00      	cmp	r3, #0
 8003fc8:	d0d6      	beq.n	8003f78 <xQueueGenericSend+0x5e>
 8003fca:	f04f 0350 	mov.w	r3, #80	@ 0x50
 8003fce:	f383 8811 	msr	BASEPRI, r3
 8003fd2:	f3bf 8f6f 	isb	sy
 8003fd6:	f3bf 8f4f 	dsb	sy
 8003fda:	e7fe      	b.n	8003fda <xQueueGenericSend+0xc0>
				if( xTicksToWait == ( TickType_t ) 0 )
 8003fdc:	9b01      	ldr	r3, [sp, #4]
 8003fde:	b91b      	cbnz	r3, 8003fe8 <xQueueGenericSend+0xce>
					taskEXIT_CRITICAL();
 8003fe0:	f001 f9f8 	bl	80053d4 <vPortExitCritical>
					return errQUEUE_FULL;
 8003fe4:	2000      	movs	r0, #0
 8003fe6:	e7ea      	b.n	8003fbe <xQueueGenericSend+0xa4>
				else if( xEntryTimeSet == pdFALSE )
 8003fe8:	b915      	cbnz	r5, 8003ff0 <xQueueGenericSend+0xd6>
					vTaskInternalSetTimeOutState( &xTimeOut );
 8003fea:	a802      	add	r0, sp, #8
 8003fec:	f000 fd9c 	bl	8004b28 <vTaskInternalSetTimeOutState>
		taskEXIT_CRITICAL();
 8003ff0:	f001 f9f0 	bl	80053d4 <vPortExitCritical>
		vTaskSuspendAll();
 8003ff4:	f000 fb9e 	bl	8004734 <vTaskSuspendAll>
		prvLockQueue( pxQueue );
 8003ff8:	f001 f9cc 	bl	8005394 <vPortEnterCritical>
 8003ffc:	f894 3044 	ldrb.w	r3, [r4, #68]	@ 0x44
 8004000:	2bff      	cmp	r3, #255	@ 0xff
 8004002:	bf08      	it	eq
 8004004:	f884 8044 	strbeq.w	r8, [r4, #68]	@ 0x44
 8004008:	f894 3045 	ldrb.w	r3, [r4, #69]	@ 0x45
 800400c:	2bff      	cmp	r3, #255	@ 0xff
 800400e:	bf08      	it	eq
 8004010:	f884 8045 	strbeq.w	r8, [r4, #69]	@ 0x45
 8004014:	f001 f9de 	bl	80053d4 <vPortExitCritical>
		if( xTaskCheckForTimeOut( &xTimeOut, &xTicksToWait ) == pdFALSE )
 8004018:	a901      	add	r1, sp, #4
 800401a:	a802      	add	r0, sp, #8
 800401c:	f000 fd90 	bl	8004b40 <xTaskCheckForTimeOut>
 8004020:	bb38      	cbnz	r0, 8004072 <xQueueGenericSend+0x158>

static BaseType_t prvIsQueueFull( const Queue_t *pxQueue )
{
BaseType_t xReturn;

	taskENTER_CRITICAL();
 8004022:	f001 f9b7 	bl	8005394 <vPortEnterCritical>
	{
		if( pxQueue->uxMessagesWaiting == pxQueue->uxLength )
 8004026:	6ba2      	ldr	r2, [r4, #56]	@ 0x38
 8004028:	6be3      	ldr	r3, [r4, #60]	@ 0x3c
 800402a:	429a      	cmp	r2, r3
 800402c:	d10e      	bne.n	800404c <xQueueGenericSend+0x132>
		else
		{
			xReturn = pdFALSE;
		}
	}
	taskEXIT_CRITICAL();
 800402e:	f001 f9d1 	bl	80053d4 <vPortExitCritical>
				vTaskPlaceOnEventList( &( pxQueue->xTasksWaitingToSend ), xTicksToWait );
 8004032:	9901      	ldr	r1, [sp, #4]
 8004034:	f104 0010 	add.w	r0, r4, #16
 8004038:	f000 fcfc 	bl	8004a34 <vTaskPlaceOnEventList>
				prvUnlockQueue( pxQueue );
 800403c:	4620      	mov	r0, r4
 800403e:	f7ff fea7 	bl	8003d90 <prvUnlockQueue>
				if( xTaskResumeAll() == pdFALSE )
 8004042:	f000 fc1d 	bl	8004880 <xTaskResumeAll>
 8004046:	b148      	cbz	r0, 800405c <xQueueGenericSend+0x142>
 8004048:	2501      	movs	r5, #1
 800404a:	e797      	b.n	8003f7c <xQueueGenericSend+0x62>
	taskEXIT_CRITICAL();
 800404c:	f001 f9c2 	bl	80053d4 <vPortExitCritical>
				prvUnlockQueue( pxQueue );
 8004050:	4620      	mov	r0, r4
 8004052:	f7ff fe9d 	bl	8003d90 <prvUnlockQueue>
				( void ) xTaskResumeAll();
 8004056:	f000 fc13 	bl	8004880 <xTaskResumeAll>
 800405a:	e7f5      	b.n	8004048 <xQueueGenericSend+0x12e>
					portYIELD_WITHIN_API();
 800405c:	f04f 23e0 	mov.w	r3, #3758153728	@ 0xe000e000
 8004060:	f04f 5280 	mov.w	r2, #268435456	@ 0x10000000
 8004064:	f8c3 2d04 	str.w	r2, [r3, #3332]	@ 0xd04
 8004068:	f3bf 8f4f 	dsb	sy
 800406c:	f3bf 8f6f 	isb	sy
 8004070:	e7ea      	b.n	8004048 <xQueueGenericSend+0x12e>
			prvUnlockQueue( pxQueue );
 8004072:	4620      	mov	r0, r4
 8004074:	f7ff fe8c 	bl	8003d90 <prvUnlockQueue>
			( void ) xTaskResumeAll();
 8004078:	f000 fc02 	bl	8004880 <xTaskResumeAll>
			return errQUEUE_FULL;
 800407c:	e7b2      	b.n	8003fe4 <xQueueGenericSend+0xca>

0800407e <xQueueGenericSendFromISR>:
{
 800407e:	e92d 43f8 	stmdb	sp!, {r3, r4, r5, r6, r7, r8, r9, lr}
 8004082:	4689      	mov	r9, r1
 8004084:	4617      	mov	r7, r2
 8004086:	461e      	mov	r6, r3
	configASSERT( pxQueue );
 8004088:	4604      	mov	r4, r0
 800408a:	b940      	cbnz	r0, 800409e <xQueueGenericSendFromISR+0x20>
 800408c:	f04f 0350 	mov.w	r3, #80	@ 0x50
 8004090:	f383 8811 	msr	BASEPRI, r3
 8004094:	f3bf 8f6f 	isb	sy
 8004098:	f3bf 8f4f 	dsb	sy
 800409c:	e7fe      	b.n	800409c <xQueueGenericSendFromISR+0x1e>
	configASSERT( !( ( pvItemToQueue == NULL ) && ( pxQueue->uxItemSize != ( UBaseType_t ) 0U ) ) );
 800409e:	b951      	cbnz	r1, 80040b6 <xQueueGenericSendFromISR+0x38>
 80040a0:	6c03      	ldr	r3, [r0, #64]	@ 0x40
 80040a2:	b143      	cbz	r3, 80040b6 <xQueueGenericSendFromISR+0x38>
 80040a4:	f04f 0350 	mov.w	r3, #80	@ 0x50
 80040a8:	f383 8811 	msr	BASEPRI, r3
 80040ac:	f3bf 8f6f 	isb	sy
 80040b0:	f3bf 8f4f 	dsb	sy
 80040b4:	e7fe      	b.n	80040b4 <xQueueGenericSendFromISR+0x36>
	configASSERT( !( ( xCopyPosition == queueOVERWRITE ) && ( pxQueue->uxLength != 1 ) ) );
 80040b6:	2e02      	cmp	r6, #2
 80040b8:	d10b      	bne.n	80040d2 <xQueueGenericSendFromISR+0x54>
 80040ba:	6be3      	ldr	r3, [r4, #60]	@ 0x3c
 80040bc:	2b01      	cmp	r3, #1
 80040be:	d008      	beq.n	80040d2 <xQueueGenericSendFromISR+0x54>
 80040c0:	f04f 0350 	mov.w	r3, #80	@ 0x50
 80040c4:	f383 8811 	msr	BASEPRI, r3
 80040c8:	f3bf 8f6f 	isb	sy
 80040cc:	f3bf 8f4f 	dsb	sy
 80040d0:	e7fe      	b.n	80040d0 <xQueueGenericSendFromISR+0x52>
	portASSERT_IF_INTERRUPT_PRIORITY_INVALID();
 80040d2:	f001 fa37 	bl	8005544 <vPortValidateInterruptPriority>

portFORCE_INLINE static uint32_t ulPortRaiseBASEPRI( void )
{
uint32_t ulOriginalBASEPRI, ulNewBASEPRI;

	__asm volatile
 80040d6:	f3ef 8811 	mrs	r8, BASEPRI
 80040da:	f04f 0350 	mov.w	r3, #80	@ 0x50
 80040de:	f383 8811 	msr	BASEPRI, r3
 80040e2:	f3bf 8f6f 	isb	sy
 80040e6:	f3bf 8f4f 	dsb	sy
		if( ( pxQueue->uxMessagesWaiting < pxQueue->uxLength ) || ( xCopyPosition == queueOVERWRITE ) )
 80040ea:	6ba2      	ldr	r2, [r4, #56]	@ 0x38
 80040ec:	6be3      	ldr	r3, [r4, #60]	@ 0x3c
 80040ee:	429a      	cmp	r2, r3
 80040f0:	d301      	bcc.n	80040f6 <xQueueGenericSendFromISR+0x78>
 80040f2:	2e02      	cmp	r6, #2
 80040f4:	d11e      	bne.n	8004134 <xQueueGenericSendFromISR+0xb6>
			const int8_t cTxLock = pxQueue->cTxLock;
 80040f6:	f894 5045 	ldrb.w	r5, [r4, #69]	@ 0x45
			( void ) prvCopyDataToQueue( pxQueue, pvItemToQueue, xCopyPosition );
 80040fa:	4632      	mov	r2, r6
 80040fc:	4649      	mov	r1, r9
 80040fe:	4620      	mov	r0, r4
			const int8_t cTxLock = pxQueue->cTxLock;
 8004100:	b26d      	sxtb	r5, r5
			const UBaseType_t uxPreviousMessagesWaiting = pxQueue->uxMessagesWaiting;
 8004102:	6ba3      	ldr	r3, [r4, #56]	@ 0x38
			( void ) prvCopyDataToQueue( pxQueue, pvItemToQueue, xCopyPosition );
 8004104:	f7ff fdfd 	bl	8003d02 <prvCopyDataToQueue>
			if( cTxLock == queueUNLOCKED )
 8004108:	1c6b      	adds	r3, r5, #1
 800410a:	d10e      	bne.n	800412a <xQueueGenericSendFromISR+0xac>
					if( listLIST_IS_EMPTY( &( pxQueue->xTasksWaitingToReceive ) ) == pdFALSE )
 800410c:	6a63      	ldr	r3, [r4, #36]	@ 0x24
 800410e:	b13b      	cbz	r3, 8004120 <xQueueGenericSendFromISR+0xa2>
						if( xTaskRemoveFromEventList( &( pxQueue->xTasksWaitingToReceive ) ) != pdFALSE )
 8004110:	f104 0024 	add.w	r0, r4, #36	@ 0x24
 8004114:	f000 fcc8 	bl	8004aa8 <xTaskRemoveFromEventList>
 8004118:	b110      	cbz	r0, 8004120 <xQueueGenericSendFromISR+0xa2>
							if( pxHigherPriorityTaskWoken != NULL )
 800411a:	b10f      	cbz	r7, 8004120 <xQueueGenericSendFromISR+0xa2>
								*pxHigherPriorityTaskWoken = pdTRUE;
 800411c:	2301      	movs	r3, #1
 800411e:	603b      	str	r3, [r7, #0]
			xReturn = pdPASS;
 8004120:	2001      	movs	r0, #1
}
/*-----------------------------------------------------------*/

portFORCE_INLINE static void vPortSetBASEPRI( uint32_t ulNewMaskValue )
{
	__asm volatile
 8004122:	f388 8811 	msr	BASEPRI, r8
}
 8004126:	e8bd 83f8 	ldmia.w	sp!, {r3, r4, r5, r6, r7, r8, r9, pc}
				pxQueue->cTxLock = ( int8_t ) ( cTxLock + 1 );
 800412a:	3501      	adds	r5, #1
 800412c:	b26d      	sxtb	r5, r5
 800412e:	f884 5045 	strb.w	r5, [r4, #69]	@ 0x45
 8004132:	e7f5      	b.n	8004120 <xQueueGenericSendFromISR+0xa2>
			xReturn = errQUEUE_FULL;
 8004134:	2000      	movs	r0, #0
 8004136:	e7f4      	b.n	8004122 <xQueueGenericSendFromISR+0xa4>

08004138 <xQueueReceive>:
{
 8004138:	e92d 41ff 	stmdb	sp!, {r0, r1, r2, r3, r4, r5, r6, r7, r8, lr}
 800413c:	460e      	mov	r6, r1
	configASSERT( ( pxQueue ) );
 800413e:	4604      	mov	r4, r0
{
 8004140:	9201      	str	r2, [sp, #4]
	configASSERT( ( pxQueue ) );
 8004142:	b940      	cbnz	r0, 8004156 <xQueueReceive+0x1e>
	__asm volatile
 8004144:	f04f 0350 	mov.w	r3, #80	@ 0x50
 8004148:	f383 8811 	msr	BASEPRI, r3
 800414c:	f3bf 8f6f 	isb	sy
 8004150:	f3bf 8f4f 	dsb	sy
 8004154:	e7fe      	b.n	8004154 <xQueueReceive+0x1c>
	configASSERT( !( ( ( pvBuffer ) == NULL ) && ( ( pxQueue )->uxItemSize != ( UBaseType_t ) 0U ) ) );
 8004156:	b951      	cbnz	r1, 800416e <xQueueReceive+0x36>
 8004158:	6c03      	ldr	r3, [r0, #64]	@ 0x40
 800415a:	b143      	cbz	r3, 800416e <xQueueReceive+0x36>
 800415c:	f04f 0350 	mov.w	r3, #80	@ 0x50
 8004160:	f383 8811 	msr	BASEPRI, r3
 8004164:	f3bf 8f6f 	isb	sy
 8004168:	f3bf 8f4f 	dsb	sy
 800416c:	e7fe      	b.n	800416c <xQueueReceive+0x34>
		configASSERT( !( ( xTaskGetSchedulerState() == taskSCHEDULER_SUSPENDED ) && ( xTicksToWait != 0 ) ) );
 800416e:	f000 fd2f 	bl	8004bd0 <xTaskGetSchedulerState>
 8004172:	4605      	mov	r5, r0
 8004174:	b318      	cbz	r0, 80041be <xQueueReceive+0x86>
 8004176:	2500      	movs	r5, #0
		prvLockQueue( pxQueue );
 8004178:	f04f 0800 	mov.w	r8, #0
		taskENTER_CRITICAL();
 800417c:	f001 f90a 	bl	8005394 <vPortEnterCritical>
			const UBaseType_t uxMessagesWaiting = pxQueue->uxMessagesWaiting;
 8004180:	6ba7      	ldr	r7, [r4, #56]	@ 0x38
			if( uxMessagesWaiting > ( UBaseType_t ) 0 )
 8004182:	b347      	cbz	r7, 80041d6 <xQueueReceive+0x9e>
				prvCopyDataFromQueue( pxQueue, pvBuffer );
 8004184:	4631      	mov	r1, r6
 8004186:	4620      	mov	r0, r4
				pxQueue->uxMessagesWaiting = uxMessagesWaiting - ( UBaseType_t ) 1;
 8004188:	3f01      	subs	r7, #1
				prvCopyDataFromQueue( pxQueue, pvBuffer );
 800418a:	f7ff fded 	bl	8003d68 <prvCopyDataFromQueue>
				pxQueue->uxMessagesWaiting = uxMessagesWaiting - ( UBaseType_t ) 1;
 800418e:	63a7      	str	r7, [r4, #56]	@ 0x38
				if( listLIST_IS_EMPTY( &( pxQueue->xTasksWaitingToSend ) ) == pdFALSE )
 8004190:	6923      	ldr	r3, [r4, #16]
 8004192:	b173      	cbz	r3, 80041b2 <xQueueReceive+0x7a>
					if( xTaskRemoveFromEventList( &( pxQueue->xTasksWaitingToSend ) ) != pdFALSE )
 8004194:	f104 0010 	add.w	r0, r4, #16
 8004198:	f000 fc86 	bl	8004aa8 <xTaskRemoveFromEventList>
 800419c:	b148      	cbz	r0, 80041b2 <xQueueReceive+0x7a>
						queueYIELD_IF_USING_PREEMPTION();
 800419e:	f04f 23e0 	mov.w	r3, #3758153728	@ 0xe000e000
 80041a2:	f04f 5280 	mov.w	r2, #268435456	@ 0x10000000
 80041a6:	f8c3 2d04 	str.w	r2, [r3, #3332]	@ 0xd04
 80041aa:	f3bf 8f4f 	dsb	sy
 80041ae:	f3bf 8f6f 	isb	sy
				taskEXIT_CRITICAL();
 80041b2:	f001 f90f 	bl	80053d4 <vPortExitCritical>
				return pdPASS;
 80041b6:	2001      	movs	r0, #1
}
 80041b8:	b004      	add	sp, #16
 80041ba:	e8bd 81f0 	ldmia.w	sp!, {r4, r5, r6, r7, r8, pc}
		configASSERT( !( ( xTaskGetSchedulerState() == taskSCHEDULER_SUSPENDED ) && ( xTicksToWait != 0 ) ) );
 80041be:	9b01      	ldr	r3, [sp, #4]
 80041c0:	2b00      	cmp	r3, #0
 80041c2:	d0d9      	beq.n	8004178 <xQueueReceive+0x40>
 80041c4:	f04f 0350 	mov.w	r3, #80	@ 0x50
 80041c8:	f383 8811 	msr	BASEPRI, r3
 80041cc:	f3bf 8f6f 	isb	sy
 80041d0:	f3bf 8f4f 	dsb	sy
 80041d4:	e7fe      	b.n	80041d4 <xQueueReceive+0x9c>
				if( xTicksToWait == ( TickType_t ) 0 )
 80041d6:	9b01      	ldr	r3, [sp, #4]
 80041d8:	b91b      	cbnz	r3, 80041e2 <xQueueReceive+0xaa>
					taskEXIT_CRITICAL();
 80041da:	f001 f8fb 	bl	80053d4 <vPortExitCritical>
					return errQUEUE_EMPTY;
 80041de:	2000      	movs	r0, #0
 80041e0:	e7ea      	b.n	80041b8 <xQueueReceive+0x80>
				else if( xEntryTimeSet == pdFALSE )
 80041e2:	b915      	cbnz	r5, 80041ea <xQueueReceive+0xb2>
					vTaskInternalSetTimeOutState( &xTimeOut );
 80041e4:	a802      	add	r0, sp, #8
 80041e6:	f000 fc9f 	bl	8004b28 <vTaskInternalSetTimeOutState>
		taskEXIT_CRITICAL();
 80041ea:	f001 f8f3 	bl	80053d4 <vPortExitCritical>
		vTaskSuspendAll();
 80041ee:	f000 faa1 	bl	8004734 <vTaskSuspendAll>
		prvLockQueue( pxQueue );
 80041f2:	f001 f8cf 	bl	8005394 <vPortEnterCritical>
 80041f6:	f894 3044 	ldrb.w	r3, [r4, #68]	@ 0x44
 80041fa:	2bff      	cmp	r3, #255	@ 0xff
 80041fc:	bf08      	it	eq
 80041fe:	f884 8044 	strbeq.w	r8, [r4, #68]	@ 0x44
 8004202:	f894 3045 	ldrb.w	r3, [r4, #69]	@ 0x45
 8004206:	2bff      	cmp	r3, #255	@ 0xff
 8004208:	bf08      	it	eq
 800420a:	f884 8045 	strbeq.w	r8, [r4, #69]	@ 0x45
 800420e:	f001 f8e1 	bl	80053d4 <vPortExitCritical>
		if( xTaskCheckForTimeOut( &xTimeOut, &xTicksToWait ) == pdFALSE )
 8004212:	a901      	add	r1, sp, #4
 8004214:	a802      	add	r0, sp, #8
 8004216:	f000 fc93 	bl	8004b40 <xTaskCheckForTimeOut>
 800421a:	bb00      	cbnz	r0, 800425e <xQueueReceive+0x126>
			if( prvIsQueueEmpty( pxQueue ) != pdFALSE )
 800421c:	4620      	mov	r0, r4
 800421e:	f7ff fd65 	bl	8003cec <prvIsQueueEmpty>
 8004222:	b1b0      	cbz	r0, 8004252 <xQueueReceive+0x11a>
				vTaskPlaceOnEventList( &( pxQueue->xTasksWaitingToReceive ), xTicksToWait );
 8004224:	9901      	ldr	r1, [sp, #4]
 8004226:	f104 0024 	add.w	r0, r4, #36	@ 0x24
 800422a:	f000 fc03 	bl	8004a34 <vTaskPlaceOnEventList>
				prvUnlockQueue( pxQueue );
 800422e:	4620      	mov	r0, r4
 8004230:	f7ff fdae 	bl	8003d90 <prvUnlockQueue>
				if( xTaskResumeAll() == pdFALSE )
 8004234:	f000 fb24 	bl	8004880 <xTaskResumeAll>
 8004238:	b948      	cbnz	r0, 800424e <xQueueReceive+0x116>
					portYIELD_WITHIN_API();
 800423a:	f04f 23e0 	mov.w	r3, #3758153728	@ 0xe000e000
 800423e:	f04f 5280 	mov.w	r2, #268435456	@ 0x10000000
 8004242:	f8c3 2d04 	str.w	r2, [r3, #3332]	@ 0xd04
 8004246:	f3bf 8f4f 	dsb	sy
 800424a:	f3bf 8f6f 	isb	sy
 800424e:	2501      	movs	r5, #1
 8004250:	e794      	b.n	800417c <xQueueReceive+0x44>
				prvUnlockQueue( pxQueue );
 8004252:	4620      	mov	r0, r4
 8004254:	f7ff fd9c 	bl	8003d90 <prvUnlockQueue>
				( void ) xTaskResumeAll();
 8004258:	f000 fb12 	bl	8004880 <xTaskResumeAll>
 800425c:	e7f7      	b.n	800424e <xQueueReceive+0x116>
			prvUnlockQueue( pxQueue );
 800425e:	4620      	mov	r0, r4
 8004260:	f7ff fd96 	bl	8003d90 <prvUnlockQueue>
			( void ) xTaskResumeAll();
 8004264:	f000 fb0c 	bl	8004880 <xTaskResumeAll>
			if( prvIsQueueEmpty( pxQueue ) != pdFALSE )
 8004268:	4620      	mov	r0, r4
 800426a:	f7ff fd3f 	bl	8003cec <prvIsQueueEmpty>
 800426e:	2800      	cmp	r0, #0
 8004270:	d0ed      	beq.n	800424e <xQueueReceive+0x116>
 8004272:	e7b4      	b.n	80041de <xQueueReceive+0xa6>

08004274 <vQueueAddToRegistry>:
	{
	UBaseType_t ux;

		/* See if there is an empty space in the registry.  A NULL name denotes
		a free slot. */
		for( ux = ( UBaseType_t ) 0U; ux < ( UBaseType_t ) configQUEUE_REGISTRY_SIZE; ux++ )
 8004274:	2300      	movs	r3, #0
	{
 8004276:	b530      	push	{r4, r5, lr}
		{
			if( xQueueRegistry[ ux ].pcQueueName == NULL )
 8004278:	4a06      	ldr	r2, [pc, #24]	@ (8004294 <vQueueAddToRegistry+0x20>)
 800427a:	f852 5033 	ldr.w	r5, [r2, r3, lsl #3]
 800427e:	eb02 04c3 	add.w	r4, r2, r3, lsl #3
 8004282:	b91d      	cbnz	r5, 800428c <vQueueAddToRegistry+0x18>
			{
				/* Store the information on this queue. */
				xQueueRegistry[ ux ].pcQueueName = pcQueueName;
 8004284:	f842 1033 	str.w	r1, [r2, r3, lsl #3]
				xQueueRegistry[ ux ].xHandle = xQueue;
 8004288:	6060      	str	r0, [r4, #4]
			else
			{
				mtCOVERAGE_TEST_MARKER();
			}
		}
	}
 800428a:	bd30      	pop	{r4, r5, pc}
		for( ux = ( UBaseType_t ) 0U; ux < ( UBaseType_t ) configQUEUE_REGISTRY_SIZE; ux++ )
 800428c:	3301      	adds	r3, #1
 800428e:	2b08      	cmp	r3, #8
 8004290:	d1f3      	bne.n	800427a <vQueueAddToRegistry+0x6>
 8004292:	e7fa      	b.n	800428a <vQueueAddToRegistry+0x16>
 8004294:	20000ef0 	.word	0x20000ef0

08004298 <vQueueWaitForMessageRestricted>:
/*-----------------------------------------------------------*/

#if ( configUSE_TIMERS == 1 )

	void vQueueWaitForMessageRestricted( QueueHandle_t xQueue, TickType_t xTicksToWait, const BaseType_t xWaitIndefinitely )
	{
 8004298:	b570      	push	{r4, r5, r6, lr}
 800429a:	4604      	mov	r4, r0
 800429c:	460d      	mov	r5, r1
 800429e:	4616      	mov	r6, r2
		will not actually cause the task to block, just place it on a blocked
		list.  It will not block until the scheduler is unlocked - at which
		time a yield will be performed.  If an item is added to the queue while
		the queue is locked, and the calling task blocks on the queue, then the
		calling task will be immediately unblocked when the queue is unlocked. */
		prvLockQueue( pxQueue );
 80042a0:	f001 f878 	bl	8005394 <vPortEnterCritical>
 80042a4:	f894 3044 	ldrb.w	r3, [r4, #68]	@ 0x44
 80042a8:	2bff      	cmp	r3, #255	@ 0xff
 80042aa:	bf04      	itt	eq
 80042ac:	2300      	moveq	r3, #0
 80042ae:	f884 3044 	strbeq.w	r3, [r4, #68]	@ 0x44
 80042b2:	f894 3045 	ldrb.w	r3, [r4, #69]	@ 0x45
 80042b6:	2bff      	cmp	r3, #255	@ 0xff
 80042b8:	bf04      	itt	eq
 80042ba:	2300      	moveq	r3, #0
 80042bc:	f884 3045 	strbeq.w	r3, [r4, #69]	@ 0x45
 80042c0:	f001 f888 	bl	80053d4 <vPortExitCritical>
		if( pxQueue->uxMessagesWaiting == ( UBaseType_t ) 0U )
 80042c4:	6ba3      	ldr	r3, [r4, #56]	@ 0x38
 80042c6:	b92b      	cbnz	r3, 80042d4 <vQueueWaitForMessageRestricted+0x3c>
		{
			/* There is nothing in the queue, block for the specified period. */
			vTaskPlaceOnEventListRestricted( &( pxQueue->xTasksWaitingToReceive ), xTicksToWait, xWaitIndefinitely );
 80042c8:	4632      	mov	r2, r6
 80042ca:	4629      	mov	r1, r5
 80042cc:	f104 0024 	add.w	r0, r4, #36	@ 0x24
 80042d0:	f000 fbca 	bl	8004a68 <vTaskPlaceOnEventListRestricted>
		}
		else
		{
			mtCOVERAGE_TEST_MARKER();
		}
		prvUnlockQueue( pxQueue );
 80042d4:	4620      	mov	r0, r4
	}
 80042d6:	e8bd 4070 	ldmia.w	sp!, {r4, r5, r6, lr}
		prvUnlockQueue( pxQueue );
 80042da:	f7ff bd59 	b.w	8003d90 <prvUnlockQueue>
	...

080042e0 <prvAddNewTaskToReadyList>:
	}
}
/*-----------------------------------------------------------*/

static void prvAddNewTaskToReadyList( TCB_t *pxNewTCB )
{
 80042e0:	e92d 41f0 	stmdb	sp!, {r4, r5, r6, r7, r8, lr}
 80042e4:	4604      	mov	r4, r0
	/* Ensure interrupts don't access the task lists while the lists are being
	updated. */
	taskENTER_CRITICAL();
 80042e6:	f001 f855 	bl	8005394 <vPortEnterCritical>
	{
		uxCurrentNumberOfTasks++;
 80042ea:	4b30      	ldr	r3, [pc, #192]	@ (80043ac <prvAddNewTaskToReadyList+0xcc>)
		if( pxCurrentTCB == NULL )
 80042ec:	4e30      	ldr	r6, [pc, #192]	@ (80043b0 <prvAddNewTaskToReadyList+0xd0>)
		uxCurrentNumberOfTasks++;
 80042ee:	681a      	ldr	r2, [r3, #0]
 80042f0:	4f30      	ldr	r7, [pc, #192]	@ (80043b4 <prvAddNewTaskToReadyList+0xd4>)
 80042f2:	3201      	adds	r2, #1
 80042f4:	601a      	str	r2, [r3, #0]
		if( pxCurrentTCB == NULL )
 80042f6:	6835      	ldr	r5, [r6, #0]
 80042f8:	2d00      	cmp	r5, #0
 80042fa:	d14b      	bne.n	8004394 <prvAddNewTaskToReadyList+0xb4>
		{
			/* There are no other tasks, or all the other tasks are in
			the suspended state - make this the current task. */
			pxCurrentTCB = pxNewTCB;
 80042fc:	6034      	str	r4, [r6, #0]

			if( uxCurrentNumberOfTasks == ( UBaseType_t ) 1 )
 80042fe:	681b      	ldr	r3, [r3, #0]
 8004300:	2b01      	cmp	r3, #1
 8004302:	d11f      	bne.n	8004344 <prvAddNewTaskToReadyList+0x64>
 8004304:	46b8      	mov	r8, r7
{
UBaseType_t uxPriority;

	for( uxPriority = ( UBaseType_t ) 0U; uxPriority < ( UBaseType_t ) configMAX_PRIORITIES; uxPriority++ )
	{
		vListInitialise( &( pxReadyTasksLists[ uxPriority ] ) );
 8004306:	4640      	mov	r0, r8
	for( uxPriority = ( UBaseType_t ) 0U; uxPriority < ( UBaseType_t ) configMAX_PRIORITIES; uxPriority++ )
 8004308:	3501      	adds	r5, #1
		vListInitialise( &( pxReadyTasksLists[ uxPriority ] ) );
 800430a:	f7ff fcaf 	bl	8003c6c <vListInitialise>
	for( uxPriority = ( UBaseType_t ) 0U; uxPriority < ( UBaseType_t ) configMAX_PRIORITIES; uxPriority++ )
 800430e:	2d38      	cmp	r5, #56	@ 0x38
 8004310:	f108 0814 	add.w	r8, r8, #20
 8004314:	d1f7      	bne.n	8004306 <prvAddNewTaskToReadyList+0x26>
	}

	vListInitialise( &xDelayedTaskList1 );
 8004316:	f8df 80a0 	ldr.w	r8, [pc, #160]	@ 80043b8 <prvAddNewTaskToReadyList+0xd8>
	vListInitialise( &xDelayedTaskList2 );
 800431a:	4d28      	ldr	r5, [pc, #160]	@ (80043bc <prvAddNewTaskToReadyList+0xdc>)
	vListInitialise( &xDelayedTaskList1 );
 800431c:	4640      	mov	r0, r8
 800431e:	f7ff fca5 	bl	8003c6c <vListInitialise>
	vListInitialise( &xDelayedTaskList2 );
 8004322:	4628      	mov	r0, r5
 8004324:	f7ff fca2 	bl	8003c6c <vListInitialise>
	vListInitialise( &xPendingReadyList );
 8004328:	4825      	ldr	r0, [pc, #148]	@ (80043c0 <prvAddNewTaskToReadyList+0xe0>)
 800432a:	f7ff fc9f 	bl	8003c6c <vListInitialise>

	#if ( INCLUDE_vTaskDelete == 1 )
	{
		vListInitialise( &xTasksWaitingTermination );
 800432e:	4825      	ldr	r0, [pc, #148]	@ (80043c4 <prvAddNewTaskToReadyList+0xe4>)
 8004330:	f7ff fc9c 	bl	8003c6c <vListInitialise>
	}
	#endif /* INCLUDE_vTaskDelete */

	#if ( INCLUDE_vTaskSuspend == 1 )
	{
		vListInitialise( &xSuspendedTaskList );
 8004334:	4824      	ldr	r0, [pc, #144]	@ (80043c8 <prvAddNewTaskToReadyList+0xe8>)
 8004336:	f7ff fc99 	bl	8003c6c <vListInitialise>
	}
	#endif /* INCLUDE_vTaskSuspend */

	/* Start with pxDelayedTaskList using list1 and the pxOverflowDelayedTaskList
	using list2. */
	pxDelayedTaskList = &xDelayedTaskList1;
 800433a:	4b24      	ldr	r3, [pc, #144]	@ (80043cc <prvAddNewTaskToReadyList+0xec>)
 800433c:	f8c3 8000 	str.w	r8, [r3]
	pxOverflowDelayedTaskList = &xDelayedTaskList2;
 8004340:	4b23      	ldr	r3, [pc, #140]	@ (80043d0 <prvAddNewTaskToReadyList+0xf0>)
 8004342:	601d      	str	r5, [r3, #0]
		prvAddTaskToReadyList( pxNewTCB );
 8004344:	2014      	movs	r0, #20
		uxTaskNumber++;
 8004346:	4a23      	ldr	r2, [pc, #140]	@ (80043d4 <prvAddNewTaskToReadyList+0xf4>)
 8004348:	6813      	ldr	r3, [r2, #0]
 800434a:	3301      	adds	r3, #1
 800434c:	6013      	str	r3, [r2, #0]
		prvAddTaskToReadyList( pxNewTCB );
 800434e:	4a22      	ldr	r2, [pc, #136]	@ (80043d8 <prvAddNewTaskToReadyList+0xf8>)
			pxNewTCB->uxTCBNumber = uxTaskNumber;
 8004350:	6463      	str	r3, [r4, #68]	@ 0x44
		prvAddTaskToReadyList( pxNewTCB );
 8004352:	6811      	ldr	r1, [r2, #0]
 8004354:	6ae3      	ldr	r3, [r4, #44]	@ 0x2c
 8004356:	428b      	cmp	r3, r1
 8004358:	fb00 7003 	mla	r0, r0, r3, r7
 800435c:	f104 0104 	add.w	r1, r4, #4
 8004360:	bf88      	it	hi
 8004362:	6013      	strhi	r3, [r2, #0]
 8004364:	f7ff fc90 	bl	8003c88 <vListInsertEnd>
	taskEXIT_CRITICAL();
 8004368:	f001 f834 	bl	80053d4 <vPortExitCritical>
	if( xSchedulerRunning != pdFALSE )
 800436c:	4b1b      	ldr	r3, [pc, #108]	@ (80043dc <prvAddNewTaskToReadyList+0xfc>)
 800436e:	681b      	ldr	r3, [r3, #0]
 8004370:	b173      	cbz	r3, 8004390 <prvAddNewTaskToReadyList+0xb0>
		if( pxCurrentTCB->uxPriority < pxNewTCB->uxPriority )
 8004372:	6833      	ldr	r3, [r6, #0]
 8004374:	6ada      	ldr	r2, [r3, #44]	@ 0x2c
 8004376:	6ae3      	ldr	r3, [r4, #44]	@ 0x2c
 8004378:	429a      	cmp	r2, r3
 800437a:	d209      	bcs.n	8004390 <prvAddNewTaskToReadyList+0xb0>
			taskYIELD_IF_USING_PREEMPTION();
 800437c:	f04f 23e0 	mov.w	r3, #3758153728	@ 0xe000e000
 8004380:	f04f 5280 	mov.w	r2, #268435456	@ 0x10000000
 8004384:	f8c3 2d04 	str.w	r2, [r3, #3332]	@ 0xd04
 8004388:	f3bf 8f4f 	dsb	sy
 800438c:	f3bf 8f6f 	isb	sy
}
 8004390:	e8bd 81f0 	ldmia.w	sp!, {r4, r5, r6, r7, r8, pc}
			if( xSchedulerRunning == pdFALSE )
 8004394:	4b11      	ldr	r3, [pc, #68]	@ (80043dc <prvAddNewTaskToReadyList+0xfc>)
 8004396:	681a      	ldr	r2, [r3, #0]
				if( pxCurrentTCB->uxPriority <= pxNewTCB->uxPriority )
 8004398:	6ae3      	ldr	r3, [r4, #44]	@ 0x2c
			if( xSchedulerRunning == pdFALSE )
 800439a:	2a00      	cmp	r2, #0
 800439c:	d1d2      	bne.n	8004344 <prvAddNewTaskToReadyList+0x64>
				if( pxCurrentTCB->uxPriority <= pxNewTCB->uxPriority )
 800439e:	6832      	ldr	r2, [r6, #0]
 80043a0:	6ad2      	ldr	r2, [r2, #44]	@ 0x2c
 80043a2:	429a      	cmp	r2, r3
					pxCurrentTCB = pxNewTCB;
 80043a4:	bf98      	it	ls
 80043a6:	6034      	strls	r4, [r6, #0]
 80043a8:	e7cc      	b.n	8004344 <prvAddNewTaskToReadyList+0x64>
 80043aa:	bf00      	nop
 80043ac:	20000f54 	.word	0x20000f54
 80043b0:	20001428 	.word	0x20001428
 80043b4:	20000fc8 	.word	0x20000fc8
 80043b8:	20000fb4 	.word	0x20000fb4
 80043bc:	20000fa0 	.word	0x20000fa0
 80043c0:	20000f84 	.word	0x20000f84
 80043c4:	20000f70 	.word	0x20000f70
 80043c8:	20000f58 	.word	0x20000f58
 80043cc:	20000f9c 	.word	0x20000f9c
 80043d0:	20000f98 	.word	0x20000f98
 80043d4:	20000f38 	.word	0x20000f38
 80043d8:	20000f4c 	.word	0x20000f4c
 80043dc:	20000f48 	.word	0x20000f48

080043e0 <prvAddCurrentTaskToDelayedList>:

#endif
/*-----------------------------------------------------------*/

static void prvAddCurrentTaskToDelayedList( TickType_t xTicksToWait, const BaseType_t xCanBlockIndefinitely )
{
 80043e0:	b5f8      	push	{r3, r4, r5, r6, r7, lr}
 80043e2:	4606      	mov	r6, r0
TickType_t xTimeToWake;
const TickType_t xConstTickCount = xTickCount;
 80043e4:	4b14      	ldr	r3, [pc, #80]	@ (8004438 <prvAddCurrentTaskToDelayedList+0x58>)
	}
	#endif

	/* Remove the task from the ready list before adding it to the blocked list
	as the same list item is used for both lists. */
	if( uxListRemove( &( pxCurrentTCB->xStateListItem ) ) == ( UBaseType_t ) 0 )
 80043e6:	4d15      	ldr	r5, [pc, #84]	@ (800443c <prvAddCurrentTaskToDelayedList+0x5c>)
const TickType_t xConstTickCount = xTickCount;
 80043e8:	681c      	ldr	r4, [r3, #0]
	if( uxListRemove( &( pxCurrentTCB->xStateListItem ) ) == ( UBaseType_t ) 0 )
 80043ea:	6828      	ldr	r0, [r5, #0]
{
 80043ec:	460f      	mov	r7, r1
	if( uxListRemove( &( pxCurrentTCB->xStateListItem ) ) == ( UBaseType_t ) 0 )
 80043ee:	3004      	adds	r0, #4
 80043f0:	f7ff fc6c 	bl	8003ccc <uxListRemove>
		mtCOVERAGE_TEST_MARKER();
	}

	#if ( INCLUDE_vTaskSuspend == 1 )
	{
		if( ( xTicksToWait == portMAX_DELAY ) && ( xCanBlockIndefinitely != pdFALSE ) )
 80043f4:	1c73      	adds	r3, r6, #1
 80043f6:	d107      	bne.n	8004408 <prvAddCurrentTaskToDelayedList+0x28>
 80043f8:	b137      	cbz	r7, 8004408 <prvAddCurrentTaskToDelayedList+0x28>
		{
			/* Add the task to the suspended task list instead of a delayed task
			list to ensure it is not woken by a timing event.  It will block
			indefinitely. */
			vListInsertEnd( &xSuspendedTaskList, &( pxCurrentTCB->xStateListItem ) );
 80043fa:	6829      	ldr	r1, [r5, #0]
 80043fc:	4810      	ldr	r0, [pc, #64]	@ (8004440 <prvAddCurrentTaskToDelayedList+0x60>)
 80043fe:	3104      	adds	r1, #4

		/* Avoid compiler warning when INCLUDE_vTaskSuspend is not 1. */
		( void ) xCanBlockIndefinitely;
	}
	#endif /* INCLUDE_vTaskSuspend */
}
 8004400:	e8bd 40f8 	ldmia.w	sp!, {r3, r4, r5, r6, r7, lr}
			vListInsertEnd( &xSuspendedTaskList, &( pxCurrentTCB->xStateListItem ) );
 8004404:	f7ff bc40 	b.w	8003c88 <vListInsertEnd>
			listSET_LIST_ITEM_VALUE( &( pxCurrentTCB->xStateListItem ), xTimeToWake );
 8004408:	682b      	ldr	r3, [r5, #0]
 800440a:	19a4      	adds	r4, r4, r6
 800440c:	605c      	str	r4, [r3, #4]
			if( xTimeToWake < xConstTickCount )
 800440e:	d307      	bcc.n	8004420 <prvAddCurrentTaskToDelayedList+0x40>
				vListInsert( pxOverflowDelayedTaskList, &( pxCurrentTCB->xStateListItem ) );
 8004410:	4b0c      	ldr	r3, [pc, #48]	@ (8004444 <prvAddCurrentTaskToDelayedList+0x64>)
 8004412:	6818      	ldr	r0, [r3, #0]
 8004414:	6829      	ldr	r1, [r5, #0]
}
 8004416:	e8bd 40f8 	ldmia.w	sp!, {r3, r4, r5, r6, r7, lr}
				vListInsert( pxOverflowDelayedTaskList, &( pxCurrentTCB->xStateListItem ) );
 800441a:	3104      	adds	r1, #4
 800441c:	f7ff bc3f 	b.w	8003c9e <vListInsert>
				vListInsert( pxDelayedTaskList, &( pxCurrentTCB->xStateListItem ) );
 8004420:	4b09      	ldr	r3, [pc, #36]	@ (8004448 <prvAddCurrentTaskToDelayedList+0x68>)
 8004422:	6818      	ldr	r0, [r3, #0]
 8004424:	6829      	ldr	r1, [r5, #0]
 8004426:	3104      	adds	r1, #4
 8004428:	f7ff fc39 	bl	8003c9e <vListInsert>
				if( xTimeToWake < xNextTaskUnblockTime )
 800442c:	4b07      	ldr	r3, [pc, #28]	@ (800444c <prvAddCurrentTaskToDelayedList+0x6c>)
 800442e:	681a      	ldr	r2, [r3, #0]
 8004430:	42a2      	cmp	r2, r4
					xNextTaskUnblockTime = xTimeToWake;
 8004432:	bf88      	it	hi
 8004434:	601c      	strhi	r4, [r3, #0]
}
 8004436:	bdf8      	pop	{r3, r4, r5, r6, r7, pc}
 8004438:	20000f50 	.word	0x20000f50
 800443c:	20001428 	.word	0x20001428
 8004440:	20000f58 	.word	0x20000f58
 8004444:	20000f98 	.word	0x20000f98
 8004448:	20000f9c 	.word	0x20000f9c
 800444c:	20000f34 	.word	0x20000f34

08004450 <prvResetNextTaskUnblockTime>:
	if( listLIST_IS_EMPTY( pxDelayedTaskList ) != pdFALSE )
 8004450:	4a06      	ldr	r2, [pc, #24]	@ (800446c <prvResetNextTaskUnblockTime+0x1c>)
 8004452:	6813      	ldr	r3, [r2, #0]
 8004454:	6819      	ldr	r1, [r3, #0]
 8004456:	4b06      	ldr	r3, [pc, #24]	@ (8004470 <prvResetNextTaskUnblockTime+0x20>)
 8004458:	b919      	cbnz	r1, 8004462 <prvResetNextTaskUnblockTime+0x12>
		xNextTaskUnblockTime = portMAX_DELAY;
 800445a:	f04f 32ff 	mov.w	r2, #4294967295	@ 0xffffffff
		xNextTaskUnblockTime = listGET_LIST_ITEM_VALUE( &( ( pxTCB )->xStateListItem ) );
 800445e:	601a      	str	r2, [r3, #0]
}
 8004460:	4770      	bx	lr
		( pxTCB ) = listGET_OWNER_OF_HEAD_ENTRY( pxDelayedTaskList ); /*lint !e9079 void * is used as this macro is used with timers and co-routines too.  Alignment is known to be fine as the type of the pointer stored and retrieved is the same. */
 8004462:	6812      	ldr	r2, [r2, #0]
 8004464:	68d2      	ldr	r2, [r2, #12]
		xNextTaskUnblockTime = listGET_LIST_ITEM_VALUE( &( ( pxTCB )->xStateListItem ) );
 8004466:	68d2      	ldr	r2, [r2, #12]
 8004468:	6852      	ldr	r2, [r2, #4]
 800446a:	e7f8      	b.n	800445e <prvResetNextTaskUnblockTime+0xe>
 800446c:	20000f9c 	.word	0x20000f9c
 8004470:	20000f34 	.word	0x20000f34

08004474 <prvDeleteTCB>:
	{
 8004474:	b510      	push	{r4, lr}
 8004476:	4604      	mov	r4, r0
			_reclaim_reent( &( pxTCB->xNewLib_reent ) );
 8004478:	3054      	adds	r0, #84	@ 0x54
 800447a:	f001 f9cf 	bl	800581c <_reclaim_reent>
			if( pxTCB->ucStaticallyAllocated == tskDYNAMICALLY_ALLOCATED_STACK_AND_TCB )
 800447e:	f894 30a5 	ldrb.w	r3, [r4, #165]	@ 0xa5
 8004482:	b93b      	cbnz	r3, 8004494 <prvDeleteTCB+0x20>
				vPortFree( pxTCB->pxStack );
 8004484:	6b20      	ldr	r0, [r4, #48]	@ 0x30
 8004486:	f001 f949 	bl	800571c <vPortFree>
				vPortFree( pxTCB );
 800448a:	4620      	mov	r0, r4
	}
 800448c:	e8bd 4010 	ldmia.w	sp!, {r4, lr}
				vPortFree( pxTCB );
 8004490:	f001 b944 	b.w	800571c <vPortFree>
			else if( pxTCB->ucStaticallyAllocated == tskSTATICALLY_ALLOCATED_STACK_ONLY )
 8004494:	2b01      	cmp	r3, #1
 8004496:	d0f8      	beq.n	800448a <prvDeleteTCB+0x16>
				configASSERT( pxTCB->ucStaticallyAllocated == tskSTATICALLY_ALLOCATED_STACK_AND_TCB	);
 8004498:	2b02      	cmp	r3, #2
 800449a:	d008      	beq.n	80044ae <prvDeleteTCB+0x3a>
 800449c:	f04f 0350 	mov.w	r3, #80	@ 0x50
 80044a0:	f383 8811 	msr	BASEPRI, r3
 80044a4:	f3bf 8f6f 	isb	sy
 80044a8:	f3bf 8f4f 	dsb	sy
 80044ac:	e7fe      	b.n	80044ac <prvDeleteTCB+0x38>
	}
 80044ae:	bd10      	pop	{r4, pc}

080044b0 <prvIdleTask>:
{
 80044b0:	b580      	push	{r7, lr}
		while( uxDeletedTasksWaitingCleanUp > ( UBaseType_t ) 0U )
 80044b2:	4c13      	ldr	r4, [pc, #76]	@ (8004500 <prvIdleTask+0x50>)
				pxTCB = listGET_OWNER_OF_HEAD_ENTRY( ( &xTasksWaitingTermination ) ); /*lint !e9079 void * is used as this macro is used with timers and co-routines too.  Alignment is known to be fine as the type of the pointer stored and retrieved is the same. */
 80044b4:	4f13      	ldr	r7, [pc, #76]	@ (8004504 <prvIdleTask+0x54>)
				--uxCurrentNumberOfTasks;
 80044b6:	4d14      	ldr	r5, [pc, #80]	@ (8004508 <prvIdleTask+0x58>)
		while( uxDeletedTasksWaitingCleanUp > ( UBaseType_t ) 0U )
 80044b8:	6823      	ldr	r3, [r4, #0]
 80044ba:	b973      	cbnz	r3, 80044da <prvIdleTask+0x2a>
			if( listCURRENT_LIST_LENGTH( &( pxReadyTasksLists[ tskIDLE_PRIORITY ] ) ) > ( UBaseType_t ) 1 )
 80044bc:	4b13      	ldr	r3, [pc, #76]	@ (800450c <prvIdleTask+0x5c>)
 80044be:	681b      	ldr	r3, [r3, #0]
 80044c0:	2b01      	cmp	r3, #1
 80044c2:	d9f8      	bls.n	80044b6 <prvIdleTask+0x6>
				taskYIELD();
 80044c4:	f04f 23e0 	mov.w	r3, #3758153728	@ 0xe000e000
 80044c8:	f04f 5280 	mov.w	r2, #268435456	@ 0x10000000
 80044cc:	f8c3 2d04 	str.w	r2, [r3, #3332]	@ 0xd04
 80044d0:	f3bf 8f4f 	dsb	sy
 80044d4:	f3bf 8f6f 	isb	sy
 80044d8:	e7ed      	b.n	80044b6 <prvIdleTask+0x6>
			taskENTER_CRITICAL();
 80044da:	f000 ff5b 	bl	8005394 <vPortEnterCritical>
				pxTCB = listGET_OWNER_OF_HEAD_ENTRY( ( &xTasksWaitingTermination ) ); /*lint !e9079 void * is used as this macro is used with timers and co-routines too.  Alignment is known to be fine as the type of the pointer stored and retrieved is the same. */
 80044de:	68fb      	ldr	r3, [r7, #12]
 80044e0:	68de      	ldr	r6, [r3, #12]
				( void ) uxListRemove( &( pxTCB->xStateListItem ) );
 80044e2:	1d30      	adds	r0, r6, #4
 80044e4:	f7ff fbf2 	bl	8003ccc <uxListRemove>
				--uxCurrentNumberOfTasks;
 80044e8:	682b      	ldr	r3, [r5, #0]
 80044ea:	3b01      	subs	r3, #1
 80044ec:	602b      	str	r3, [r5, #0]
				--uxDeletedTasksWaitingCleanUp;
 80044ee:	6823      	ldr	r3, [r4, #0]
 80044f0:	3b01      	subs	r3, #1
 80044f2:	6023      	str	r3, [r4, #0]
			taskEXIT_CRITICAL();
 80044f4:	f000 ff6e 	bl	80053d4 <vPortExitCritical>
			prvDeleteTCB( pxTCB );
 80044f8:	4630      	mov	r0, r6
 80044fa:	f7ff ffbb 	bl	8004474 <prvDeleteTCB>
 80044fe:	e7db      	b.n	80044b8 <prvIdleTask+0x8>
 8004500:	20000f6c 	.word	0x20000f6c
 8004504:	20000f70 	.word	0x20000f70
 8004508:	20000f54 	.word	0x20000f54
 800450c:	20000fc8 	.word	0x20000fc8

08004510 <prvInitialiseNewTask.constprop.0>:
static void prvInitialiseNewTask( 	TaskFunction_t pxTaskCode,
 8004510:	e92d 47f0 	stmdb	sp!, {r4, r5, r6, r7, r8, r9, sl, lr}
 8004514:	460d      	mov	r5, r1
 8004516:	e9dd 9409 	ldrd	r9, r4, [sp, #36]	@ 0x24
		( void ) memset( pxNewTCB->pxStack, ( int ) tskSTACK_FILL_BYTE, ( size_t ) ulStackDepth * sizeof( StackType_t ) );
 800451a:	0096      	lsls	r6, r2, #2
 800451c:	4632      	mov	r2, r6
static void prvInitialiseNewTask( 	TaskFunction_t pxTaskCode,
 800451e:	4607      	mov	r7, r0
		( void ) memset( pxNewTCB->pxStack, ( int ) tskSTACK_FILL_BYTE, ( size_t ) ulStackDepth * sizeof( StackType_t ) );
 8004520:	21a5      	movs	r1, #165	@ 0xa5
 8004522:	6b20      	ldr	r0, [r4, #48]	@ 0x30
static void prvInitialiseNewTask( 	TaskFunction_t pxTaskCode,
 8004524:	4698      	mov	r8, r3
		( void ) memset( pxNewTCB->pxStack, ( int ) tskSTACK_FILL_BYTE, ( size_t ) ulStackDepth * sizeof( StackType_t ) );
 8004526:	f001 f971 	bl	800580c <memset>
		pxTopOfStack = &( pxNewTCB->pxStack[ ulStackDepth - ( uint32_t ) 1 ] );
 800452a:	6b23      	ldr	r3, [r4, #48]	@ 0x30
 800452c:	3e04      	subs	r6, #4
 800452e:	441e      	add	r6, r3
		pxTopOfStack = ( StackType_t * ) ( ( ( portPOINTER_SIZE_TYPE ) pxTopOfStack ) & ( ~( ( portPOINTER_SIZE_TYPE ) portBYTE_ALIGNMENT_MASK ) ) ); /*lint !e923 !e9033 !e9078 MISRA exception.  Avoiding casts between pointers and integers is not practical.  Size differences accounted for using portPOINTER_SIZE_TYPE type.  Checked by assert(). */
 8004530:	f026 0607 	bic.w	r6, r6, #7
	if( pcName != NULL )
 8004534:	2d00      	cmp	r5, #0
 8004536:	d041      	beq.n	80045bc <prvInitialiseNewTask.constprop.0+0xac>
 8004538:	1e6b      	subs	r3, r5, #1
 800453a:	f104 0233 	add.w	r2, r4, #51	@ 0x33
 800453e:	350f      	adds	r5, #15
			pxNewTCB->pcTaskName[ x ] = pcName[ x ];
 8004540:	f813 1f01 	ldrb.w	r1, [r3, #1]!
 8004544:	f802 1f01 	strb.w	r1, [r2, #1]!
			if( pcName[ x ] == ( char ) 0x00 )
 8004548:	b109      	cbz	r1, 800454e <prvInitialiseNewTask.constprop.0+0x3e>
		for( x = ( UBaseType_t ) 0; x < ( UBaseType_t ) configMAX_TASK_NAME_LEN; x++ )
 800454a:	42ab      	cmp	r3, r5
 800454c:	d1f8      	bne.n	8004540 <prvInitialiseNewTask.constprop.0+0x30>
		pxNewTCB->pcTaskName[ configMAX_TASK_NAME_LEN - 1 ] = '\0';
 800454e:	2300      	movs	r3, #0
 8004550:	f884 3043 	strb.w	r3, [r4, #67]	@ 0x43
	if( uxPriority >= ( UBaseType_t ) configMAX_PRIORITIES )
 8004554:	9d08      	ldr	r5, [sp, #32]
		pxNewTCB->uxMutexesHeld = 0;
 8004556:	f04f 0a00 	mov.w	sl, #0
	if( uxPriority >= ( UBaseType_t ) configMAX_PRIORITIES )
 800455a:	2d37      	cmp	r5, #55	@ 0x37
 800455c:	bf28      	it	cs
 800455e:	2537      	movcs	r5, #55	@ 0x37
	vListInitialiseItem( &( pxNewTCB->xStateListItem ) );
 8004560:	1d20      	adds	r0, r4, #4
	pxNewTCB->uxPriority = uxPriority;
 8004562:	62e5      	str	r5, [r4, #44]	@ 0x2c
		pxNewTCB->uxBasePriority = uxPriority;
 8004564:	64e5      	str	r5, [r4, #76]	@ 0x4c
		pxNewTCB->uxMutexesHeld = 0;
 8004566:	f8c4 a050 	str.w	sl, [r4, #80]	@ 0x50
	vListInitialiseItem( &( pxNewTCB->xStateListItem ) );
 800456a:	f7ff fb8a 	bl	8003c82 <vListInitialiseItem>
	listSET_LIST_ITEM_VALUE( &( pxNewTCB->xEventListItem ), ( TickType_t ) configMAX_PRIORITIES - ( TickType_t ) uxPriority ); /*lint !e961 MISRA exception as the casts are only redundant for some ports. */
 800456e:	f1c5 0538 	rsb	r5, r5, #56	@ 0x38
	vListInitialiseItem( &( pxNewTCB->xEventListItem ) );
 8004572:	f104 0018 	add.w	r0, r4, #24
 8004576:	f7ff fb84 	bl	8003c82 <vListInitialiseItem>
		_REENT_INIT_PTR( ( &( pxNewTCB->xNewLib_reent ) ) );
 800457a:	224c      	movs	r2, #76	@ 0x4c
 800457c:	4651      	mov	r1, sl
		pxNewTCB->ulNotifiedValue = 0;
 800457e:	f8c4 a0a0 	str.w	sl, [r4, #160]	@ 0xa0
	listSET_LIST_ITEM_OWNER( &( pxNewTCB->xStateListItem ), pxNewTCB );
 8004582:	6124      	str	r4, [r4, #16]
	listSET_LIST_ITEM_VALUE( &( pxNewTCB->xEventListItem ), ( TickType_t ) configMAX_PRIORITIES - ( TickType_t ) uxPriority ); /*lint !e961 MISRA exception as the casts are only redundant for some ports. */
 8004584:	61a5      	str	r5, [r4, #24]
	listSET_LIST_ITEM_OWNER( &( pxNewTCB->xEventListItem ), pxNewTCB );
 8004586:	6264      	str	r4, [r4, #36]	@ 0x24
		pxNewTCB->ucNotifyState = taskNOT_WAITING_NOTIFICATION;
 8004588:	f884 a0a4 	strb.w	sl, [r4, #164]	@ 0xa4
		_REENT_INIT_PTR( ( &( pxNewTCB->xNewLib_reent ) ) );
 800458c:	f104 0054 	add.w	r0, r4, #84	@ 0x54
 8004590:	f001 f93c 	bl	800580c <memset>
 8004594:	4b0b      	ldr	r3, [pc, #44]	@ (80045c4 <prvInitialiseNewTask.constprop.0+0xb4>)
			pxNewTCB->pxTopOfStack = pxPortInitialiseStack( pxTopOfStack, pxTaskCode, pvParameters );
 8004596:	4639      	mov	r1, r7
		_REENT_INIT_PTR( ( &( pxNewTCB->xNewLib_reent ) ) );
 8004598:	f103 0268 	add.w	r2, r3, #104	@ 0x68
 800459c:	65a3      	str	r3, [r4, #88]	@ 0x58
 800459e:	33d0      	adds	r3, #208	@ 0xd0
 80045a0:	65e2      	str	r2, [r4, #92]	@ 0x5c
			pxNewTCB->pxTopOfStack = pxPortInitialiseStack( pxTopOfStack, pxTaskCode, pvParameters );
 80045a2:	4630      	mov	r0, r6
 80045a4:	4642      	mov	r2, r8
		_REENT_INIT_PTR( ( &( pxNewTCB->xNewLib_reent ) ) );
 80045a6:	6623      	str	r3, [r4, #96]	@ 0x60
			pxNewTCB->pxTopOfStack = pxPortInitialiseStack( pxTopOfStack, pxTaskCode, pvParameters );
 80045a8:	f000 fece 	bl	8005348 <pxPortInitialiseStack>
 80045ac:	6020      	str	r0, [r4, #0]
	if( pxCreatedTask != NULL )
 80045ae:	f1b9 0f00 	cmp.w	r9, #0
 80045b2:	d001      	beq.n	80045b8 <prvInitialiseNewTask.constprop.0+0xa8>
		*pxCreatedTask = ( TaskHandle_t ) pxNewTCB;
 80045b4:	f8c9 4000 	str.w	r4, [r9]
}
 80045b8:	e8bd 87f0 	ldmia.w	sp!, {r4, r5, r6, r7, r8, r9, sl, pc}
		pxNewTCB->pcTaskName[ 0 ] = 0x00;
 80045bc:	f884 5034 	strb.w	r5, [r4, #52]	@ 0x34
 80045c0:	e7c8      	b.n	8004554 <prvInitialiseNewTask.constprop.0+0x44>
 80045c2:	bf00      	nop
 80045c4:	20002070 	.word	0x20002070

080045c8 <xTaskCreateStatic>:
	{
 80045c8:	b570      	push	{r4, r5, r6, lr}
 80045ca:	b086      	sub	sp, #24
 80045cc:	e9dd 540b 	ldrd	r5, r4, [sp, #44]	@ 0x2c
		configASSERT( puxStackBuffer != NULL );
 80045d0:	b945      	cbnz	r5, 80045e4 <xTaskCreateStatic+0x1c>
 80045d2:	f04f 0350 	mov.w	r3, #80	@ 0x50
 80045d6:	f383 8811 	msr	BASEPRI, r3
 80045da:	f3bf 8f6f 	isb	sy
 80045de:	f3bf 8f4f 	dsb	sy
 80045e2:	e7fe      	b.n	80045e2 <xTaskCreateStatic+0x1a>
		configASSERT( pxTaskBuffer != NULL );
 80045e4:	b944      	cbnz	r4, 80045f8 <xTaskCreateStatic+0x30>
 80045e6:	f04f 0350 	mov.w	r3, #80	@ 0x50
 80045ea:	f383 8811 	msr	BASEPRI, r3
 80045ee:	f3bf 8f6f 	isb	sy
 80045f2:	f3bf 8f4f 	dsb	sy
 80045f6:	e7fe      	b.n	80045f6 <xTaskCreateStatic+0x2e>
			volatile size_t xSize = sizeof( StaticTask_t );
 80045f8:	26a8      	movs	r6, #168	@ 0xa8
 80045fa:	9605      	str	r6, [sp, #20]
			configASSERT( xSize == sizeof( TCB_t ) );
 80045fc:	9e05      	ldr	r6, [sp, #20]
 80045fe:	2ea8      	cmp	r6, #168	@ 0xa8
 8004600:	d008      	beq.n	8004614 <xTaskCreateStatic+0x4c>
 8004602:	f04f 0350 	mov.w	r3, #80	@ 0x50
 8004606:	f383 8811 	msr	BASEPRI, r3
 800460a:	f3bf 8f6f 	isb	sy
 800460e:	f3bf 8f4f 	dsb	sy
 8004612:	e7fe      	b.n	8004612 <xTaskCreateStatic+0x4a>
			pxNewTCB->pxStack = ( StackType_t * ) puxStackBuffer;
 8004614:	6325      	str	r5, [r4, #48]	@ 0x30
				pxNewTCB->ucStaticallyAllocated = tskSTATICALLY_ALLOCATED_STACK_AND_TCB;
 8004616:	2502      	movs	r5, #2
 8004618:	f884 50a5 	strb.w	r5, [r4, #165]	@ 0xa5
			prvInitialiseNewTask( pxTaskCode, pcName, ulStackDepth, pvParameters, uxPriority, &xReturn, pxNewTCB, NULL );
 800461c:	ad04      	add	r5, sp, #16
 800461e:	9501      	str	r5, [sp, #4]
 8004620:	9d0a      	ldr	r5, [sp, #40]	@ 0x28
 8004622:	9402      	str	r4, [sp, #8]
 8004624:	9500      	str	r5, [sp, #0]
			( void ) xSize; /* Prevent lint warning when configASSERT() is not used. */
 8004626:	9e05      	ldr	r6, [sp, #20]
			prvInitialiseNewTask( pxTaskCode, pcName, ulStackDepth, pvParameters, uxPriority, &xReturn, pxNewTCB, NULL );
 8004628:	f7ff ff72 	bl	8004510 <prvInitialiseNewTask.constprop.0>
			prvAddNewTaskToReadyList( pxNewTCB );
 800462c:	4620      	mov	r0, r4
 800462e:	f7ff fe57 	bl	80042e0 <prvAddNewTaskToReadyList>
	}
 8004632:	9804      	ldr	r0, [sp, #16]
 8004634:	b006      	add	sp, #24
 8004636:	bd70      	pop	{r4, r5, r6, pc}

08004638 <xTaskCreate>:
	{
 8004638:	e92d 43f0 	stmdb	sp!, {r4, r5, r6, r7, r8, r9, lr}
 800463c:	4607      	mov	r7, r0
 800463e:	b085      	sub	sp, #20
			pxStack = pvPortMalloc( ( ( ( size_t ) usStackDepth ) * sizeof( StackType_t ) ) ); /*lint !e9079 All values returned by pvPortMalloc() have at least the alignment required by the MCU's stack and this allocation is the stack. */
 8004640:	0090      	lsls	r0, r2, #2
	{
 8004642:	4688      	mov	r8, r1
 8004644:	4616      	mov	r6, r2
 8004646:	4699      	mov	r9, r3
			pxStack = pvPortMalloc( ( ( ( size_t ) usStackDepth ) * sizeof( StackType_t ) ) ); /*lint !e9079 All values returned by pvPortMalloc() have at least the alignment required by the MCU's stack and this allocation is the stack. */
 8004648:	f000 ffd0 	bl	80055ec <pvPortMalloc>
			if( pxStack != NULL )
 800464c:	4605      	mov	r5, r0
 800464e:	b920      	cbnz	r0, 800465a <xTaskCreate+0x22>
			xReturn = errCOULD_NOT_ALLOCATE_REQUIRED_MEMORY;
 8004650:	f04f 30ff 	mov.w	r0, #4294967295	@ 0xffffffff
	}
 8004654:	b005      	add	sp, #20
 8004656:	e8bd 83f0 	ldmia.w	sp!, {r4, r5, r6, r7, r8, r9, pc}
				pxNewTCB = ( TCB_t * ) pvPortMalloc( sizeof( TCB_t ) ); /*lint !e9087 !e9079 All values returned by pvPortMalloc() have at least the alignment required by the MCU's stack, and the first member of TCB_t is always a pointer to the task's stack. */
 800465a:	20a8      	movs	r0, #168	@ 0xa8
 800465c:	f000 ffc6 	bl	80055ec <pvPortMalloc>
				if( pxNewTCB != NULL )
 8004660:	4604      	mov	r4, r0
 8004662:	b198      	cbz	r0, 800468c <xTaskCreate+0x54>
				pxNewTCB->ucStaticallyAllocated = tskDYNAMICALLY_ALLOCATED_STACK_AND_TCB;
 8004664:	2300      	movs	r3, #0
 8004666:	f880 30a5 	strb.w	r3, [r0, #165]	@ 0xa5
			prvInitialiseNewTask( pxTaskCode, pcName, ( uint32_t ) usStackDepth, pvParameters, uxPriority, pxCreatedTask, pxNewTCB, NULL );
 800466a:	9b0d      	ldr	r3, [sp, #52]	@ 0x34
					pxNewTCB->pxStack = pxStack;
 800466c:	6305      	str	r5, [r0, #48]	@ 0x30
			prvInitialiseNewTask( pxTaskCode, pcName, ( uint32_t ) usStackDepth, pvParameters, uxPriority, pxCreatedTask, pxNewTCB, NULL );
 800466e:	9301      	str	r3, [sp, #4]
 8004670:	9b0c      	ldr	r3, [sp, #48]	@ 0x30
 8004672:	4632      	mov	r2, r6
 8004674:	4641      	mov	r1, r8
 8004676:	9002      	str	r0, [sp, #8]
 8004678:	9300      	str	r3, [sp, #0]
 800467a:	4638      	mov	r0, r7
 800467c:	464b      	mov	r3, r9
 800467e:	f7ff ff47 	bl	8004510 <prvInitialiseNewTask.constprop.0>
			prvAddNewTaskToReadyList( pxNewTCB );
 8004682:	4620      	mov	r0, r4
 8004684:	f7ff fe2c 	bl	80042e0 <prvAddNewTaskToReadyList>
			xReturn = pdPASS;
 8004688:	2001      	movs	r0, #1
 800468a:	e7e3      	b.n	8004654 <xTaskCreate+0x1c>
					vPortFree( pxStack );
 800468c:	4628      	mov	r0, r5
 800468e:	f001 f845 	bl	800571c <vPortFree>
		if( pxNewTCB != NULL )
 8004692:	e7dd      	b.n	8004650 <xTaskCreate+0x18>

08004694 <vTaskStartScheduler>:
{
 8004694:	b510      	push	{r4, lr}
		StaticTask_t *pxIdleTaskTCBBuffer = NULL;
 8004696:	2400      	movs	r4, #0
{
 8004698:	b088      	sub	sp, #32
		vApplicationGetIdleTaskMemory( &pxIdleTaskTCBBuffer, &pxIdleTaskStackBuffer, &ulIdleTaskStackSize );
 800469a:	aa07      	add	r2, sp, #28
 800469c:	a906      	add	r1, sp, #24
 800469e:	a805      	add	r0, sp, #20
		StackType_t *pxIdleTaskStackBuffer = NULL;
 80046a0:	e9cd 4405 	strd	r4, r4, [sp, #20]
		vApplicationGetIdleTaskMemory( &pxIdleTaskTCBBuffer, &pxIdleTaskStackBuffer, &ulIdleTaskStackSize );
 80046a4:	f7ff faca 	bl	8003c3c <vApplicationGetIdleTaskMemory>
		xIdleTaskHandle = xTaskCreateStatic(	prvIdleTask,
 80046a8:	9b05      	ldr	r3, [sp, #20]
 80046aa:	9a07      	ldr	r2, [sp, #28]
 80046ac:	9302      	str	r3, [sp, #8]
 80046ae:	9b06      	ldr	r3, [sp, #24]
 80046b0:	4919      	ldr	r1, [pc, #100]	@ (8004718 <vTaskStartScheduler+0x84>)
 80046b2:	e9cd 4300 	strd	r4, r3, [sp]
 80046b6:	4819      	ldr	r0, [pc, #100]	@ (800471c <vTaskStartScheduler+0x88>)
 80046b8:	4623      	mov	r3, r4
 80046ba:	f7ff ff85 	bl	80045c8 <xTaskCreateStatic>
		if( xIdleTaskHandle != NULL )
 80046be:	b340      	cbz	r0, 8004712 <vTaskStartScheduler+0x7e>
			xReturn = xTimerCreateTimerTask();
 80046c0:	f000 fc7c 	bl	8004fbc <xTimerCreateTimerTask>
	if( xReturn == pdPASS )
 80046c4:	2801      	cmp	r0, #1
 80046c6:	d119      	bne.n	80046fc <vTaskStartScheduler+0x68>
 80046c8:	f04f 0350 	mov.w	r3, #80	@ 0x50
 80046cc:	f383 8811 	msr	BASEPRI, r3
 80046d0:	f3bf 8f6f 	isb	sy
 80046d4:	f3bf 8f4f 	dsb	sy
			_impure_ptr = &( pxCurrentTCB->xNewLib_reent );
 80046d8:	4b11      	ldr	r3, [pc, #68]	@ (8004720 <vTaskStartScheduler+0x8c>)
 80046da:	4a12      	ldr	r2, [pc, #72]	@ (8004724 <vTaskStartScheduler+0x90>)
 80046dc:	681b      	ldr	r3, [r3, #0]
 80046de:	3354      	adds	r3, #84	@ 0x54
 80046e0:	6013      	str	r3, [r2, #0]
		xNextTaskUnblockTime = portMAX_DELAY;
 80046e2:	f04f 32ff 	mov.w	r2, #4294967295	@ 0xffffffff
 80046e6:	4b10      	ldr	r3, [pc, #64]	@ (8004728 <vTaskStartScheduler+0x94>)
 80046e8:	601a      	str	r2, [r3, #0]
		xSchedulerRunning = pdTRUE;
 80046ea:	4b10      	ldr	r3, [pc, #64]	@ (800472c <vTaskStartScheduler+0x98>)
 80046ec:	6018      	str	r0, [r3, #0]
		xTickCount = ( TickType_t ) configINITIAL_TICK_COUNT;
 80046ee:	4b10      	ldr	r3, [pc, #64]	@ (8004730 <vTaskStartScheduler+0x9c>)
 80046f0:	601c      	str	r4, [r3, #0]
}
 80046f2:	b008      	add	sp, #32
 80046f4:	e8bd 4010 	ldmia.w	sp!, {r4, lr}
		if( xPortStartScheduler() != pdFALSE )
 80046f8:	f000 becc 	b.w	8005494 <xPortStartScheduler>
		configASSERT( xReturn != errCOULD_NOT_ALLOCATE_REQUIRED_MEMORY );
 80046fc:	3001      	adds	r0, #1
 80046fe:	d108      	bne.n	8004712 <vTaskStartScheduler+0x7e>
 8004700:	f04f 0350 	mov.w	r3, #80	@ 0x50
 8004704:	f383 8811 	msr	BASEPRI, r3
 8004708:	f3bf 8f6f 	isb	sy
 800470c:	f3bf 8f4f 	dsb	sy
 8004710:	e7fe      	b.n	8004710 <vTaskStartScheduler+0x7c>
}
 8004712:	b008      	add	sp, #32
 8004714:	bd10      	pop	{r4, pc}
 8004716:	bf00      	nop
 8004718:	080070e0 	.word	0x080070e0
 800471c:	080044b1 	.word	0x080044b1
 8004720:	20001428 	.word	0x20001428
 8004724:	2000002c 	.word	0x2000002c
 8004728:	20000f34 	.word	0x20000f34
 800472c:	20000f48 	.word	0x20000f48
 8004730:	20000f50 	.word	0x20000f50

08004734 <vTaskSuspendAll>:
	++uxSchedulerSuspended;
 8004734:	4a02      	ldr	r2, [pc, #8]	@ (8004740 <vTaskSuspendAll+0xc>)
 8004736:	6813      	ldr	r3, [r2, #0]
 8004738:	3301      	adds	r3, #1
 800473a:	6013      	str	r3, [r2, #0]
}
 800473c:	4770      	bx	lr
 800473e:	bf00      	nop
 8004740:	20000f30 	.word	0x20000f30

08004744 <xTaskGetTickCount>:
		xTicks = xTickCount;
 8004744:	4b01      	ldr	r3, [pc, #4]	@ (800474c <xTaskGetTickCount+0x8>)
 8004746:	6818      	ldr	r0, [r3, #0]
}
 8004748:	4770      	bx	lr
 800474a:	bf00      	nop
 800474c:	20000f50 	.word	0x20000f50

08004750 <xTaskIncrementTick>:
	if( uxSchedulerSuspended == ( UBaseType_t ) pdFALSE )
 8004750:	4b40      	ldr	r3, [pc, #256]	@ (8004854 <xTaskIncrementTick+0x104>)
{
 8004752:	e92d 4ff7 	stmdb	sp!, {r0, r1, r2, r4, r5, r6, r7, r8, r9, sl, fp, lr}
	if( uxSchedulerSuspended == ( UBaseType_t ) pdFALSE )
 8004756:	681b      	ldr	r3, [r3, #0]
 8004758:	2b00      	cmp	r3, #0
 800475a:	d173      	bne.n	8004844 <xTaskIncrementTick+0xf4>
		const TickType_t xConstTickCount = xTickCount + ( TickType_t ) 1;
 800475c:	4b3e      	ldr	r3, [pc, #248]	@ (8004858 <xTaskIncrementTick+0x108>)
 800475e:	681c      	ldr	r4, [r3, #0]
 8004760:	3401      	adds	r4, #1
		xTickCount = xConstTickCount;
 8004762:	601c      	str	r4, [r3, #0]
		if( xConstTickCount == ( TickType_t ) 0U ) /*lint !e774 'if' does not always evaluate to false as it is looking for an overflow. */
 8004764:	b9bc      	cbnz	r4, 8004796 <xTaskIncrementTick+0x46>
			taskSWITCH_DELAYED_LISTS();
 8004766:	4b3d      	ldr	r3, [pc, #244]	@ (800485c <xTaskIncrementTick+0x10c>)
 8004768:	681a      	ldr	r2, [r3, #0]
 800476a:	6812      	ldr	r2, [r2, #0]
 800476c:	b142      	cbz	r2, 8004780 <xTaskIncrementTick+0x30>
 800476e:	f04f 0350 	mov.w	r3, #80	@ 0x50
 8004772:	f383 8811 	msr	BASEPRI, r3
 8004776:	f3bf 8f6f 	isb	sy
 800477a:	f3bf 8f4f 	dsb	sy
 800477e:	e7fe      	b.n	800477e <xTaskIncrementTick+0x2e>
 8004780:	4a37      	ldr	r2, [pc, #220]	@ (8004860 <xTaskIncrementTick+0x110>)
 8004782:	6819      	ldr	r1, [r3, #0]
 8004784:	6810      	ldr	r0, [r2, #0]
 8004786:	6018      	str	r0, [r3, #0]
 8004788:	6011      	str	r1, [r2, #0]
 800478a:	4a36      	ldr	r2, [pc, #216]	@ (8004864 <xTaskIncrementTick+0x114>)
 800478c:	6813      	ldr	r3, [r2, #0]
 800478e:	3301      	adds	r3, #1
 8004790:	6013      	str	r3, [r2, #0]
 8004792:	f7ff fe5d 	bl	8004450 <prvResetNextTaskUnblockTime>
		if( xConstTickCount >= xNextTaskUnblockTime )
 8004796:	4d34      	ldr	r5, [pc, #208]	@ (8004868 <xTaskIncrementTick+0x118>)
BaseType_t xSwitchRequired = pdFALSE;
 8004798:	f04f 0b00 	mov.w	fp, #0
		if( xConstTickCount >= xNextTaskUnblockTime )
 800479c:	682b      	ldr	r3, [r5, #0]
 800479e:	4e33      	ldr	r6, [pc, #204]	@ (800486c <xTaskIncrementTick+0x11c>)
 80047a0:	429c      	cmp	r4, r3
 80047a2:	4f33      	ldr	r7, [pc, #204]	@ (8004870 <xTaskIncrementTick+0x120>)
 80047a4:	d212      	bcs.n	80047cc <xTaskIncrementTick+0x7c>
			if( listCURRENT_LIST_LENGTH( &( pxReadyTasksLists[ pxCurrentTCB->uxPriority ] ) ) > ( UBaseType_t ) 1 )
 80047a6:	2114      	movs	r1, #20
 80047a8:	683a      	ldr	r2, [r7, #0]
 80047aa:	6ad2      	ldr	r2, [r2, #44]	@ 0x2c
 80047ac:	434a      	muls	r2, r1
 80047ae:	58b2      	ldr	r2, [r6, r2]
				xSwitchRequired = pdTRUE;
 80047b0:	2a02      	cmp	r2, #2
			if( xYieldPending != pdFALSE )
 80047b2:	4a30      	ldr	r2, [pc, #192]	@ (8004874 <xTaskIncrementTick+0x124>)
				xSwitchRequired = pdTRUE;
 80047b4:	bf28      	it	cs
 80047b6:	f04f 0b01 	movcs.w	fp, #1
			if( xYieldPending != pdFALSE )
 80047ba:	6812      	ldr	r2, [r2, #0]
				xSwitchRequired = pdTRUE;
 80047bc:	2a00      	cmp	r2, #0
 80047be:	bf18      	it	ne
 80047c0:	f04f 0b01 	movne.w	fp, #1
}
 80047c4:	4658      	mov	r0, fp
 80047c6:	b003      	add	sp, #12
 80047c8:	e8bd 8ff0 	ldmia.w	sp!, {r4, r5, r6, r7, r8, r9, sl, fp, pc}
				if( listLIST_IS_EMPTY( pxDelayedTaskList ) != pdFALSE )
 80047cc:	f8df 908c 	ldr.w	r9, [pc, #140]	@ 800485c <xTaskIncrementTick+0x10c>
					prvAddTaskToReadyList( pxTCB );
 80047d0:	f8df a0a4 	ldr.w	sl, [pc, #164]	@ 8004878 <xTaskIncrementTick+0x128>
				if( listLIST_IS_EMPTY( pxDelayedTaskList ) != pdFALSE )
 80047d4:	f8d9 2000 	ldr.w	r2, [r9]
 80047d8:	6812      	ldr	r2, [r2, #0]
 80047da:	b91a      	cbnz	r2, 80047e4 <xTaskIncrementTick+0x94>
					xNextTaskUnblockTime = portMAX_DELAY; /*lint !e961 MISRA exception as the casts are only redundant for some ports. */
 80047dc:	f04f 32ff 	mov.w	r2, #4294967295	@ 0xffffffff
 80047e0:	602a      	str	r2, [r5, #0]
					break;
 80047e2:	e7e0      	b.n	80047a6 <xTaskIncrementTick+0x56>
					pxTCB = listGET_OWNER_OF_HEAD_ENTRY( pxDelayedTaskList ); /*lint !e9079 void * is used as this macro is used with timers and co-routines too.  Alignment is known to be fine as the type of the pointer stored and retrieved is the same. */
 80047e4:	f8d9 2000 	ldr.w	r2, [r9]
 80047e8:	68d2      	ldr	r2, [r2, #12]
 80047ea:	f8d2 800c 	ldr.w	r8, [r2, #12]
					xItemValue = listGET_LIST_ITEM_VALUE( &( pxTCB->xStateListItem ) );
 80047ee:	f8d8 1004 	ldr.w	r1, [r8, #4]
					if( xConstTickCount < xItemValue )
 80047f2:	428c      	cmp	r4, r1
 80047f4:	d201      	bcs.n	80047fa <xTaskIncrementTick+0xaa>
						xNextTaskUnblockTime = xItemValue;
 80047f6:	6029      	str	r1, [r5, #0]
						break; /*lint !e9011 Code structure here is deedmed easier to understand with multiple breaks. */
 80047f8:	e7d5      	b.n	80047a6 <xTaskIncrementTick+0x56>
					( void ) uxListRemove( &( pxTCB->xStateListItem ) );
 80047fa:	f108 0304 	add.w	r3, r8, #4
 80047fe:	4618      	mov	r0, r3
 8004800:	9301      	str	r3, [sp, #4]
 8004802:	f7ff fa63 	bl	8003ccc <uxListRemove>
					if( listLIST_ITEM_CONTAINER( &( pxTCB->xEventListItem ) ) != NULL )
 8004806:	f8d8 1028 	ldr.w	r1, [r8, #40]	@ 0x28
 800480a:	b119      	cbz	r1, 8004814 <xTaskIncrementTick+0xc4>
						( void ) uxListRemove( &( pxTCB->xEventListItem ) );
 800480c:	f108 0018 	add.w	r0, r8, #24
 8004810:	f7ff fa5c 	bl	8003ccc <uxListRemove>
					prvAddTaskToReadyList( pxTCB );
 8004814:	2314      	movs	r3, #20
 8004816:	f8d8 002c 	ldr.w	r0, [r8, #44]	@ 0x2c
 800481a:	f8da 1000 	ldr.w	r1, [sl]
 800481e:	4288      	cmp	r0, r1
 8004820:	bf88      	it	hi
 8004822:	f8ca 0000 	strhi.w	r0, [sl]
 8004826:	f108 0104 	add.w	r1, r8, #4
 800482a:	fb03 6000 	mla	r0, r3, r0, r6
 800482e:	f7ff fa2b 	bl	8003c88 <vListInsertEnd>
						if( pxTCB->uxPriority >= pxCurrentTCB->uxPriority )
 8004832:	6838      	ldr	r0, [r7, #0]
 8004834:	f8d8 102c 	ldr.w	r1, [r8, #44]	@ 0x2c
 8004838:	6ac2      	ldr	r2, [r0, #44]	@ 0x2c
							xSwitchRequired = pdTRUE;
 800483a:	4291      	cmp	r1, r2
 800483c:	bf28      	it	cs
 800483e:	f04f 0b01 	movcs.w	fp, #1
 8004842:	e7c7      	b.n	80047d4 <xTaskIncrementTick+0x84>
		++xPendedTicks;
 8004844:	4a0d      	ldr	r2, [pc, #52]	@ (800487c <xTaskIncrementTick+0x12c>)
BaseType_t xSwitchRequired = pdFALSE;
 8004846:	f04f 0b00 	mov.w	fp, #0
		++xPendedTicks;
 800484a:	6813      	ldr	r3, [r2, #0]
 800484c:	3301      	adds	r3, #1
 800484e:	6013      	str	r3, [r2, #0]
 8004850:	e7b8      	b.n	80047c4 <xTaskIncrementTick+0x74>
 8004852:	bf00      	nop
 8004854:	20000f30 	.word	0x20000f30
 8004858:	20000f50 	.word	0x20000f50
 800485c:	20000f9c 	.word	0x20000f9c
 8004860:	20000f98 	.word	0x20000f98
 8004864:	20000f3c 	.word	0x20000f3c
 8004868:	20000f34 	.word	0x20000f34
 800486c:	20000fc8 	.word	0x20000fc8
 8004870:	20001428 	.word	0x20001428
 8004874:	20000f40 	.word	0x20000f40
 8004878:	20000f4c 	.word	0x20000f4c
 800487c:	20000f44 	.word	0x20000f44

08004880 <xTaskResumeAll>:
{
 8004880:	e92d 41f0 	stmdb	sp!, {r4, r5, r6, r7, r8, lr}
	configASSERT( uxSchedulerSuspended );
 8004884:	4c30      	ldr	r4, [pc, #192]	@ (8004948 <xTaskResumeAll+0xc8>)
 8004886:	6823      	ldr	r3, [r4, #0]
 8004888:	b943      	cbnz	r3, 800489c <xTaskResumeAll+0x1c>
 800488a:	f04f 0350 	mov.w	r3, #80	@ 0x50
 800488e:	f383 8811 	msr	BASEPRI, r3
 8004892:	f3bf 8f6f 	isb	sy
 8004896:	f3bf 8f4f 	dsb	sy
 800489a:	e7fe      	b.n	800489a <xTaskResumeAll+0x1a>
	taskENTER_CRITICAL();
 800489c:	f000 fd7a 	bl	8005394 <vPortEnterCritical>
		--uxSchedulerSuspended;
 80048a0:	6823      	ldr	r3, [r4, #0]
 80048a2:	3b01      	subs	r3, #1
 80048a4:	6023      	str	r3, [r4, #0]
		if( uxSchedulerSuspended == ( UBaseType_t ) pdFALSE )
 80048a6:	6824      	ldr	r4, [r4, #0]
 80048a8:	b12c      	cbz	r4, 80048b6 <xTaskResumeAll+0x36>
BaseType_t xAlreadyYielded = pdFALSE;
 80048aa:	2400      	movs	r4, #0
	taskEXIT_CRITICAL();
 80048ac:	f000 fd92 	bl	80053d4 <vPortExitCritical>
}
 80048b0:	4620      	mov	r0, r4
 80048b2:	e8bd 81f0 	ldmia.w	sp!, {r4, r5, r6, r7, r8, pc}
			if( uxCurrentNumberOfTasks > ( UBaseType_t ) 0U )
 80048b6:	4b25      	ldr	r3, [pc, #148]	@ (800494c <xTaskResumeAll+0xcc>)
 80048b8:	681b      	ldr	r3, [r3, #0]
 80048ba:	2b00      	cmp	r3, #0
 80048bc:	d0f5      	beq.n	80048aa <xTaskResumeAll+0x2a>
				while( listLIST_IS_EMPTY( &xPendingReadyList ) == pdFALSE )
 80048be:	4d24      	ldr	r5, [pc, #144]	@ (8004950 <xTaskResumeAll+0xd0>)
					prvAddTaskToReadyList( pxTCB );
 80048c0:	4e24      	ldr	r6, [pc, #144]	@ (8004954 <xTaskResumeAll+0xd4>)
 80048c2:	f8df 8094 	ldr.w	r8, [pc, #148]	@ 8004958 <xTaskResumeAll+0xd8>
 80048c6:	e01d      	b.n	8004904 <xTaskResumeAll+0x84>
					pxTCB = listGET_OWNER_OF_HEAD_ENTRY( ( &xPendingReadyList ) ); /*lint !e9079 void * is used as this macro is used with timers and co-routines too.  Alignment is known to be fine as the type of the pointer stored and retrieved is the same. */
 80048c8:	68eb      	ldr	r3, [r5, #12]
 80048ca:	68dc      	ldr	r4, [r3, #12]
					( void ) uxListRemove( &( pxTCB->xStateListItem ) );
 80048cc:	1d27      	adds	r7, r4, #4
					( void ) uxListRemove( &( pxTCB->xEventListItem ) );
 80048ce:	f104 0018 	add.w	r0, r4, #24
 80048d2:	f7ff f9fb 	bl	8003ccc <uxListRemove>
					( void ) uxListRemove( &( pxTCB->xStateListItem ) );
 80048d6:	4638      	mov	r0, r7
 80048d8:	f7ff f9f8 	bl	8003ccc <uxListRemove>
					prvAddTaskToReadyList( pxTCB );
 80048dc:	2014      	movs	r0, #20
 80048de:	6ae3      	ldr	r3, [r4, #44]	@ 0x2c
 80048e0:	6832      	ldr	r2, [r6, #0]
 80048e2:	fb00 8003 	mla	r0, r0, r3, r8
 80048e6:	4293      	cmp	r3, r2
 80048e8:	4639      	mov	r1, r7
 80048ea:	bf88      	it	hi
 80048ec:	6033      	strhi	r3, [r6, #0]
 80048ee:	f7ff f9cb 	bl	8003c88 <vListInsertEnd>
					if( pxTCB->uxPriority >= pxCurrentTCB->uxPriority )
 80048f2:	4b1a      	ldr	r3, [pc, #104]	@ (800495c <xTaskResumeAll+0xdc>)
 80048f4:	6ae2      	ldr	r2, [r4, #44]	@ 0x2c
 80048f6:	681b      	ldr	r3, [r3, #0]
 80048f8:	6adb      	ldr	r3, [r3, #44]	@ 0x2c
 80048fa:	429a      	cmp	r2, r3
 80048fc:	d302      	bcc.n	8004904 <xTaskResumeAll+0x84>
						xYieldPending = pdTRUE;
 80048fe:	2201      	movs	r2, #1
 8004900:	4b17      	ldr	r3, [pc, #92]	@ (8004960 <xTaskResumeAll+0xe0>)
 8004902:	601a      	str	r2, [r3, #0]
				while( listLIST_IS_EMPTY( &xPendingReadyList ) == pdFALSE )
 8004904:	682b      	ldr	r3, [r5, #0]
 8004906:	2b00      	cmp	r3, #0
 8004908:	d1de      	bne.n	80048c8 <xTaskResumeAll+0x48>
				if( pxTCB != NULL )
 800490a:	b10c      	cbz	r4, 8004910 <xTaskResumeAll+0x90>
					prvResetNextTaskUnblockTime();
 800490c:	f7ff fda0 	bl	8004450 <prvResetNextTaskUnblockTime>
					TickType_t xPendedCounts = xPendedTicks; /* Non-volatile copy. */
 8004910:	4d14      	ldr	r5, [pc, #80]	@ (8004964 <xTaskResumeAll+0xe4>)
 8004912:	682c      	ldr	r4, [r5, #0]
					if( xPendedCounts > ( TickType_t ) 0U )
 8004914:	b144      	cbz	r4, 8004928 <xTaskResumeAll+0xa8>
								xYieldPending = pdTRUE;
 8004916:	2701      	movs	r7, #1
 8004918:	4e11      	ldr	r6, [pc, #68]	@ (8004960 <xTaskResumeAll+0xe0>)
							if( xTaskIncrementTick() != pdFALSE )
 800491a:	f7ff ff19 	bl	8004750 <xTaskIncrementTick>
 800491e:	b100      	cbz	r0, 8004922 <xTaskResumeAll+0xa2>
								xYieldPending = pdTRUE;
 8004920:	6037      	str	r7, [r6, #0]
						} while( xPendedCounts > ( TickType_t ) 0U );
 8004922:	3c01      	subs	r4, #1
 8004924:	d1f9      	bne.n	800491a <xTaskResumeAll+0x9a>
						xPendedTicks = 0;
 8004926:	602c      	str	r4, [r5, #0]
				if( xYieldPending != pdFALSE )
 8004928:	4b0d      	ldr	r3, [pc, #52]	@ (8004960 <xTaskResumeAll+0xe0>)
 800492a:	681b      	ldr	r3, [r3, #0]
 800492c:	2b00      	cmp	r3, #0
 800492e:	d0bc      	beq.n	80048aa <xTaskResumeAll+0x2a>
					taskYIELD_IF_USING_PREEMPTION();
 8004930:	f04f 23e0 	mov.w	r3, #3758153728	@ 0xe000e000
 8004934:	f04f 5280 	mov.w	r2, #268435456	@ 0x10000000
 8004938:	f8c3 2d04 	str.w	r2, [r3, #3332]	@ 0xd04
 800493c:	f3bf 8f4f 	dsb	sy
 8004940:	f3bf 8f6f 	isb	sy
						xAlreadyYielded = pdTRUE;
 8004944:	2401      	movs	r4, #1
 8004946:	e7b1      	b.n	80048ac <xTaskResumeAll+0x2c>
 8004948:	20000f30 	.word	0x20000f30
 800494c:	20000f54 	.word	0x20000f54
 8004950:	20000f84 	.word	0x20000f84
 8004954:	20000f4c 	.word	0x20000f4c
 8004958:	20000fc8 	.word	0x20000fc8
 800495c:	20001428 	.word	0x20001428
 8004960:	20000f40 	.word	0x20000f40
 8004964:	20000f44 	.word	0x20000f44

08004968 <vTaskDelay>:
	{
 8004968:	b508      	push	{r3, lr}
		if( xTicksToDelay > ( TickType_t ) 0U )
 800496a:	b950      	cbnz	r0, 8004982 <vTaskDelay+0x1a>
			portYIELD_WITHIN_API();
 800496c:	f04f 23e0 	mov.w	r3, #3758153728	@ 0xe000e000
 8004970:	f04f 5280 	mov.w	r2, #268435456	@ 0x10000000
 8004974:	f8c3 2d04 	str.w	r2, [r3, #3332]	@ 0xd04
 8004978:	f3bf 8f4f 	dsb	sy
 800497c:	f3bf 8f6f 	isb	sy
	}
 8004980:	bd08      	pop	{r3, pc}
			configASSERT( uxSchedulerSuspended == 0 );
 8004982:	4b0a      	ldr	r3, [pc, #40]	@ (80049ac <vTaskDelay+0x44>)
 8004984:	6819      	ldr	r1, [r3, #0]
 8004986:	b141      	cbz	r1, 800499a <vTaskDelay+0x32>
 8004988:	f04f 0350 	mov.w	r3, #80	@ 0x50
 800498c:	f383 8811 	msr	BASEPRI, r3
 8004990:	f3bf 8f6f 	isb	sy
 8004994:	f3bf 8f4f 	dsb	sy
 8004998:	e7fe      	b.n	8004998 <vTaskDelay+0x30>
			vTaskSuspendAll();
 800499a:	f7ff fecb 	bl	8004734 <vTaskSuspendAll>
				prvAddCurrentTaskToDelayedList( xTicksToDelay, pdFALSE );
 800499e:	f7ff fd1f 	bl	80043e0 <prvAddCurrentTaskToDelayedList>
			xAlreadyYielded = xTaskResumeAll();
 80049a2:	f7ff ff6d 	bl	8004880 <xTaskResumeAll>
		if( xAlreadyYielded == pdFALSE )
 80049a6:	2800      	cmp	r0, #0
 80049a8:	d0e0      	beq.n	800496c <vTaskDelay+0x4>
 80049aa:	e7e9      	b.n	8004980 <vTaskDelay+0x18>
 80049ac:	20000f30 	.word	0x20000f30

080049b0 <vTaskSwitchContext>:
	if( uxSchedulerSuspended != ( UBaseType_t ) pdFALSE )
 80049b0:	4b1a      	ldr	r3, [pc, #104]	@ (8004a1c <vTaskSwitchContext+0x6c>)
{
 80049b2:	b570      	push	{r4, r5, r6, lr}
	if( uxSchedulerSuspended != ( UBaseType_t ) pdFALSE )
 80049b4:	681a      	ldr	r2, [r3, #0]
 80049b6:	4b1a      	ldr	r3, [pc, #104]	@ (8004a20 <vTaskSwitchContext+0x70>)
 80049b8:	b112      	cbz	r2, 80049c0 <vTaskSwitchContext+0x10>
		xYieldPending = pdTRUE;
 80049ba:	2201      	movs	r2, #1
 80049bc:	601a      	str	r2, [r3, #0]
}
 80049be:	bd70      	pop	{r4, r5, r6, pc}
		taskSELECT_HIGHEST_PRIORITY_TASK(); /*lint !e9079 void * is used as this macro is used with timers and co-routines too.  Alignment is known to be fine as the type of the pointer stored and retrieved is the same. */
 80049c0:	2614      	movs	r6, #20
 80049c2:	4d18      	ldr	r5, [pc, #96]	@ (8004a24 <vTaskSwitchContext+0x74>)
		xYieldPending = pdFALSE;
 80049c4:	601a      	str	r2, [r3, #0]
		taskSELECT_HIGHEST_PRIORITY_TASK(); /*lint !e9079 void * is used as this macro is used with timers and co-routines too.  Alignment is known to be fine as the type of the pointer stored and retrieved is the same. */
 80049c6:	682a      	ldr	r2, [r5, #0]
 80049c8:	4917      	ldr	r1, [pc, #92]	@ (8004a28 <vTaskSwitchContext+0x78>)
 80049ca:	fb06 f302 	mul.w	r3, r6, r2
 80049ce:	58cc      	ldr	r4, [r1, r3]
 80049d0:	18c8      	adds	r0, r1, r3
 80049d2:	b1b4      	cbz	r4, 8004a02 <vTaskSwitchContext+0x52>
 80049d4:	6844      	ldr	r4, [r0, #4]
 80049d6:	3308      	adds	r3, #8
 80049d8:	6864      	ldr	r4, [r4, #4]
 80049da:	440b      	add	r3, r1
 80049dc:	429c      	cmp	r4, r3
 80049de:	bf08      	it	eq
 80049e0:	6863      	ldreq	r3, [r4, #4]
 80049e2:	6044      	str	r4, [r0, #4]
 80049e4:	bf08      	it	eq
 80049e6:	6043      	streq	r3, [r0, #4]
 80049e8:	2314      	movs	r3, #20
 80049ea:	fb03 1102 	mla	r1, r3, r2, r1
 80049ee:	684b      	ldr	r3, [r1, #4]
 80049f0:	68d9      	ldr	r1, [r3, #12]
 80049f2:	4b0e      	ldr	r3, [pc, #56]	@ (8004a2c <vTaskSwitchContext+0x7c>)
 80049f4:	6019      	str	r1, [r3, #0]
 80049f6:	602a      	str	r2, [r5, #0]
			_impure_ptr = &( pxCurrentTCB->xNewLib_reent );
 80049f8:	681b      	ldr	r3, [r3, #0]
 80049fa:	4a0d      	ldr	r2, [pc, #52]	@ (8004a30 <vTaskSwitchContext+0x80>)
 80049fc:	3354      	adds	r3, #84	@ 0x54
 80049fe:	6013      	str	r3, [r2, #0]
}
 8004a00:	e7dd      	b.n	80049be <vTaskSwitchContext+0xe>
		taskSELECT_HIGHEST_PRIORITY_TASK(); /*lint !e9079 void * is used as this macro is used with timers and co-routines too.  Alignment is known to be fine as the type of the pointer stored and retrieved is the same. */
 8004a02:	b942      	cbnz	r2, 8004a16 <vTaskSwitchContext+0x66>
 8004a04:	f04f 0350 	mov.w	r3, #80	@ 0x50
 8004a08:	f383 8811 	msr	BASEPRI, r3
 8004a0c:	f3bf 8f6f 	isb	sy
 8004a10:	f3bf 8f4f 	dsb	sy
 8004a14:	e7fe      	b.n	8004a14 <vTaskSwitchContext+0x64>
 8004a16:	3a01      	subs	r2, #1
 8004a18:	e7d7      	b.n	80049ca <vTaskSwitchContext+0x1a>
 8004a1a:	bf00      	nop
 8004a1c:	20000f30 	.word	0x20000f30
 8004a20:	20000f40 	.word	0x20000f40
 8004a24:	20000f4c 	.word	0x20000f4c
 8004a28:	20000fc8 	.word	0x20000fc8
 8004a2c:	20001428 	.word	0x20001428
 8004a30:	2000002c 	.word	0x2000002c

08004a34 <vTaskPlaceOnEventList>:
{
 8004a34:	b510      	push	{r4, lr}
 8004a36:	460c      	mov	r4, r1
	configASSERT( pxEventList );
 8004a38:	b940      	cbnz	r0, 8004a4c <vTaskPlaceOnEventList+0x18>
 8004a3a:	f04f 0350 	mov.w	r3, #80	@ 0x50
 8004a3e:	f383 8811 	msr	BASEPRI, r3
 8004a42:	f3bf 8f6f 	isb	sy
 8004a46:	f3bf 8f4f 	dsb	sy
 8004a4a:	e7fe      	b.n	8004a4a <vTaskPlaceOnEventList+0x16>
	vListInsert( pxEventList, &( pxCurrentTCB->xEventListItem ) );
 8004a4c:	4b05      	ldr	r3, [pc, #20]	@ (8004a64 <vTaskPlaceOnEventList+0x30>)
 8004a4e:	6819      	ldr	r1, [r3, #0]
 8004a50:	3118      	adds	r1, #24
 8004a52:	f7ff f924 	bl	8003c9e <vListInsert>
	prvAddCurrentTaskToDelayedList( xTicksToWait, pdTRUE );
 8004a56:	4620      	mov	r0, r4
}
 8004a58:	e8bd 4010 	ldmia.w	sp!, {r4, lr}
	prvAddCurrentTaskToDelayedList( xTicksToWait, pdTRUE );
 8004a5c:	2101      	movs	r1, #1
 8004a5e:	f7ff bcbf 	b.w	80043e0 <prvAddCurrentTaskToDelayedList>
 8004a62:	bf00      	nop
 8004a64:	20001428 	.word	0x20001428

08004a68 <vTaskPlaceOnEventListRestricted>:
	{
 8004a68:	b538      	push	{r3, r4, r5, lr}
 8004a6a:	460d      	mov	r5, r1
 8004a6c:	4614      	mov	r4, r2
		configASSERT( pxEventList );
 8004a6e:	b940      	cbnz	r0, 8004a82 <vTaskPlaceOnEventListRestricted+0x1a>
 8004a70:	f04f 0350 	mov.w	r3, #80	@ 0x50
 8004a74:	f383 8811 	msr	BASEPRI, r3
 8004a78:	f3bf 8f6f 	isb	sy
 8004a7c:	f3bf 8f4f 	dsb	sy
 8004a80:	e7fe      	b.n	8004a80 <vTaskPlaceOnEventListRestricted+0x18>
		vListInsertEnd( pxEventList, &( pxCurrentTCB->xEventListItem ) );
 8004a82:	4b08      	ldr	r3, [pc, #32]	@ (8004aa4 <vTaskPlaceOnEventListRestricted+0x3c>)
 8004a84:	6819      	ldr	r1, [r3, #0]
 8004a86:	3118      	adds	r1, #24
 8004a88:	f7ff f8fe 	bl	8003c88 <vListInsertEnd>
			xTicksToWait = portMAX_DELAY;
 8004a8c:	2c00      	cmp	r4, #0
		prvAddCurrentTaskToDelayedList( xTicksToWait, xWaitIndefinitely );
 8004a8e:	4621      	mov	r1, r4
 8004a90:	bf08      	it	eq
 8004a92:	4628      	moveq	r0, r5
	}
 8004a94:	e8bd 4038 	ldmia.w	sp!, {r3, r4, r5, lr}
		prvAddCurrentTaskToDelayedList( xTicksToWait, xWaitIndefinitely );
 8004a98:	bf18      	it	ne
 8004a9a:	f04f 30ff 	movne.w	r0, #4294967295	@ 0xffffffff
 8004a9e:	f7ff bc9f 	b.w	80043e0 <prvAddCurrentTaskToDelayedList>
 8004aa2:	bf00      	nop
 8004aa4:	20001428 	.word	0x20001428

08004aa8 <xTaskRemoveFromEventList>:
{
 8004aa8:	b538      	push	{r3, r4, r5, lr}
	pxUnblockedTCB = listGET_OWNER_OF_HEAD_ENTRY( pxEventList ); /*lint !e9079 void * is used as this macro is used with timers and co-routines too.  Alignment is known to be fine as the type of the pointer stored and retrieved is the same. */
 8004aaa:	68c3      	ldr	r3, [r0, #12]
 8004aac:	68dc      	ldr	r4, [r3, #12]
	configASSERT( pxUnblockedTCB );
 8004aae:	b944      	cbnz	r4, 8004ac2 <xTaskRemoveFromEventList+0x1a>
 8004ab0:	f04f 0350 	mov.w	r3, #80	@ 0x50
 8004ab4:	f383 8811 	msr	BASEPRI, r3
 8004ab8:	f3bf 8f6f 	isb	sy
 8004abc:	f3bf 8f4f 	dsb	sy
 8004ac0:	e7fe      	b.n	8004ac0 <xTaskRemoveFromEventList+0x18>
	( void ) uxListRemove( &( pxUnblockedTCB->xEventListItem ) );
 8004ac2:	f104 0518 	add.w	r5, r4, #24
 8004ac6:	4628      	mov	r0, r5
 8004ac8:	f7ff f900 	bl	8003ccc <uxListRemove>
	if( uxSchedulerSuspended == ( UBaseType_t ) pdFALSE )
 8004acc:	4b10      	ldr	r3, [pc, #64]	@ (8004b10 <xTaskRemoveFromEventList+0x68>)
 8004ace:	681b      	ldr	r3, [r3, #0]
 8004ad0:	b9db      	cbnz	r3, 8004b0a <xTaskRemoveFromEventList+0x62>
		( void ) uxListRemove( &( pxUnblockedTCB->xStateListItem ) );
 8004ad2:	1d25      	adds	r5, r4, #4
 8004ad4:	4628      	mov	r0, r5
 8004ad6:	f7ff f8f9 	bl	8003ccc <uxListRemove>
		prvAddTaskToReadyList( pxUnblockedTCB );
 8004ada:	4a0e      	ldr	r2, [pc, #56]	@ (8004b14 <xTaskRemoveFromEventList+0x6c>)
 8004adc:	2014      	movs	r0, #20
 8004ade:	6811      	ldr	r1, [r2, #0]
 8004ae0:	6ae3      	ldr	r3, [r4, #44]	@ 0x2c
 8004ae2:	428b      	cmp	r3, r1
 8004ae4:	4629      	mov	r1, r5
 8004ae6:	bf88      	it	hi
 8004ae8:	6013      	strhi	r3, [r2, #0]
 8004aea:	4a0b      	ldr	r2, [pc, #44]	@ (8004b18 <xTaskRemoveFromEventList+0x70>)
 8004aec:	fb00 2003 	mla	r0, r0, r3, r2
		vListInsertEnd( &( xPendingReadyList ), &( pxUnblockedTCB->xEventListItem ) );
 8004af0:	f7ff f8ca 	bl	8003c88 <vListInsertEnd>
	if( pxUnblockedTCB->uxPriority > pxCurrentTCB->uxPriority )
 8004af4:	4b09      	ldr	r3, [pc, #36]	@ (8004b1c <xTaskRemoveFromEventList+0x74>)
 8004af6:	6ae2      	ldr	r2, [r4, #44]	@ 0x2c
 8004af8:	681b      	ldr	r3, [r3, #0]
 8004afa:	6adb      	ldr	r3, [r3, #44]	@ 0x2c
 8004afc:	429a      	cmp	r2, r3
		xYieldPending = pdTRUE;
 8004afe:	bf85      	ittet	hi
 8004b00:	2001      	movhi	r0, #1
 8004b02:	4b07      	ldrhi	r3, [pc, #28]	@ (8004b20 <xTaskRemoveFromEventList+0x78>)
		xReturn = pdFALSE;
 8004b04:	2000      	movls	r0, #0
		xYieldPending = pdTRUE;
 8004b06:	6018      	strhi	r0, [r3, #0]
}
 8004b08:	bd38      	pop	{r3, r4, r5, pc}
		vListInsertEnd( &( xPendingReadyList ), &( pxUnblockedTCB->xEventListItem ) );
 8004b0a:	4629      	mov	r1, r5
 8004b0c:	4805      	ldr	r0, [pc, #20]	@ (8004b24 <xTaskRemoveFromEventList+0x7c>)
 8004b0e:	e7ef      	b.n	8004af0 <xTaskRemoveFromEventList+0x48>
 8004b10:	20000f30 	.word	0x20000f30
 8004b14:	20000f4c 	.word	0x20000f4c
 8004b18:	20000fc8 	.word	0x20000fc8
 8004b1c:	20001428 	.word	0x20001428
 8004b20:	20000f40 	.word	0x20000f40
 8004b24:	20000f84 	.word	0x20000f84

08004b28 <vTaskInternalSetTimeOutState>:
	pxTimeOut->xOverflowCount = xNumOfOverflows;
 8004b28:	4b03      	ldr	r3, [pc, #12]	@ (8004b38 <vTaskInternalSetTimeOutState+0x10>)
 8004b2a:	681b      	ldr	r3, [r3, #0]
 8004b2c:	6003      	str	r3, [r0, #0]
	pxTimeOut->xTimeOnEntering = xTickCount;
 8004b2e:	4b03      	ldr	r3, [pc, #12]	@ (8004b3c <vTaskInternalSetTimeOutState+0x14>)
 8004b30:	681b      	ldr	r3, [r3, #0]
 8004b32:	6043      	str	r3, [r0, #4]
}
 8004b34:	4770      	bx	lr
 8004b36:	bf00      	nop
 8004b38:	20000f3c 	.word	0x20000f3c
 8004b3c:	20000f50 	.word	0x20000f50

08004b40 <xTaskCheckForTimeOut>:
{
 8004b40:	b570      	push	{r4, r5, r6, lr}
 8004b42:	460c      	mov	r4, r1
	configASSERT( pxTimeOut );
 8004b44:	4605      	mov	r5, r0
 8004b46:	b940      	cbnz	r0, 8004b5a <xTaskCheckForTimeOut+0x1a>
 8004b48:	f04f 0350 	mov.w	r3, #80	@ 0x50
 8004b4c:	f383 8811 	msr	BASEPRI, r3
 8004b50:	f3bf 8f6f 	isb	sy
 8004b54:	f3bf 8f4f 	dsb	sy
 8004b58:	e7fe      	b.n	8004b58 <xTaskCheckForTimeOut+0x18>
	configASSERT( pxTicksToWait );
 8004b5a:	b941      	cbnz	r1, 8004b6e <xTaskCheckForTimeOut+0x2e>
 8004b5c:	f04f 0350 	mov.w	r3, #80	@ 0x50
 8004b60:	f383 8811 	msr	BASEPRI, r3
 8004b64:	f3bf 8f6f 	isb	sy
 8004b68:	f3bf 8f4f 	dsb	sy
 8004b6c:	e7fe      	b.n	8004b6c <xTaskCheckForTimeOut+0x2c>
	taskENTER_CRITICAL();
 8004b6e:	f000 fc11 	bl	8005394 <vPortEnterCritical>
		const TickType_t xConstTickCount = xTickCount;
 8004b72:	4b0f      	ldr	r3, [pc, #60]	@ (8004bb0 <xTaskCheckForTimeOut+0x70>)
 8004b74:	6819      	ldr	r1, [r3, #0]
			if( *pxTicksToWait == portMAX_DELAY )
 8004b76:	6823      	ldr	r3, [r4, #0]
 8004b78:	1c5a      	adds	r2, r3, #1
 8004b7a:	d010      	beq.n	8004b9e <xTaskCheckForTimeOut+0x5e>
		if( ( xNumOfOverflows != pxTimeOut->xOverflowCount ) && ( xConstTickCount >= pxTimeOut->xTimeOnEntering ) ) /*lint !e525 Indentation preferred as is to make code within pre-processor directives clearer. */
 8004b7c:	480d      	ldr	r0, [pc, #52]	@ (8004bb4 <xTaskCheckForTimeOut+0x74>)
 8004b7e:	682e      	ldr	r6, [r5, #0]
 8004b80:	6800      	ldr	r0, [r0, #0]
		const TickType_t xElapsedTime = xConstTickCount - pxTimeOut->xTimeOnEntering;
 8004b82:	686a      	ldr	r2, [r5, #4]
		if( ( xNumOfOverflows != pxTimeOut->xOverflowCount ) && ( xConstTickCount >= pxTimeOut->xTimeOnEntering ) ) /*lint !e525 Indentation preferred as is to make code within pre-processor directives clearer. */
 8004b84:	4286      	cmp	r6, r0
 8004b86:	d001      	beq.n	8004b8c <xTaskCheckForTimeOut+0x4c>
 8004b88:	428a      	cmp	r2, r1
 8004b8a:	d90f      	bls.n	8004bac <xTaskCheckForTimeOut+0x6c>
		const TickType_t xElapsedTime = xConstTickCount - pxTimeOut->xTimeOnEntering;
 8004b8c:	1a88      	subs	r0, r1, r2
		else if( xElapsedTime < *pxTicksToWait ) /*lint !e961 Explicit casting is only redundant with some compilers, whereas others require it to prevent integer conversion errors. */
 8004b8e:	4283      	cmp	r3, r0
 8004b90:	d90a      	bls.n	8004ba8 <xTaskCheckForTimeOut+0x68>
			*pxTicksToWait -= xElapsedTime;
 8004b92:	1a5b      	subs	r3, r3, r1
 8004b94:	4413      	add	r3, r2
			vTaskInternalSetTimeOutState( pxTimeOut );
 8004b96:	4628      	mov	r0, r5
			*pxTicksToWait -= xElapsedTime;
 8004b98:	6023      	str	r3, [r4, #0]
			vTaskInternalSetTimeOutState( pxTimeOut );
 8004b9a:	f7ff ffc5 	bl	8004b28 <vTaskInternalSetTimeOutState>
				xReturn = pdFALSE;
 8004b9e:	2400      	movs	r4, #0
	taskEXIT_CRITICAL();
 8004ba0:	f000 fc18 	bl	80053d4 <vPortExitCritical>
}
 8004ba4:	4620      	mov	r0, r4
 8004ba6:	bd70      	pop	{r4, r5, r6, pc}
			*pxTicksToWait = 0;
 8004ba8:	2300      	movs	r3, #0
 8004baa:	6023      	str	r3, [r4, #0]
			xReturn = pdTRUE;
 8004bac:	2401      	movs	r4, #1
 8004bae:	e7f7      	b.n	8004ba0 <xTaskCheckForTimeOut+0x60>
 8004bb0:	20000f50 	.word	0x20000f50
 8004bb4:	20000f3c 	.word	0x20000f3c

08004bb8 <vTaskMissedYield>:
	xYieldPending = pdTRUE;
 8004bb8:	2201      	movs	r2, #1
 8004bba:	4b01      	ldr	r3, [pc, #4]	@ (8004bc0 <vTaskMissedYield+0x8>)
 8004bbc:	601a      	str	r2, [r3, #0]
}
 8004bbe:	4770      	bx	lr
 8004bc0:	20000f40 	.word	0x20000f40

08004bc4 <xTaskGetCurrentTaskHandle>:
		xReturn = pxCurrentTCB;
 8004bc4:	4b01      	ldr	r3, [pc, #4]	@ (8004bcc <xTaskGetCurrentTaskHandle+0x8>)
 8004bc6:	6818      	ldr	r0, [r3, #0]
	}
 8004bc8:	4770      	bx	lr
 8004bca:	bf00      	nop
 8004bcc:	20001428 	.word	0x20001428

08004bd0 <xTaskGetSchedulerState>:
		if( xSchedulerRunning == pdFALSE )
 8004bd0:	4b05      	ldr	r3, [pc, #20]	@ (8004be8 <xTaskGetSchedulerState+0x18>)
 8004bd2:	681b      	ldr	r3, [r3, #0]
 8004bd4:	b133      	cbz	r3, 8004be4 <xTaskGetSchedulerState+0x14>
			if( uxSchedulerSuspended == ( UBaseType_t ) pdFALSE )
 8004bd6:	4b05      	ldr	r3, [pc, #20]	@ (8004bec <xTaskGetSchedulerState+0x1c>)
 8004bd8:	6818      	ldr	r0, [r3, #0]
 8004bda:	fab0 f080 	clz	r0, r0
 8004bde:	0940      	lsrs	r0, r0, #5
 8004be0:	0040      	lsls	r0, r0, #1
 8004be2:	4770      	bx	lr
			xReturn = taskSCHEDULER_NOT_STARTED;
 8004be4:	2001      	movs	r0, #1
	}
 8004be6:	4770      	bx	lr
 8004be8:	20000f48 	.word	0x20000f48
 8004bec:	20000f30 	.word	0x20000f30

08004bf0 <xTaskPriorityDisinherit>:
	{
 8004bf0:	b538      	push	{r3, r4, r5, lr}
		if( pxMutexHolder != NULL )
 8004bf2:	b908      	cbnz	r0, 8004bf8 <xTaskPriorityDisinherit+0x8>
	BaseType_t xReturn = pdFALSE;
 8004bf4:	2000      	movs	r0, #0
	}
 8004bf6:	bd38      	pop	{r3, r4, r5, pc}
			configASSERT( pxTCB == pxCurrentTCB );
 8004bf8:	4b1b      	ldr	r3, [pc, #108]	@ (8004c68 <xTaskPriorityDisinherit+0x78>)
 8004bfa:	681c      	ldr	r4, [r3, #0]
 8004bfc:	4284      	cmp	r4, r0
 8004bfe:	d008      	beq.n	8004c12 <xTaskPriorityDisinherit+0x22>
 8004c00:	f04f 0350 	mov.w	r3, #80	@ 0x50
 8004c04:	f383 8811 	msr	BASEPRI, r3
 8004c08:	f3bf 8f6f 	isb	sy
 8004c0c:	f3bf 8f4f 	dsb	sy
 8004c10:	e7fe      	b.n	8004c10 <xTaskPriorityDisinherit+0x20>
			configASSERT( pxTCB->uxMutexesHeld );
 8004c12:	6d23      	ldr	r3, [r4, #80]	@ 0x50
 8004c14:	b943      	cbnz	r3, 8004c28 <xTaskPriorityDisinherit+0x38>
 8004c16:	f04f 0350 	mov.w	r3, #80	@ 0x50
 8004c1a:	f383 8811 	msr	BASEPRI, r3
 8004c1e:	f3bf 8f6f 	isb	sy
 8004c22:	f3bf 8f4f 	dsb	sy
 8004c26:	e7fe      	b.n	8004c26 <xTaskPriorityDisinherit+0x36>
			if( pxTCB->uxPriority != pxTCB->uxBasePriority )
 8004c28:	6ae1      	ldr	r1, [r4, #44]	@ 0x2c
 8004c2a:	6ce2      	ldr	r2, [r4, #76]	@ 0x4c
			( pxTCB->uxMutexesHeld )--;
 8004c2c:	3b01      	subs	r3, #1
			if( pxTCB->uxPriority != pxTCB->uxBasePriority )
 8004c2e:	4291      	cmp	r1, r2
			( pxTCB->uxMutexesHeld )--;
 8004c30:	6523      	str	r3, [r4, #80]	@ 0x50
			if( pxTCB->uxPriority != pxTCB->uxBasePriority )
 8004c32:	d0df      	beq.n	8004bf4 <xTaskPriorityDisinherit+0x4>
				if( pxTCB->uxMutexesHeld == ( UBaseType_t ) 0 )
 8004c34:	2b00      	cmp	r3, #0
 8004c36:	d1dd      	bne.n	8004bf4 <xTaskPriorityDisinherit+0x4>
					if( uxListRemove( &( pxTCB->xStateListItem ) ) == ( UBaseType_t ) 0 )
 8004c38:	1d25      	adds	r5, r4, #4
 8004c3a:	4628      	mov	r0, r5
 8004c3c:	f7ff f846 	bl	8003ccc <uxListRemove>
					prvAddTaskToReadyList( pxTCB );
 8004c40:	2014      	movs	r0, #20
					pxTCB->uxPriority = pxTCB->uxBasePriority;
 8004c42:	6ce3      	ldr	r3, [r4, #76]	@ 0x4c
					listSET_LIST_ITEM_VALUE( &( pxTCB->xEventListItem ), ( TickType_t ) configMAX_PRIORITIES - ( TickType_t ) pxTCB->uxPriority ); /*lint !e961 MISRA exception as the casts are only redundant for some ports. */
 8004c44:	f1c3 0238 	rsb	r2, r3, #56	@ 0x38
 8004c48:	61a2      	str	r2, [r4, #24]
					prvAddTaskToReadyList( pxTCB );
 8004c4a:	4a08      	ldr	r2, [pc, #32]	@ (8004c6c <xTaskPriorityDisinherit+0x7c>)
					pxTCB->uxPriority = pxTCB->uxBasePriority;
 8004c4c:	62e3      	str	r3, [r4, #44]	@ 0x2c
					prvAddTaskToReadyList( pxTCB );
 8004c4e:	6811      	ldr	r1, [r2, #0]
 8004c50:	428b      	cmp	r3, r1
 8004c52:	bf88      	it	hi
 8004c54:	6013      	strhi	r3, [r2, #0]
 8004c56:	4a06      	ldr	r2, [pc, #24]	@ (8004c70 <xTaskPriorityDisinherit+0x80>)
 8004c58:	4629      	mov	r1, r5
 8004c5a:	fb00 2003 	mla	r0, r0, r3, r2
 8004c5e:	f7ff f813 	bl	8003c88 <vListInsertEnd>
					xReturn = pdTRUE;
 8004c62:	2001      	movs	r0, #1
		return xReturn;
 8004c64:	e7c7      	b.n	8004bf6 <xTaskPriorityDisinherit+0x6>
 8004c66:	bf00      	nop
 8004c68:	20001428 	.word	0x20001428
 8004c6c:	20000f4c 	.word	0x20000f4c
 8004c70:	20000fc8 	.word	0x20000fc8

08004c74 <xTaskNotifyWait>:
	{
 8004c74:	e92d 41f0 	stmdb	sp!, {r4, r5, r6, r7, r8, lr}
			if( pxCurrentTCB->ucNotifyState != taskNOTIFICATION_RECEIVED )
 8004c78:	4c22      	ldr	r4, [pc, #136]	@ (8004d04 <xTaskNotifyWait+0x90>)
	{
 8004c7a:	461e      	mov	r6, r3
 8004c7c:	4680      	mov	r8, r0
 8004c7e:	460f      	mov	r7, r1
 8004c80:	4615      	mov	r5, r2
		taskENTER_CRITICAL();
 8004c82:	f000 fb87 	bl	8005394 <vPortEnterCritical>
			if( pxCurrentTCB->ucNotifyState != taskNOTIFICATION_RECEIVED )
 8004c86:	6823      	ldr	r3, [r4, #0]
 8004c88:	f893 30a4 	ldrb.w	r3, [r3, #164]	@ 0xa4
 8004c8c:	2b02      	cmp	r3, #2
 8004c8e:	d018      	beq.n	8004cc2 <xTaskNotifyWait+0x4e>
				pxCurrentTCB->ucNotifyState = taskWAITING_NOTIFICATION;
 8004c90:	2101      	movs	r1, #1
				pxCurrentTCB->ulNotifiedValue &= ~ulBitsToClearOnEntry;
 8004c92:	6822      	ldr	r2, [r4, #0]
 8004c94:	f8d2 30a0 	ldr.w	r3, [r2, #160]	@ 0xa0
 8004c98:	ea23 0308 	bic.w	r3, r3, r8
 8004c9c:	f8c2 30a0 	str.w	r3, [r2, #160]	@ 0xa0
				pxCurrentTCB->ucNotifyState = taskWAITING_NOTIFICATION;
 8004ca0:	6823      	ldr	r3, [r4, #0]
 8004ca2:	f883 10a4 	strb.w	r1, [r3, #164]	@ 0xa4
				if( xTicksToWait > ( TickType_t ) 0 )
 8004ca6:	b166      	cbz	r6, 8004cc2 <xTaskNotifyWait+0x4e>
					prvAddCurrentTaskToDelayedList( xTicksToWait, pdTRUE );
 8004ca8:	4630      	mov	r0, r6
 8004caa:	f7ff fb99 	bl	80043e0 <prvAddCurrentTaskToDelayedList>
					portYIELD_WITHIN_API();
 8004cae:	f04f 23e0 	mov.w	r3, #3758153728	@ 0xe000e000
 8004cb2:	f04f 5280 	mov.w	r2, #268435456	@ 0x10000000
 8004cb6:	f8c3 2d04 	str.w	r2, [r3, #3332]	@ 0xd04
 8004cba:	f3bf 8f4f 	dsb	sy
 8004cbe:	f3bf 8f6f 	isb	sy
		taskEXIT_CRITICAL();
 8004cc2:	f000 fb87 	bl	80053d4 <vPortExitCritical>
		taskENTER_CRITICAL();
 8004cc6:	f000 fb65 	bl	8005394 <vPortEnterCritical>
			if( pulNotificationValue != NULL )
 8004cca:	b11d      	cbz	r5, 8004cd4 <xTaskNotifyWait+0x60>
				*pulNotificationValue = pxCurrentTCB->ulNotifiedValue;
 8004ccc:	6823      	ldr	r3, [r4, #0]
 8004cce:	f8d3 30a0 	ldr.w	r3, [r3, #160]	@ 0xa0
 8004cd2:	602b      	str	r3, [r5, #0]
			if( pxCurrentTCB->ucNotifyState != taskNOTIFICATION_RECEIVED )
 8004cd4:	6823      	ldr	r3, [r4, #0]
 8004cd6:	f893 30a4 	ldrb.w	r3, [r3, #164]	@ 0xa4
 8004cda:	2b02      	cmp	r3, #2
				pxCurrentTCB->ulNotifiedValue &= ~ulBitsToClearOnExit;
 8004cdc:	bf03      	ittte	eq
 8004cde:	6822      	ldreq	r2, [r4, #0]
				xReturn = pdTRUE;
 8004ce0:	2501      	moveq	r5, #1
				pxCurrentTCB->ulNotifiedValue &= ~ulBitsToClearOnExit;
 8004ce2:	f8d2 30a0 	ldreq.w	r3, [r2, #160]	@ 0xa0
				xReturn = pdFALSE;
 8004ce6:	2500      	movne	r5, #0
				pxCurrentTCB->ulNotifiedValue &= ~ulBitsToClearOnExit;
 8004ce8:	bf04      	itt	eq
 8004cea:	43bb      	biceq	r3, r7
 8004cec:	f8c2 30a0 	streq.w	r3, [r2, #160]	@ 0xa0
			pxCurrentTCB->ucNotifyState = taskNOT_WAITING_NOTIFICATION;
 8004cf0:	2200      	movs	r2, #0
 8004cf2:	6823      	ldr	r3, [r4, #0]
 8004cf4:	f883 20a4 	strb.w	r2, [r3, #164]	@ 0xa4
		taskEXIT_CRITICAL();
 8004cf8:	f000 fb6c 	bl	80053d4 <vPortExitCritical>
	}
 8004cfc:	4628      	mov	r0, r5
 8004cfe:	e8bd 81f0 	ldmia.w	sp!, {r4, r5, r6, r7, r8, pc}
 8004d02:	bf00      	nop
 8004d04:	20001428 	.word	0x20001428

08004d08 <xTaskGenericNotify>:
	{
 8004d08:	b5f8      	push	{r3, r4, r5, r6, r7, lr}
 8004d0a:	460d      	mov	r5, r1
 8004d0c:	4616      	mov	r6, r2
 8004d0e:	461f      	mov	r7, r3
		configASSERT( xTaskToNotify );
 8004d10:	4604      	mov	r4, r0
 8004d12:	b940      	cbnz	r0, 8004d26 <xTaskGenericNotify+0x1e>
 8004d14:	f04f 0350 	mov.w	r3, #80	@ 0x50
 8004d18:	f383 8811 	msr	BASEPRI, r3
 8004d1c:	f3bf 8f6f 	isb	sy
 8004d20:	f3bf 8f4f 	dsb	sy
 8004d24:	e7fe      	b.n	8004d24 <xTaskGenericNotify+0x1c>
		taskENTER_CRITICAL();
 8004d26:	f000 fb35 	bl	8005394 <vPortEnterCritical>
			if( pulPreviousNotificationValue != NULL )
 8004d2a:	b117      	cbz	r7, 8004d32 <xTaskGenericNotify+0x2a>
				*pulPreviousNotificationValue = pxTCB->ulNotifiedValue;
 8004d2c:	f8d4 30a0 	ldr.w	r3, [r4, #160]	@ 0xa0
 8004d30:	603b      	str	r3, [r7, #0]
			pxTCB->ucNotifyState = taskNOTIFICATION_RECEIVED;
 8004d32:	2202      	movs	r2, #2
			ucOriginalNotifyState = pxTCB->ucNotifyState;
 8004d34:	f894 30a4 	ldrb.w	r3, [r4, #164]	@ 0xa4
			pxTCB->ucNotifyState = taskNOTIFICATION_RECEIVED;
 8004d38:	f884 20a4 	strb.w	r2, [r4, #164]	@ 0xa4
			ucOriginalNotifyState = pxTCB->ucNotifyState;
 8004d3c:	b2db      	uxtb	r3, r3
			switch( eAction )
 8004d3e:	2e04      	cmp	r6, #4
 8004d40:	d830      	bhi.n	8004da4 <xTaskGenericNotify+0x9c>
 8004d42:	e8df f006 	tbb	[pc, r6]
 8004d46:	0308      	.short	0x0308
 8004d48:	2c26      	.short	0x2c26
 8004d4a:	2a          	.byte	0x2a
 8004d4b:	00          	.byte	0x00
					pxTCB->ulNotifiedValue |= ulValue;
 8004d4c:	f8d4 20a0 	ldr.w	r2, [r4, #160]	@ 0xa0
 8004d50:	432a      	orrs	r2, r5
					( pxTCB->ulNotifiedValue )++;
 8004d52:	f8c4 20a0 	str.w	r2, [r4, #160]	@ 0xa0
			if( ucOriginalNotifyState == taskWAITING_NOTIFICATION )
 8004d56:	2b01      	cmp	r3, #1
 8004d58:	d141      	bne.n	8004dde <xTaskGenericNotify+0xd6>
				( void ) uxListRemove( &( pxTCB->xStateListItem ) );
 8004d5a:	1d25      	adds	r5, r4, #4
 8004d5c:	4628      	mov	r0, r5
 8004d5e:	f7fe ffb5 	bl	8003ccc <uxListRemove>
				prvAddTaskToReadyList( pxTCB );
 8004d62:	2014      	movs	r0, #20
 8004d64:	4a21      	ldr	r2, [pc, #132]	@ (8004dec <xTaskGenericNotify+0xe4>)
 8004d66:	6ae3      	ldr	r3, [r4, #44]	@ 0x2c
 8004d68:	6811      	ldr	r1, [r2, #0]
 8004d6a:	428b      	cmp	r3, r1
 8004d6c:	bf88      	it	hi
 8004d6e:	6013      	strhi	r3, [r2, #0]
 8004d70:	4a1f      	ldr	r2, [pc, #124]	@ (8004df0 <xTaskGenericNotify+0xe8>)
 8004d72:	4629      	mov	r1, r5
 8004d74:	fb00 2003 	mla	r0, r0, r3, r2
 8004d78:	f7fe ff86 	bl	8003c88 <vListInsertEnd>
				configASSERT( listLIST_ITEM_CONTAINER( &( pxTCB->xEventListItem ) ) == NULL );
 8004d7c:	6aa3      	ldr	r3, [r4, #40]	@ 0x28
 8004d7e:	b1f3      	cbz	r3, 8004dbe <xTaskGenericNotify+0xb6>
 8004d80:	f04f 0350 	mov.w	r3, #80	@ 0x50
 8004d84:	f383 8811 	msr	BASEPRI, r3
 8004d88:	f3bf 8f6f 	isb	sy
 8004d8c:	f3bf 8f4f 	dsb	sy
 8004d90:	e7fe      	b.n	8004d90 <xTaskGenericNotify+0x88>
					( pxTCB->ulNotifiedValue )++;
 8004d92:	f8d4 20a0 	ldr.w	r2, [r4, #160]	@ 0xa0
 8004d96:	3201      	adds	r2, #1
 8004d98:	e7db      	b.n	8004d52 <xTaskGenericNotify+0x4a>
					if( ucOriginalNotifyState != taskNOTIFICATION_RECEIVED )
 8004d9a:	2b02      	cmp	r3, #2
 8004d9c:	d024      	beq.n	8004de8 <xTaskGenericNotify+0xe0>
						pxTCB->ulNotifiedValue = ulValue;
 8004d9e:	f8c4 50a0 	str.w	r5, [r4, #160]	@ 0xa0
 8004da2:	e7d8      	b.n	8004d56 <xTaskGenericNotify+0x4e>
					configASSERT( pxTCB->ulNotifiedValue == ~0UL );
 8004da4:	f8d4 20a0 	ldr.w	r2, [r4, #160]	@ 0xa0
 8004da8:	3201      	adds	r2, #1
 8004daa:	d0d4      	beq.n	8004d56 <xTaskGenericNotify+0x4e>
 8004dac:	f04f 0350 	mov.w	r3, #80	@ 0x50
 8004db0:	f383 8811 	msr	BASEPRI, r3
 8004db4:	f3bf 8f6f 	isb	sy
 8004db8:	f3bf 8f4f 	dsb	sy
 8004dbc:	e7fe      	b.n	8004dbc <xTaskGenericNotify+0xb4>
				if( pxTCB->uxPriority > pxCurrentTCB->uxPriority )
 8004dbe:	4b0d      	ldr	r3, [pc, #52]	@ (8004df4 <xTaskGenericNotify+0xec>)
 8004dc0:	6ae2      	ldr	r2, [r4, #44]	@ 0x2c
 8004dc2:	681b      	ldr	r3, [r3, #0]
 8004dc4:	6adb      	ldr	r3, [r3, #44]	@ 0x2c
 8004dc6:	429a      	cmp	r2, r3
 8004dc8:	d909      	bls.n	8004dde <xTaskGenericNotify+0xd6>
					taskYIELD_IF_USING_PREEMPTION();
 8004dca:	f04f 23e0 	mov.w	r3, #3758153728	@ 0xe000e000
 8004dce:	f04f 5280 	mov.w	r2, #268435456	@ 0x10000000
 8004dd2:	f8c3 2d04 	str.w	r2, [r3, #3332]	@ 0xd04
 8004dd6:	f3bf 8f4f 	dsb	sy
 8004dda:	f3bf 8f6f 	isb	sy
	{
 8004dde:	2401      	movs	r4, #1
		taskEXIT_CRITICAL();
 8004de0:	f000 faf8 	bl	80053d4 <vPortExitCritical>
	}
 8004de4:	4620      	mov	r0, r4
 8004de6:	bdf8      	pop	{r3, r4, r5, r6, r7, pc}
						xReturn = pdFAIL;
 8004de8:	2400      	movs	r4, #0
 8004dea:	e7f9      	b.n	8004de0 <xTaskGenericNotify+0xd8>
 8004dec:	20000f4c 	.word	0x20000f4c
 8004df0:	20000fc8 	.word	0x20000fc8
 8004df4:	20001428 	.word	0x20001428

08004df8 <xTaskGenericNotifyFromISR>:
	{
 8004df8:	e92d 43f8 	stmdb	sp!, {r3, r4, r5, r6, r7, r8, r9, lr}
 8004dfc:	f8dd 8020 	ldr.w	r8, [sp, #32]
 8004e00:	460d      	mov	r5, r1
 8004e02:	4616      	mov	r6, r2
 8004e04:	461f      	mov	r7, r3
		configASSERT( xTaskToNotify );
 8004e06:	4604      	mov	r4, r0
 8004e08:	b940      	cbnz	r0, 8004e1c <xTaskGenericNotifyFromISR+0x24>
 8004e0a:	f04f 0350 	mov.w	r3, #80	@ 0x50
 8004e0e:	f383 8811 	msr	BASEPRI, r3
 8004e12:	f3bf 8f6f 	isb	sy
 8004e16:	f3bf 8f4f 	dsb	sy
 8004e1a:	e7fe      	b.n	8004e1a <xTaskGenericNotifyFromISR+0x22>
		portASSERT_IF_INTERRUPT_PRIORITY_INVALID();
 8004e1c:	f000 fb92 	bl	8005544 <vPortValidateInterruptPriority>
	__asm volatile
 8004e20:	f3ef 8911 	mrs	r9, BASEPRI
 8004e24:	f04f 0350 	mov.w	r3, #80	@ 0x50
 8004e28:	f383 8811 	msr	BASEPRI, r3
 8004e2c:	f3bf 8f6f 	isb	sy
 8004e30:	f3bf 8f4f 	dsb	sy
			if( pulPreviousNotificationValue != NULL )
 8004e34:	b117      	cbz	r7, 8004e3c <xTaskGenericNotifyFromISR+0x44>
				*pulPreviousNotificationValue = pxTCB->ulNotifiedValue;
 8004e36:	f8d4 30a0 	ldr.w	r3, [r4, #160]	@ 0xa0
 8004e3a:	603b      	str	r3, [r7, #0]
			pxTCB->ucNotifyState = taskNOTIFICATION_RECEIVED;
 8004e3c:	2202      	movs	r2, #2
			ucOriginalNotifyState = pxTCB->ucNotifyState;
 8004e3e:	f894 30a4 	ldrb.w	r3, [r4, #164]	@ 0xa4
			pxTCB->ucNotifyState = taskNOTIFICATION_RECEIVED;
 8004e42:	f884 20a4 	strb.w	r2, [r4, #164]	@ 0xa4
			ucOriginalNotifyState = pxTCB->ucNotifyState;
 8004e46:	b2db      	uxtb	r3, r3
			switch( eAction )
 8004e48:	2e04      	cmp	r6, #4
 8004e4a:	d81f      	bhi.n	8004e8c <xTaskGenericNotifyFromISR+0x94>
 8004e4c:	e8df f006 	tbb	[pc, r6]
 8004e50:	1b150308 	.word	0x1b150308
 8004e54:	19          	.byte	0x19
 8004e55:	00          	.byte	0x00
					pxTCB->ulNotifiedValue |= ulValue;
 8004e56:	f8d4 20a0 	ldr.w	r2, [r4, #160]	@ 0xa0
 8004e5a:	432a      	orrs	r2, r5
					( pxTCB->ulNotifiedValue )++;
 8004e5c:	f8c4 20a0 	str.w	r2, [r4, #160]	@ 0xa0
			if( ucOriginalNotifyState == taskWAITING_NOTIFICATION )
 8004e60:	2b01      	cmp	r3, #1
 8004e62:	d142      	bne.n	8004eea <xTaskGenericNotifyFromISR+0xf2>
				configASSERT( listLIST_ITEM_CONTAINER( &( pxTCB->xEventListItem ) ) == NULL );
 8004e64:	6aa3      	ldr	r3, [r4, #40]	@ 0x28
 8004e66:	b1f3      	cbz	r3, 8004ea6 <xTaskGenericNotifyFromISR+0xae>
	__asm volatile
 8004e68:	f04f 0350 	mov.w	r3, #80	@ 0x50
 8004e6c:	f383 8811 	msr	BASEPRI, r3
 8004e70:	f3bf 8f6f 	isb	sy
 8004e74:	f3bf 8f4f 	dsb	sy
 8004e78:	e7fe      	b.n	8004e78 <xTaskGenericNotifyFromISR+0x80>
					( pxTCB->ulNotifiedValue )++;
 8004e7a:	f8d4 20a0 	ldr.w	r2, [r4, #160]	@ 0xa0
 8004e7e:	3201      	adds	r2, #1
 8004e80:	e7ec      	b.n	8004e5c <xTaskGenericNotifyFromISR+0x64>
					if( ucOriginalNotifyState != taskNOTIFICATION_RECEIVED )
 8004e82:	2b02      	cmp	r3, #2
 8004e84:	d03a      	beq.n	8004efc <xTaskGenericNotifyFromISR+0x104>
						pxTCB->ulNotifiedValue = ulValue;
 8004e86:	f8c4 50a0 	str.w	r5, [r4, #160]	@ 0xa0
 8004e8a:	e7e9      	b.n	8004e60 <xTaskGenericNotifyFromISR+0x68>
					configASSERT( pxTCB->ulNotifiedValue == ~0UL );
 8004e8c:	f8d4 20a0 	ldr.w	r2, [r4, #160]	@ 0xa0
 8004e90:	3201      	adds	r2, #1
 8004e92:	d0e5      	beq.n	8004e60 <xTaskGenericNotifyFromISR+0x68>
 8004e94:	f04f 0350 	mov.w	r3, #80	@ 0x50
 8004e98:	f383 8811 	msr	BASEPRI, r3
 8004e9c:	f3bf 8f6f 	isb	sy
 8004ea0:	f3bf 8f4f 	dsb	sy
 8004ea4:	e7fe      	b.n	8004ea4 <xTaskGenericNotifyFromISR+0xac>
				if( uxSchedulerSuspended == ( UBaseType_t ) pdFALSE )
 8004ea6:	4b16      	ldr	r3, [pc, #88]	@ (8004f00 <xTaskGenericNotifyFromISR+0x108>)
 8004ea8:	681b      	ldr	r3, [r3, #0]
 8004eaa:	bb1b      	cbnz	r3, 8004ef4 <xTaskGenericNotifyFromISR+0xfc>
					( void ) uxListRemove( &( pxTCB->xStateListItem ) );
 8004eac:	1d25      	adds	r5, r4, #4
 8004eae:	4628      	mov	r0, r5
 8004eb0:	f7fe ff0c 	bl	8003ccc <uxListRemove>
					prvAddTaskToReadyList( pxTCB );
 8004eb4:	4a13      	ldr	r2, [pc, #76]	@ (8004f04 <xTaskGenericNotifyFromISR+0x10c>)
 8004eb6:	2014      	movs	r0, #20
 8004eb8:	6811      	ldr	r1, [r2, #0]
 8004eba:	6ae3      	ldr	r3, [r4, #44]	@ 0x2c
 8004ebc:	428b      	cmp	r3, r1
 8004ebe:	4629      	mov	r1, r5
 8004ec0:	bf88      	it	hi
 8004ec2:	6013      	strhi	r3, [r2, #0]
 8004ec4:	4a10      	ldr	r2, [pc, #64]	@ (8004f08 <xTaskGenericNotifyFromISR+0x110>)
 8004ec6:	fb00 2003 	mla	r0, r0, r3, r2
					vListInsertEnd( &( xPendingReadyList ), &( pxTCB->xEventListItem ) );
 8004eca:	f7fe fedd 	bl	8003c88 <vListInsertEnd>
				if( pxTCB->uxPriority > pxCurrentTCB->uxPriority )
 8004ece:	4b0f      	ldr	r3, [pc, #60]	@ (8004f0c <xTaskGenericNotifyFromISR+0x114>)
 8004ed0:	6ae2      	ldr	r2, [r4, #44]	@ 0x2c
 8004ed2:	681b      	ldr	r3, [r3, #0]
 8004ed4:	6adb      	ldr	r3, [r3, #44]	@ 0x2c
 8004ed6:	429a      	cmp	r2, r3
 8004ed8:	d907      	bls.n	8004eea <xTaskGenericNotifyFromISR+0xf2>
					if( pxHigherPriorityTaskWoken != NULL )
 8004eda:	2301      	movs	r3, #1
 8004edc:	f1b8 0f00 	cmp.w	r8, #0
 8004ee0:	d001      	beq.n	8004ee6 <xTaskGenericNotifyFromISR+0xee>
						*pxHigherPriorityTaskWoken = pdTRUE;
 8004ee2:	f8c8 3000 	str.w	r3, [r8]
					xYieldPending = pdTRUE;
 8004ee6:	4a0a      	ldr	r2, [pc, #40]	@ (8004f10 <xTaskGenericNotifyFromISR+0x118>)
 8004ee8:	6013      	str	r3, [r2, #0]
	{
 8004eea:	2001      	movs	r0, #1
	__asm volatile
 8004eec:	f389 8811 	msr	BASEPRI, r9
	}
 8004ef0:	e8bd 83f8 	ldmia.w	sp!, {r3, r4, r5, r6, r7, r8, r9, pc}
					vListInsertEnd( &( xPendingReadyList ), &( pxTCB->xEventListItem ) );
 8004ef4:	4807      	ldr	r0, [pc, #28]	@ (8004f14 <xTaskGenericNotifyFromISR+0x11c>)
 8004ef6:	f104 0118 	add.w	r1, r4, #24
 8004efa:	e7e6      	b.n	8004eca <xTaskGenericNotifyFromISR+0xd2>
						xReturn = pdFAIL;
 8004efc:	2000      	movs	r0, #0
 8004efe:	e7f5      	b.n	8004eec <xTaskGenericNotifyFromISR+0xf4>
 8004f00:	20000f30 	.word	0x20000f30
 8004f04:	20000f4c 	.word	0x20000f4c
 8004f08:	20000fc8 	.word	0x20000fc8
 8004f0c:	20001428 	.word	0x20001428
 8004f10:	20000f40 	.word	0x20000f40
 8004f14:	20000f84 	.word	0x20000f84

08004f18 <prvInsertTimerInActiveList>:
BaseType_t xProcessTimerNow = pdFALSE;

	listSET_LIST_ITEM_VALUE( &( pxTimer->xTimerListItem ), xNextExpiryTime );
	listSET_LIST_ITEM_OWNER( &( pxTimer->xTimerListItem ), pxTimer );

	if( xNextExpiryTime <= xTimeNow )
 8004f18:	4291      	cmp	r1, r2
{
 8004f1a:	b508      	push	{r3, lr}
	listSET_LIST_ITEM_VALUE( &( pxTimer->xTimerListItem ), xNextExpiryTime );
 8004f1c:	6041      	str	r1, [r0, #4]
	listSET_LIST_ITEM_OWNER( &( pxTimer->xTimerListItem ), pxTimer );
 8004f1e:	6100      	str	r0, [r0, #16]
	if( xNextExpiryTime <= xTimeNow )
 8004f20:	d80a      	bhi.n	8004f38 <prvInsertTimerInActiveList+0x20>
	{
		/* Has the expiry time elapsed between the command to start/reset a
		timer was issued, and the time the command was processed? */
		if( ( ( TickType_t ) ( xTimeNow - xCommandTime ) ) >= pxTimer->xTimerPeriodInTicks ) /*lint !e961 MISRA exception as the casts are only redundant for some ports. */
 8004f22:	1ad2      	subs	r2, r2, r3
 8004f24:	6983      	ldr	r3, [r0, #24]
 8004f26:	429a      	cmp	r2, r3
 8004f28:	d20d      	bcs.n	8004f46 <prvInsertTimerInActiveList+0x2e>
			processed actually exceeds the timers period.  */
			xProcessTimerNow = pdTRUE;
		}
		else
		{
			vListInsert( pxOverflowTimerList, &( pxTimer->xTimerListItem ) );
 8004f2a:	4b08      	ldr	r3, [pc, #32]	@ (8004f4c <prvInsertTimerInActiveList+0x34>)
 8004f2c:	1d01      	adds	r1, r0, #4
			its expiry time and should be processed immediately. */
			xProcessTimerNow = pdTRUE;
		}
		else
		{
			vListInsert( pxCurrentTimerList, &( pxTimer->xTimerListItem ) );
 8004f2e:	6818      	ldr	r0, [r3, #0]
 8004f30:	f7fe feb5 	bl	8003c9e <vListInsert>
BaseType_t xProcessTimerNow = pdFALSE;
 8004f34:	2000      	movs	r0, #0
		}
	}

	return xProcessTimerNow;
}
 8004f36:	bd08      	pop	{r3, pc}
		if( ( xTimeNow < xCommandTime ) && ( xNextExpiryTime >= xCommandTime ) )
 8004f38:	429a      	cmp	r2, r3
 8004f3a:	d201      	bcs.n	8004f40 <prvInsertTimerInActiveList+0x28>
 8004f3c:	4299      	cmp	r1, r3
 8004f3e:	d202      	bcs.n	8004f46 <prvInsertTimerInActiveList+0x2e>
			vListInsert( pxCurrentTimerList, &( pxTimer->xTimerListItem ) );
 8004f40:	4b03      	ldr	r3, [pc, #12]	@ (8004f50 <prvInsertTimerInActiveList+0x38>)
 8004f42:	1d01      	adds	r1, r0, #4
 8004f44:	e7f3      	b.n	8004f2e <prvInsertTimerInActiveList+0x16>
			xProcessTimerNow = pdTRUE;
 8004f46:	2001      	movs	r0, #1
	return xProcessTimerNow;
 8004f48:	e7f5      	b.n	8004f36 <prvInsertTimerInActiveList+0x1e>
 8004f4a:	bf00      	nop
 8004f4c:	20001528 	.word	0x20001528
 8004f50:	2000152c 	.word	0x2000152c

08004f54 <prvCheckForValidListAndQueue>:
	pxOverflowTimerList = pxTemp;
}
/*-----------------------------------------------------------*/

static void prvCheckForValidListAndQueue( void )
{
 8004f54:	b5f7      	push	{r0, r1, r2, r4, r5, r6, r7, lr}
	/* Check that the list from which active timers are referenced, and the
	queue used to communicate with the timer service, have been
	initialised. */
	taskENTER_CRITICAL();
	{
		if( xTimerQueue == NULL )
 8004f56:	4c11      	ldr	r4, [pc, #68]	@ (8004f9c <prvCheckForValidListAndQueue+0x48>)
	taskENTER_CRITICAL();
 8004f58:	f000 fa1c 	bl	8005394 <vPortEnterCritical>
		if( xTimerQueue == NULL )
 8004f5c:	6825      	ldr	r5, [r4, #0]
 8004f5e:	b9bd      	cbnz	r5, 8004f90 <prvCheckForValidListAndQueue+0x3c>
		{
			vListInitialise( &xActiveTimerList1 );
 8004f60:	4f0f      	ldr	r7, [pc, #60]	@ (8004fa0 <prvCheckForValidListAndQueue+0x4c>)
			vListInitialise( &xActiveTimerList2 );
 8004f62:	4e10      	ldr	r6, [pc, #64]	@ (8004fa4 <prvCheckForValidListAndQueue+0x50>)
			vListInitialise( &xActiveTimerList1 );
 8004f64:	4638      	mov	r0, r7
 8004f66:	f7fe fe81 	bl	8003c6c <vListInitialise>
			vListInitialise( &xActiveTimerList2 );
 8004f6a:	4630      	mov	r0, r6
 8004f6c:	f7fe fe7e 	bl	8003c6c <vListInitialise>
			pxCurrentTimerList = &xActiveTimerList1;
 8004f70:	4b0d      	ldr	r3, [pc, #52]	@ (8004fa8 <prvCheckForValidListAndQueue+0x54>)
				/* The timer queue is allocated statically in case
				configSUPPORT_DYNAMIC_ALLOCATION is 0. */
				static StaticQueue_t xStaticTimerQueue; /*lint !e956 Ok to declare in this manner to prevent additional conditional compilation guards in other locations. */
				static uint8_t ucStaticTimerQueueStorage[ ( size_t ) configTIMER_QUEUE_LENGTH * sizeof( DaemonTaskMessage_t ) ]; /*lint !e956 Ok to declare in this manner to prevent additional conditional compilation guards in other locations. */

				xTimerQueue = xQueueCreateStatic( ( UBaseType_t ) configTIMER_QUEUE_LENGTH, ( UBaseType_t ) sizeof( DaemonTaskMessage_t ), &( ucStaticTimerQueueStorage[ 0 ] ), &xStaticTimerQueue );
 8004f72:	2110      	movs	r1, #16
			pxCurrentTimerList = &xActiveTimerList1;
 8004f74:	601f      	str	r7, [r3, #0]
			pxOverflowTimerList = &xActiveTimerList2;
 8004f76:	4b0d      	ldr	r3, [pc, #52]	@ (8004fac <prvCheckForValidListAndQueue+0x58>)
				xTimerQueue = xQueueCreateStatic( ( UBaseType_t ) configTIMER_QUEUE_LENGTH, ( UBaseType_t ) sizeof( DaemonTaskMessage_t ), &( ucStaticTimerQueueStorage[ 0 ] ), &xStaticTimerQueue );
 8004f78:	200a      	movs	r0, #10
			pxOverflowTimerList = &xActiveTimerList2;
 8004f7a:	601e      	str	r6, [r3, #0]
				xTimerQueue = xQueueCreateStatic( ( UBaseType_t ) configTIMER_QUEUE_LENGTH, ( UBaseType_t ) sizeof( DaemonTaskMessage_t ), &( ucStaticTimerQueueStorage[ 0 ] ), &xStaticTimerQueue );
 8004f7c:	4a0c      	ldr	r2, [pc, #48]	@ (8004fb0 <prvCheckForValidListAndQueue+0x5c>)
 8004f7e:	4b0d      	ldr	r3, [pc, #52]	@ (8004fb4 <prvCheckForValidListAndQueue+0x60>)
 8004f80:	9500      	str	r5, [sp, #0]
 8004f82:	f7fe ff7c 	bl	8003e7e <xQueueGenericCreateStatic>
 8004f86:	6020      	str	r0, [r4, #0]
			}
			#endif

			#if ( configQUEUE_REGISTRY_SIZE > 0 )
			{
				if( xTimerQueue != NULL )
 8004f88:	b110      	cbz	r0, 8004f90 <prvCheckForValidListAndQueue+0x3c>
				{
					vQueueAddToRegistry( xTimerQueue, "TmrQ" );
 8004f8a:	490b      	ldr	r1, [pc, #44]	@ (8004fb8 <prvCheckForValidListAndQueue+0x64>)
 8004f8c:	f7ff f972 	bl	8004274 <vQueueAddToRegistry>
		{
			mtCOVERAGE_TEST_MARKER();
		}
	}
	taskEXIT_CRITICAL();
}
 8004f90:	b003      	add	sp, #12
 8004f92:	e8bd 40f0 	ldmia.w	sp!, {r4, r5, r6, r7, lr}
	taskEXIT_CRITICAL();
 8004f96:	f000 ba1d 	b.w	80053d4 <vPortExitCritical>
 8004f9a:	bf00      	nop
 8004f9c:	20001524 	.word	0x20001524
 8004fa0:	20001544 	.word	0x20001544
 8004fa4:	20001530 	.word	0x20001530
 8004fa8:	2000152c 	.word	0x2000152c
 8004fac:	20001528 	.word	0x20001528
 8004fb0:	2000147c 	.word	0x2000147c
 8004fb4:	2000142c 	.word	0x2000142c
 8004fb8:	080070e5 	.word	0x080070e5

08004fbc <xTimerCreateTimerTask>:
{
 8004fbc:	b510      	push	{r4, lr}
 8004fbe:	b088      	sub	sp, #32
	prvCheckForValidListAndQueue();
 8004fc0:	f7ff ffc8 	bl	8004f54 <prvCheckForValidListAndQueue>
	if( xTimerQueue != NULL )
 8004fc4:	4b12      	ldr	r3, [pc, #72]	@ (8005010 <xTimerCreateTimerTask+0x54>)
 8004fc6:	681b      	ldr	r3, [r3, #0]
 8004fc8:	b1b3      	cbz	r3, 8004ff8 <xTimerCreateTimerTask+0x3c>
			StaticTask_t *pxTimerTaskTCBBuffer = NULL;
 8004fca:	2400      	movs	r4, #0
			vApplicationGetTimerTaskMemory( &pxTimerTaskTCBBuffer, &pxTimerTaskStackBuffer, &ulTimerTaskStackSize );
 8004fcc:	aa07      	add	r2, sp, #28
 8004fce:	a906      	add	r1, sp, #24
 8004fd0:	a805      	add	r0, sp, #20
			StackType_t *pxTimerTaskStackBuffer = NULL;
 8004fd2:	e9cd 4405 	strd	r4, r4, [sp, #20]
			vApplicationGetTimerTaskMemory( &pxTimerTaskTCBBuffer, &pxTimerTaskStackBuffer, &ulTimerTaskStackSize );
 8004fd6:	f7fe fe3d 	bl	8003c54 <vApplicationGetTimerTaskMemory>
			xTimerTaskHandle = xTaskCreateStatic(	prvTimerTask,
 8004fda:	9b05      	ldr	r3, [sp, #20]
 8004fdc:	9a07      	ldr	r2, [sp, #28]
 8004fde:	9302      	str	r3, [sp, #8]
 8004fe0:	9b06      	ldr	r3, [sp, #24]
 8004fe2:	490c      	ldr	r1, [pc, #48]	@ (8005014 <xTimerCreateTimerTask+0x58>)
 8004fe4:	9301      	str	r3, [sp, #4]
 8004fe6:	2302      	movs	r3, #2
 8004fe8:	480b      	ldr	r0, [pc, #44]	@ (8005018 <xTimerCreateTimerTask+0x5c>)
 8004fea:	9300      	str	r3, [sp, #0]
 8004fec:	4623      	mov	r3, r4
 8004fee:	f7ff faeb 	bl	80045c8 <xTaskCreateStatic>
 8004ff2:	4b0a      	ldr	r3, [pc, #40]	@ (800501c <xTimerCreateTimerTask+0x60>)
 8004ff4:	6018      	str	r0, [r3, #0]
			if( xTimerTaskHandle != NULL )
 8004ff6:	b940      	cbnz	r0, 800500a <xTimerCreateTimerTask+0x4e>
	__asm volatile
 8004ff8:	f04f 0350 	mov.w	r3, #80	@ 0x50
 8004ffc:	f383 8811 	msr	BASEPRI, r3
 8005000:	f3bf 8f6f 	isb	sy
 8005004:	f3bf 8f4f 	dsb	sy
	configASSERT( xReturn );
 8005008:	e7fe      	b.n	8005008 <xTimerCreateTimerTask+0x4c>
}
 800500a:	2001      	movs	r0, #1
 800500c:	b008      	add	sp, #32
 800500e:	bd10      	pop	{r4, pc}
 8005010:	20001524 	.word	0x20001524
 8005014:	080070ea 	.word	0x080070ea
 8005018:	0800511d 	.word	0x0800511d
 800501c:	20001520 	.word	0x20001520

08005020 <xTimerGenericCommand>:
{
 8005020:	b57f      	push	{r0, r1, r2, r3, r4, r5, r6, lr}
 8005022:	4616      	mov	r6, r2
	configASSERT( xTimer );
 8005024:	4604      	mov	r4, r0
{
 8005026:	461a      	mov	r2, r3
	configASSERT( xTimer );
 8005028:	b940      	cbnz	r0, 800503c <xTimerGenericCommand+0x1c>
 800502a:	f04f 0350 	mov.w	r3, #80	@ 0x50
 800502e:	f383 8811 	msr	BASEPRI, r3
 8005032:	f3bf 8f6f 	isb	sy
 8005036:	f3bf 8f4f 	dsb	sy
 800503a:	e7fe      	b.n	800503a <xTimerGenericCommand+0x1a>
	if( xTimerQueue != NULL )
 800503c:	4d0d      	ldr	r5, [pc, #52]	@ (8005074 <xTimerGenericCommand+0x54>)
 800503e:	6828      	ldr	r0, [r5, #0]
 8005040:	b180      	cbz	r0, 8005064 <xTimerGenericCommand+0x44>
		if( xCommandID < tmrFIRST_FROM_ISR_COMMAND )
 8005042:	2905      	cmp	r1, #5
		xMessage.u.xTimerParameters.xMessageValue = xOptionalValue;
 8005044:	e9cd 1600 	strd	r1, r6, [sp]
		xMessage.u.xTimerParameters.pxTimer = xTimer;
 8005048:	9402      	str	r4, [sp, #8]
		if( xCommandID < tmrFIRST_FROM_ISR_COMMAND )
 800504a:	dc0d      	bgt.n	8005068 <xTimerGenericCommand+0x48>
			if( xTaskGetSchedulerState() == taskSCHEDULER_RUNNING )
 800504c:	f7ff fdc0 	bl	8004bd0 <xTaskGetSchedulerState>
				xReturn = xQueueSendToBack( xTimerQueue, &xMessage, xTicksToWait );
 8005050:	2300      	movs	r3, #0
			if( xTaskGetSchedulerState() == taskSCHEDULER_RUNNING )
 8005052:	2802      	cmp	r0, #2
				xReturn = xQueueSendToBack( xTimerQueue, &xMessage, tmrNO_DELAY );
 8005054:	bf18      	it	ne
 8005056:	461a      	movne	r2, r3
 8005058:	4669      	mov	r1, sp
				xReturn = xQueueSendToBack( xTimerQueue, &xMessage, xTicksToWait );
 800505a:	bf08      	it	eq
 800505c:	9a08      	ldreq	r2, [sp, #32]
				xReturn = xQueueSendToBack( xTimerQueue, &xMessage, tmrNO_DELAY );
 800505e:	6828      	ldr	r0, [r5, #0]
 8005060:	f7fe ff5b 	bl	8003f1a <xQueueGenericSend>
}
 8005064:	b004      	add	sp, #16
 8005066:	bd70      	pop	{r4, r5, r6, pc}
			xReturn = xQueueSendToBackFromISR( xTimerQueue, &xMessage, pxHigherPriorityTaskWoken );
 8005068:	2300      	movs	r3, #0
 800506a:	4669      	mov	r1, sp
 800506c:	f7ff f807 	bl	800407e <xQueueGenericSendFromISR>
 8005070:	e7f8      	b.n	8005064 <xTimerGenericCommand+0x44>
 8005072:	bf00      	nop
 8005074:	20001524 	.word	0x20001524

08005078 <prvSampleTimeNow>:
{
 8005078:	e92d 47f3 	stmdb	sp!, {r0, r1, r4, r5, r6, r7, r8, r9, sl, lr}
 800507c:	4606      	mov	r6, r0
	xTimeNow = xTaskGetTickCount();
 800507e:	f7ff fb61 	bl	8004744 <xTaskGetTickCount>
	if( xTimeNow < xLastTime )
 8005082:	f8df 808c 	ldr.w	r8, [pc, #140]	@ 8005110 <prvSampleTimeNow+0x98>
	xTimeNow = xTaskGetTickCount();
 8005086:	4605      	mov	r5, r0
	if( xTimeNow < xLastTime )
 8005088:	f8d8 3000 	ldr.w	r3, [r8]
 800508c:	4283      	cmp	r3, r0
 800508e:	d909      	bls.n	80050a4 <prvSampleTimeNow+0x2c>
	while( listLIST_IS_EMPTY( pxCurrentTimerList ) == pdFALSE )
 8005090:	4f20      	ldr	r7, [pc, #128]	@ (8005114 <prvSampleTimeNow+0x9c>)
 8005092:	683b      	ldr	r3, [r7, #0]
 8005094:	681a      	ldr	r2, [r3, #0]
 8005096:	b96a      	cbnz	r2, 80050b4 <prvSampleTimeNow+0x3c>
	pxCurrentTimerList = pxOverflowTimerList;
 8005098:	4a1f      	ldr	r2, [pc, #124]	@ (8005118 <prvSampleTimeNow+0xa0>)
 800509a:	6811      	ldr	r1, [r2, #0]
	pxOverflowTimerList = pxTemp;
 800509c:	6013      	str	r3, [r2, #0]
	pxCurrentTimerList = pxOverflowTimerList;
 800509e:	6039      	str	r1, [r7, #0]
		*pxTimerListsWereSwitched = pdTRUE;
 80050a0:	2301      	movs	r3, #1
 80050a2:	e000      	b.n	80050a6 <prvSampleTimeNow+0x2e>
 80050a4:	2300      	movs	r3, #0
}
 80050a6:	4628      	mov	r0, r5
		*pxTimerListsWereSwitched = pdTRUE;
 80050a8:	6033      	str	r3, [r6, #0]
	xLastTime = xTimeNow;
 80050aa:	f8c8 5000 	str.w	r5, [r8]
}
 80050ae:	b002      	add	sp, #8
 80050b0:	e8bd 87f0 	ldmia.w	sp!, {r4, r5, r6, r7, r8, r9, sl, pc}
		xNextExpireTime = listGET_ITEM_VALUE_OF_HEAD_ENTRY( pxCurrentTimerList );
 80050b4:	68db      	ldr	r3, [r3, #12]
		pxTimer = ( Timer_t * ) listGET_OWNER_OF_HEAD_ENTRY( pxCurrentTimerList ); /*lint !e9087 !e9079 void * is used as this macro is used with tasks and co-routines too.  Alignment is known to be fine as the type of the pointer stored and retrieved is the same. */
 80050b6:	68dc      	ldr	r4, [r3, #12]
		xNextExpireTime = listGET_ITEM_VALUE_OF_HEAD_ENTRY( pxCurrentTimerList );
 80050b8:	f8d3 9000 	ldr.w	r9, [r3]
		( void ) uxListRemove( &( pxTimer->xTimerListItem ) );
 80050bc:	f104 0a04 	add.w	sl, r4, #4
 80050c0:	4650      	mov	r0, sl
 80050c2:	f7fe fe03 	bl	8003ccc <uxListRemove>
		pxTimer->pxCallbackFunction( ( TimerHandle_t ) pxTimer );
 80050c6:	6a23      	ldr	r3, [r4, #32]
 80050c8:	4620      	mov	r0, r4
 80050ca:	4798      	blx	r3
		if( ( pxTimer->ucStatus & tmrSTATUS_IS_AUTORELOAD ) != 0 )
 80050cc:	f894 3028 	ldrb.w	r3, [r4, #40]	@ 0x28
 80050d0:	075b      	lsls	r3, r3, #29
 80050d2:	d5de      	bpl.n	8005092 <prvSampleTimeNow+0x1a>
			xReloadTime = ( xNextExpireTime + pxTimer->xTimerPeriodInTicks );
 80050d4:	69a3      	ldr	r3, [r4, #24]
 80050d6:	444b      	add	r3, r9
			if( xReloadTime > xNextExpireTime )
 80050d8:	4599      	cmp	r9, r3
 80050da:	d206      	bcs.n	80050ea <prvSampleTimeNow+0x72>
				vListInsert( pxCurrentTimerList, &( pxTimer->xTimerListItem ) );
 80050dc:	4651      	mov	r1, sl
 80050de:	6838      	ldr	r0, [r7, #0]
				listSET_LIST_ITEM_VALUE( &( pxTimer->xTimerListItem ), xReloadTime );
 80050e0:	6063      	str	r3, [r4, #4]
				listSET_LIST_ITEM_OWNER( &( pxTimer->xTimerListItem ), pxTimer );
 80050e2:	6124      	str	r4, [r4, #16]
				vListInsert( pxCurrentTimerList, &( pxTimer->xTimerListItem ) );
 80050e4:	f7fe fddb 	bl	8003c9e <vListInsert>
 80050e8:	e7d3      	b.n	8005092 <prvSampleTimeNow+0x1a>
				xResult = xTimerGenericCommand( pxTimer, tmrCOMMAND_START_DONT_TRACE, xNextExpireTime, NULL, tmrNO_DELAY );
 80050ea:	2300      	movs	r3, #0
 80050ec:	464a      	mov	r2, r9
 80050ee:	4619      	mov	r1, r3
 80050f0:	4620      	mov	r0, r4
 80050f2:	9300      	str	r3, [sp, #0]
 80050f4:	f7ff ff94 	bl	8005020 <xTimerGenericCommand>
				configASSERT( xResult );
 80050f8:	2800      	cmp	r0, #0
 80050fa:	d1ca      	bne.n	8005092 <prvSampleTimeNow+0x1a>
 80050fc:	f04f 0350 	mov.w	r3, #80	@ 0x50
 8005100:	f383 8811 	msr	BASEPRI, r3
 8005104:	f3bf 8f6f 	isb	sy
 8005108:	f3bf 8f4f 	dsb	sy
 800510c:	e7fe      	b.n	800510c <prvSampleTimeNow+0x94>
 800510e:	bf00      	nop
 8005110:	2000151c 	.word	0x2000151c
 8005114:	2000152c 	.word	0x2000152c
 8005118:	20001528 	.word	0x20001528

0800511c <prvTimerTask>:
{
 800511c:	e92d 43f0 	stmdb	sp!, {r4, r5, r6, r7, r8, r9, lr}
	*pxListWasEmpty = listLIST_IS_EMPTY( pxCurrentTimerList );
 8005120:	4d6e      	ldr	r5, [pc, #440]	@ (80052dc <prvTimerTask+0x1c0>)
				vQueueWaitForMessageRestricted( xTimerQueue, ( xNextExpireTime - xTimeNow ), xListWasEmpty );
 8005122:	4e6f      	ldr	r6, [pc, #444]	@ (80052e0 <prvTimerTask+0x1c4>)
{
 8005124:	b089      	sub	sp, #36	@ 0x24
	*pxListWasEmpty = listLIST_IS_EMPTY( pxCurrentTimerList );
 8005126:	682b      	ldr	r3, [r5, #0]
 8005128:	f8d3 8000 	ldr.w	r8, [r3]
 800512c:	f1b8 0f00 	cmp.w	r8, #0
 8005130:	d035      	beq.n	800519e <prvTimerTask+0x82>
 8005132:	2400      	movs	r4, #0
		xNextExpireTime = listGET_ITEM_VALUE_OF_HEAD_ENTRY( pxCurrentTimerList );
 8005134:	68db      	ldr	r3, [r3, #12]
 8005136:	f8d3 8000 	ldr.w	r8, [r3]
	vTaskSuspendAll();
 800513a:	f7ff fafb 	bl	8004734 <vTaskSuspendAll>
		xTimeNow = prvSampleTimeNow( &xTimerListsWereSwitched );
 800513e:	a804      	add	r0, sp, #16
 8005140:	f7ff ff9a 	bl	8005078 <prvSampleTimeNow>
		if( xTimerListsWereSwitched == pdFALSE )
 8005144:	9b04      	ldr	r3, [sp, #16]
		xTimeNow = prvSampleTimeNow( &xTimerListsWereSwitched );
 8005146:	4681      	mov	r9, r0
		if( xTimerListsWereSwitched == pdFALSE )
 8005148:	2b00      	cmp	r3, #0
 800514a:	d169      	bne.n	8005220 <prvTimerTask+0x104>
			if( ( xListWasEmpty == pdFALSE ) && ( xNextExpireTime <= xTimeNow ) )
 800514c:	2c00      	cmp	r4, #0
 800514e:	d14c      	bne.n	80051ea <prvTimerTask+0xce>
 8005150:	4540      	cmp	r0, r8
 8005152:	d350      	bcc.n	80051f6 <prvTimerTask+0xda>
				( void ) xTaskResumeAll();
 8005154:	f7ff fb94 	bl	8004880 <xTaskResumeAll>
Timer_t * const pxTimer = ( Timer_t * ) listGET_OWNER_OF_HEAD_ENTRY( pxCurrentTimerList ); /*lint !e9087 !e9079 void * is used as this macro is used with tasks and co-routines too.  Alignment is known to be fine as the type of the pointer stored and retrieved is the same. */
 8005158:	682b      	ldr	r3, [r5, #0]
 800515a:	68db      	ldr	r3, [r3, #12]
 800515c:	68df      	ldr	r7, [r3, #12]
	( void ) uxListRemove( &( pxTimer->xTimerListItem ) );
 800515e:	1d38      	adds	r0, r7, #4
 8005160:	f7fe fdb4 	bl	8003ccc <uxListRemove>
	if( ( pxTimer->ucStatus & tmrSTATUS_IS_AUTORELOAD ) != 0 )
 8005164:	f897 3028 	ldrb.w	r3, [r7, #40]	@ 0x28
 8005168:	0758      	lsls	r0, r3, #29
 800516a:	d51a      	bpl.n	80051a2 <prvTimerTask+0x86>
		if( prvInsertTimerInActiveList( pxTimer, ( xNextExpireTime + pxTimer->xTimerPeriodInTicks ), xTimeNow, xNextExpireTime ) != pdFALSE )
 800516c:	69b9      	ldr	r1, [r7, #24]
 800516e:	4643      	mov	r3, r8
 8005170:	464a      	mov	r2, r9
 8005172:	4638      	mov	r0, r7
 8005174:	4441      	add	r1, r8
 8005176:	f7ff fecf 	bl	8004f18 <prvInsertTimerInActiveList>
 800517a:	b1b0      	cbz	r0, 80051aa <prvTimerTask+0x8e>
			xResult = xTimerGenericCommand( pxTimer, tmrCOMMAND_START_DONT_TRACE, xNextExpireTime, NULL, tmrNO_DELAY );
 800517c:	4623      	mov	r3, r4
 800517e:	4642      	mov	r2, r8
 8005180:	4621      	mov	r1, r4
 8005182:	4638      	mov	r0, r7
 8005184:	9400      	str	r4, [sp, #0]
 8005186:	f7ff ff4b 	bl	8005020 <xTimerGenericCommand>
			configASSERT( xResult );
 800518a:	b970      	cbnz	r0, 80051aa <prvTimerTask+0x8e>
 800518c:	f04f 0350 	mov.w	r3, #80	@ 0x50
 8005190:	f383 8811 	msr	BASEPRI, r3
 8005194:	f3bf 8f6f 	isb	sy
 8005198:	f3bf 8f4f 	dsb	sy
 800519c:	e7fe      	b.n	800519c <prvTimerTask+0x80>
	*pxListWasEmpty = listLIST_IS_EMPTY( pxCurrentTimerList );
 800519e:	2401      	movs	r4, #1
 80051a0:	e7cb      	b.n	800513a <prvTimerTask+0x1e>
		pxTimer->ucStatus &= ~tmrSTATUS_IS_ACTIVE;
 80051a2:	f023 0301 	bic.w	r3, r3, #1
 80051a6:	f887 3028 	strb.w	r3, [r7, #40]	@ 0x28
	pxTimer->pxCallbackFunction( ( TimerHandle_t ) pxTimer );
 80051aa:	4638      	mov	r0, r7
 80051ac:	6a3b      	ldr	r3, [r7, #32]
 80051ae:	4798      	blx	r3
	while( xQueueReceive( xTimerQueue, &xMessage, tmrNO_DELAY ) != pdFAIL ) /*lint !e603 xMessage does not have to be initialised as it is passed out, not in, and it is not used unless xQueueReceive() returns pdTRUE. */
 80051b0:	2200      	movs	r2, #0
 80051b2:	6830      	ldr	r0, [r6, #0]
 80051b4:	a904      	add	r1, sp, #16
 80051b6:	f7fe ffbf 	bl	8004138 <xQueueReceive>
 80051ba:	2800      	cmp	r0, #0
 80051bc:	d0b3      	beq.n	8005126 <prvTimerTask+0xa>
			if( xMessage.xMessageID < ( BaseType_t ) 0 )
 80051be:	9b04      	ldr	r3, [sp, #16]
				pxCallback->pxCallbackFunction( pxCallback->pvParameter1, pxCallback->ulParameter2 );
 80051c0:	9806      	ldr	r0, [sp, #24]
			if( xMessage.xMessageID < ( BaseType_t ) 0 )
 80051c2:	2b00      	cmp	r3, #0
 80051c4:	db2f      	blt.n	8005226 <prvTimerTask+0x10a>
			pxTimer = xMessage.u.xTimerParameters.pxTimer;
 80051c6:	9c06      	ldr	r4, [sp, #24]
			if( listIS_CONTAINED_WITHIN( NULL, &( pxTimer->xTimerListItem ) ) == pdFALSE ) /*lint !e961. The cast is only redundant when NULL is passed into the macro. */
 80051c8:	6963      	ldr	r3, [r4, #20]
 80051ca:	2b00      	cmp	r3, #0
 80051cc:	d132      	bne.n	8005234 <prvTimerTask+0x118>
			xTimeNow = prvSampleTimeNow( &xTimerListsWereSwitched );
 80051ce:	a803      	add	r0, sp, #12
 80051d0:	f7ff ff52 	bl	8005078 <prvSampleTimeNow>
			switch( xMessage.xMessageID )
 80051d4:	9b04      	ldr	r3, [sp, #16]
			xTimeNow = prvSampleTimeNow( &xTimerListsWereSwitched );
 80051d6:	4602      	mov	r2, r0
			switch( xMessage.xMessageID )
 80051d8:	2b09      	cmp	r3, #9
 80051da:	d8e9      	bhi.n	80051b0 <prvTimerTask+0x94>
 80051dc:	e8df f003 	tbb	[pc, r3]
 80051e0:	572e2e2e 	.word	0x572e2e2e
 80051e4:	2e2e765e 	.word	0x2e2e765e
 80051e8:	5e57      	.short	0x5e57
					xListWasEmpty = listLIST_IS_EMPTY( pxOverflowTimerList );
 80051ea:	4b3e      	ldr	r3, [pc, #248]	@ (80052e4 <prvTimerTask+0x1c8>)
 80051ec:	681b      	ldr	r3, [r3, #0]
 80051ee:	681c      	ldr	r4, [r3, #0]
 80051f0:	fab4 f484 	clz	r4, r4
 80051f4:	0964      	lsrs	r4, r4, #5
				vQueueWaitForMessageRestricted( xTimerQueue, ( xNextExpireTime - xTimeNow ), xListWasEmpty );
 80051f6:	4622      	mov	r2, r4
 80051f8:	6830      	ldr	r0, [r6, #0]
 80051fa:	eba8 0109 	sub.w	r1, r8, r9
 80051fe:	f7ff f84b 	bl	8004298 <vQueueWaitForMessageRestricted>
				if( xTaskResumeAll() == pdFALSE )
 8005202:	f7ff fb3d 	bl	8004880 <xTaskResumeAll>
 8005206:	2800      	cmp	r0, #0
 8005208:	d1d2      	bne.n	80051b0 <prvTimerTask+0x94>
					portYIELD_WITHIN_API();
 800520a:	f04f 23e0 	mov.w	r3, #3758153728	@ 0xe000e000
 800520e:	f04f 5280 	mov.w	r2, #268435456	@ 0x10000000
 8005212:	f8c3 2d04 	str.w	r2, [r3, #3332]	@ 0xd04
 8005216:	f3bf 8f4f 	dsb	sy
 800521a:	f3bf 8f6f 	isb	sy
 800521e:	e7c7      	b.n	80051b0 <prvTimerTask+0x94>
			( void ) xTaskResumeAll();
 8005220:	f7ff fb2e 	bl	8004880 <xTaskResumeAll>
}
 8005224:	e7c4      	b.n	80051b0 <prvTimerTask+0x94>
				pxCallback->pxCallbackFunction( pxCallback->pvParameter1, pxCallback->ulParameter2 );
 8005226:	9b05      	ldr	r3, [sp, #20]
 8005228:	9907      	ldr	r1, [sp, #28]
 800522a:	4798      	blx	r3
		if( xMessage.xMessageID >= ( BaseType_t ) 0 )
 800522c:	9b04      	ldr	r3, [sp, #16]
 800522e:	2b00      	cmp	r3, #0
 8005230:	dbbe      	blt.n	80051b0 <prvTimerTask+0x94>
 8005232:	e7c8      	b.n	80051c6 <prvTimerTask+0xaa>
				( void ) uxListRemove( &( pxTimer->xTimerListItem ) );
 8005234:	1d20      	adds	r0, r4, #4
 8005236:	f7fe fd49 	bl	8003ccc <uxListRemove>
 800523a:	e7c8      	b.n	80051ce <prvTimerTask+0xb2>
					pxTimer->ucStatus |= tmrSTATUS_IS_ACTIVE;
 800523c:	f894 3028 	ldrb.w	r3, [r4, #40]	@ 0x28
					if( prvInsertTimerInActiveList( pxTimer,  xMessage.u.xTimerParameters.xMessageValue + pxTimer->xTimerPeriodInTicks, xTimeNow, xMessage.u.xTimerParameters.xMessageValue ) != pdFALSE )
 8005240:	69a1      	ldr	r1, [r4, #24]
					pxTimer->ucStatus |= tmrSTATUS_IS_ACTIVE;
 8005242:	f043 0301 	orr.w	r3, r3, #1
 8005246:	f884 3028 	strb.w	r3, [r4, #40]	@ 0x28
					if( prvInsertTimerInActiveList( pxTimer,  xMessage.u.xTimerParameters.xMessageValue + pxTimer->xTimerPeriodInTicks, xTimeNow, xMessage.u.xTimerParameters.xMessageValue ) != pdFALSE )
 800524a:	9b05      	ldr	r3, [sp, #20]
 800524c:	4620      	mov	r0, r4
 800524e:	4419      	add	r1, r3
 8005250:	f7ff fe62 	bl	8004f18 <prvInsertTimerInActiveList>
 8005254:	2800      	cmp	r0, #0
 8005256:	d0ab      	beq.n	80051b0 <prvTimerTask+0x94>
						pxTimer->pxCallbackFunction( ( TimerHandle_t ) pxTimer );
 8005258:	6a23      	ldr	r3, [r4, #32]
 800525a:	4620      	mov	r0, r4
 800525c:	4798      	blx	r3
						if( ( pxTimer->ucStatus & tmrSTATUS_IS_AUTORELOAD ) != 0 )
 800525e:	f894 3028 	ldrb.w	r3, [r4, #40]	@ 0x28
 8005262:	0759      	lsls	r1, r3, #29
 8005264:	d5a4      	bpl.n	80051b0 <prvTimerTask+0x94>
							xResult = xTimerGenericCommand( pxTimer, tmrCOMMAND_START_DONT_TRACE, xMessage.u.xTimerParameters.xMessageValue + pxTimer->xTimerPeriodInTicks, NULL, tmrNO_DELAY );
 8005266:	2300      	movs	r3, #0
 8005268:	69a2      	ldr	r2, [r4, #24]
 800526a:	9905      	ldr	r1, [sp, #20]
 800526c:	4620      	mov	r0, r4
 800526e:	440a      	add	r2, r1
 8005270:	9300      	str	r3, [sp, #0]
 8005272:	4619      	mov	r1, r3
 8005274:	f7ff fed4 	bl	8005020 <xTimerGenericCommand>
							configASSERT( xResult );
 8005278:	2800      	cmp	r0, #0
 800527a:	d199      	bne.n	80051b0 <prvTimerTask+0x94>
 800527c:	f04f 0350 	mov.w	r3, #80	@ 0x50
 8005280:	f383 8811 	msr	BASEPRI, r3
 8005284:	f3bf 8f6f 	isb	sy
 8005288:	f3bf 8f4f 	dsb	sy
 800528c:	e7fe      	b.n	800528c <prvTimerTask+0x170>
					pxTimer->ucStatus &= ~tmrSTATUS_IS_ACTIVE;
 800528e:	f894 3028 	ldrb.w	r3, [r4, #40]	@ 0x28
							pxTimer->ucStatus &= ~tmrSTATUS_IS_ACTIVE;
 8005292:	f023 0301 	bic.w	r3, r3, #1
 8005296:	f884 3028 	strb.w	r3, [r4, #40]	@ 0x28
 800529a:	e789      	b.n	80051b0 <prvTimerTask+0x94>
					pxTimer->ucStatus |= tmrSTATUS_IS_ACTIVE;
 800529c:	f894 3028 	ldrb.w	r3, [r4, #40]	@ 0x28
 80052a0:	f043 0301 	orr.w	r3, r3, #1
 80052a4:	f884 3028 	strb.w	r3, [r4, #40]	@ 0x28
					pxTimer->xTimerPeriodInTicks = xMessage.u.xTimerParameters.xMessageValue;
 80052a8:	9905      	ldr	r1, [sp, #20]
 80052aa:	61a1      	str	r1, [r4, #24]
					configASSERT( ( pxTimer->xTimerPeriodInTicks > 0 ) );
 80052ac:	b941      	cbnz	r1, 80052c0 <prvTimerTask+0x1a4>
 80052ae:	f04f 0350 	mov.w	r3, #80	@ 0x50
 80052b2:	f383 8811 	msr	BASEPRI, r3
 80052b6:	f3bf 8f6f 	isb	sy
 80052ba:	f3bf 8f4f 	dsb	sy
 80052be:	e7fe      	b.n	80052be <prvTimerTask+0x1a2>
					( void ) prvInsertTimerInActiveList( pxTimer, ( xTimeNow + pxTimer->xTimerPeriodInTicks ), xTimeNow, xTimeNow );
 80052c0:	4603      	mov	r3, r0
 80052c2:	4401      	add	r1, r0
 80052c4:	4620      	mov	r0, r4
 80052c6:	f7ff fe27 	bl	8004f18 <prvInsertTimerInActiveList>
					break;
 80052ca:	e771      	b.n	80051b0 <prvTimerTask+0x94>
						if( ( pxTimer->ucStatus & tmrSTATUS_IS_STATICALLY_ALLOCATED ) == ( uint8_t ) 0 )
 80052cc:	f894 3028 	ldrb.w	r3, [r4, #40]	@ 0x28
 80052d0:	079a      	lsls	r2, r3, #30
 80052d2:	d4de      	bmi.n	8005292 <prvTimerTask+0x176>
							vPortFree( pxTimer );
 80052d4:	4620      	mov	r0, r4
 80052d6:	f000 fa21 	bl	800571c <vPortFree>
 80052da:	e769      	b.n	80051b0 <prvTimerTask+0x94>
 80052dc:	2000152c 	.word	0x2000152c
 80052e0:	20001524 	.word	0x20001524
 80052e4:	20001528 	.word	0x20001528

080052e8 <prvPortStartFirstTask>:
}
/*-----------------------------------------------------------*/

static void prvPortStartFirstTask( void )
{
	__asm volatile(
 80052e8:	4806      	ldr	r0, [pc, #24]	@ (8005304 <prvPortStartFirstTask+0x1c>)
 80052ea:	6800      	ldr	r0, [r0, #0]
 80052ec:	6800      	ldr	r0, [r0, #0]
 80052ee:	f380 8808 	msr	MSP, r0
 80052f2:	b662      	cpsie	i
 80052f4:	b661      	cpsie	f
 80052f6:	f3bf 8f4f 	dsb	sy
 80052fa:	f3bf 8f6f 	isb	sy
 80052fe:	df00      	svc	0
 8005300:	bf00      	nop
					" dsb					\n"
					" isb					\n"
					" svc 0					\n" /* System call to start first task. */
					" nop					\n"
				);
}
 8005302:	0000      	.short	0x0000
 8005304:	e000ed08 	.word	0xe000ed08

08005308 <prvTaskExitError>:
volatile uint32_t ulDummy = 0UL;
 8005308:	2300      	movs	r3, #0
{
 800530a:	b082      	sub	sp, #8
volatile uint32_t ulDummy = 0UL;
 800530c:	9301      	str	r3, [sp, #4]
	configASSERT( uxCriticalNesting == ~0UL );
 800530e:	4b0d      	ldr	r3, [pc, #52]	@ (8005344 <prvTaskExitError+0x3c>)
 8005310:	681b      	ldr	r3, [r3, #0]
 8005312:	3301      	adds	r3, #1
 8005314:	d008      	beq.n	8005328 <prvTaskExitError+0x20>
 8005316:	f04f 0350 	mov.w	r3, #80	@ 0x50
 800531a:	f383 8811 	msr	BASEPRI, r3
 800531e:	f3bf 8f6f 	isb	sy
 8005322:	f3bf 8f4f 	dsb	sy
 8005326:	e7fe      	b.n	8005326 <prvTaskExitError+0x1e>
 8005328:	f04f 0350 	mov.w	r3, #80	@ 0x50
 800532c:	f383 8811 	msr	BASEPRI, r3
 8005330:	f3bf 8f6f 	isb	sy
 8005334:	f3bf 8f4f 	dsb	sy
	while( ulDummy == 0 )
 8005338:	9b01      	ldr	r3, [sp, #4]
 800533a:	2b00      	cmp	r3, #0
 800533c:	d0fc      	beq.n	8005338 <prvTaskExitError+0x30>
}
 800533e:	b002      	add	sp, #8
 8005340:	4770      	bx	lr
 8005342:	bf00      	nop
 8005344:	20000028 	.word	0x20000028

08005348 <pxPortInitialiseStack>:
	*pxTopOfStack = portINITIAL_XPSR;	/* xPSR */
 8005348:	f04f 7380 	mov.w	r3, #16777216	@ 0x1000000
 800534c:	f840 3c04 	str.w	r3, [r0, #-4]
	*pxTopOfStack = ( StackType_t ) portTASK_RETURN_ADDRESS;	/* LR */
 8005350:	4b05      	ldr	r3, [pc, #20]	@ (8005368 <pxPortInitialiseStack+0x20>)
	*pxTopOfStack = ( ( StackType_t ) pxCode ) & portSTART_ADDRESS_MASK;	/* PC */
 8005352:	f021 0101 	bic.w	r1, r1, #1
 8005356:	f840 1c08 	str.w	r1, [r0, #-8]
	*pxTopOfStack = ( StackType_t ) portTASK_RETURN_ADDRESS;	/* LR */
 800535a:	f840 3c0c 	str.w	r3, [r0, #-12]
	*pxTopOfStack = ( StackType_t ) pvParameters;	/* R0 */
 800535e:	f840 2c20 	str.w	r2, [r0, #-32]
}
 8005362:	3840      	subs	r0, #64	@ 0x40
 8005364:	4770      	bx	lr
 8005366:	bf00      	nop
 8005368:	08005309 	.word	0x08005309
 800536c:	00000000 	.word	0x00000000

08005370 <SVC_Handler>:
	__asm volatile (
 8005370:	4b07      	ldr	r3, [pc, #28]	@ (8005390 <pxCurrentTCBConst2>)
 8005372:	6819      	ldr	r1, [r3, #0]
 8005374:	6808      	ldr	r0, [r1, #0]
 8005376:	e8b0 0ff0 	ldmia.w	r0!, {r4, r5, r6, r7, r8, r9, sl, fp}
 800537a:	f380 8809 	msr	PSP, r0
 800537e:	f3bf 8f6f 	isb	sy
 8005382:	f04f 0000 	mov.w	r0, #0
 8005386:	f380 8811 	msr	BASEPRI, r0
 800538a:	f04e 0e0d 	orr.w	lr, lr, #13
 800538e:	4770      	bx	lr

08005390 <pxCurrentTCBConst2>:
 8005390:	20001428 	.word	0x20001428

08005394 <vPortEnterCritical>:
 8005394:	f04f 0350 	mov.w	r3, #80	@ 0x50
 8005398:	f383 8811 	msr	BASEPRI, r3
 800539c:	f3bf 8f6f 	isb	sy
 80053a0:	f3bf 8f4f 	dsb	sy
/*-----------------------------------------------------------*/

void vPortEnterCritical( void )
{
	portDISABLE_INTERRUPTS();
	uxCriticalNesting++;
 80053a4:	4a0a      	ldr	r2, [pc, #40]	@ (80053d0 <vPortEnterCritical+0x3c>)
 80053a6:	6813      	ldr	r3, [r2, #0]
 80053a8:	3301      	adds	r3, #1
	/* This is not the interrupt safe version of the enter critical function so
	assert() if it is being called from an interrupt context.  Only API
	functions that end in "FromISR" can be used in an interrupt.  Only assert if
	the critical nesting count is 1 to protect against recursive calls if the
	assert function also uses a critical section. */
	if( uxCriticalNesting == 1 )
 80053aa:	2b01      	cmp	r3, #1
	uxCriticalNesting++;
 80053ac:	6013      	str	r3, [r2, #0]
	if( uxCriticalNesting == 1 )
 80053ae:	d10e      	bne.n	80053ce <vPortEnterCritical+0x3a>
	{
		configASSERT( ( portNVIC_INT_CTRL_REG & portVECTACTIVE_MASK ) == 0 );
 80053b0:	f04f 23e0 	mov.w	r3, #3758153728	@ 0xe000e000
 80053b4:	f8d3 3d04 	ldr.w	r3, [r3, #3332]	@ 0xd04
 80053b8:	b2db      	uxtb	r3, r3
 80053ba:	b143      	cbz	r3, 80053ce <vPortEnterCritical+0x3a>
 80053bc:	f04f 0350 	mov.w	r3, #80	@ 0x50
 80053c0:	f383 8811 	msr	BASEPRI, r3
 80053c4:	f3bf 8f6f 	isb	sy
 80053c8:	f3bf 8f4f 	dsb	sy
 80053cc:	e7fe      	b.n	80053cc <vPortEnterCritical+0x38>
	}
}
 80053ce:	4770      	bx	lr
 80053d0:	20000028 	.word	0x20000028

080053d4 <vPortExitCritical>:
/*-----------------------------------------------------------*/

void vPortExitCritical( void )
{
	configASSERT( uxCriticalNesting );
 80053d4:	4a08      	ldr	r2, [pc, #32]	@ (80053f8 <vPortExitCritical+0x24>)
 80053d6:	6813      	ldr	r3, [r2, #0]
 80053d8:	b943      	cbnz	r3, 80053ec <vPortExitCritical+0x18>
 80053da:	f04f 0350 	mov.w	r3, #80	@ 0x50
 80053de:	f383 8811 	msr	BASEPRI, r3
 80053e2:	f3bf 8f6f 	isb	sy
 80053e6:	f3bf 8f4f 	dsb	sy
 80053ea:	e7fe      	b.n	80053ea <vPortExitCritical+0x16>
	uxCriticalNesting--;
 80053ec:	3b01      	subs	r3, #1
 80053ee:	6013      	str	r3, [r2, #0]
	if( uxCriticalNesting == 0 )
 80053f0:	b90b      	cbnz	r3, 80053f6 <vPortExitCritical+0x22>
	__asm volatile
 80053f2:	f383 8811 	msr	BASEPRI, r3
	{
		portENABLE_INTERRUPTS();
	}
}
 80053f6:	4770      	bx	lr
 80053f8:	20000028 	.word	0x20000028
 80053fc:	00000000 	.word	0x00000000

08005400 <PendSV_Handler>:

void xPortPendSVHandler( void )
{
	/* This is a naked function. */

	__asm volatile
 8005400:	f3ef 8009 	mrs	r0, PSP
 8005404:	f3bf 8f6f 	isb	sy
 8005408:	4b0d      	ldr	r3, [pc, #52]	@ (8005440 <pxCurrentTCBConst>)
 800540a:	681a      	ldr	r2, [r3, #0]
 800540c:	e920 0ff0 	stmdb	r0!, {r4, r5, r6, r7, r8, r9, sl, fp}
 8005410:	6010      	str	r0, [r2, #0]
 8005412:	e92d 4008 	stmdb	sp!, {r3, lr}
 8005416:	f04f 0050 	mov.w	r0, #80	@ 0x50
 800541a:	f380 8811 	msr	BASEPRI, r0
 800541e:	f7ff fac7 	bl	80049b0 <vTaskSwitchContext>
 8005422:	f04f 0000 	mov.w	r0, #0
 8005426:	f380 8811 	msr	BASEPRI, r0
 800542a:	e8bd 4008 	ldmia.w	sp!, {r3, lr}
 800542e:	6819      	ldr	r1, [r3, #0]
 8005430:	6808      	ldr	r0, [r1, #0]
 8005432:	e8b0 0ff0 	ldmia.w	r0!, {r4, r5, r6, r7, r8, r9, sl, fp}
 8005436:	f380 8809 	msr	PSP, r0
 800543a:	f3bf 8f6f 	isb	sy
 800543e:	4770      	bx	lr

08005440 <pxCurrentTCBConst>:
 8005440:	20001428 	.word	0x20001428

08005444 <xPortSysTickHandler>:
	);
}
/*-----------------------------------------------------------*/

void xPortSysTickHandler( void )
{
 8005444:	b508      	push	{r3, lr}
	__asm volatile
 8005446:	f04f 0350 	mov.w	r3, #80	@ 0x50
 800544a:	f383 8811 	msr	BASEPRI, r3
 800544e:	f3bf 8f6f 	isb	sy
 8005452:	f3bf 8f4f 	dsb	sy
	save and then restore the interrupt mask value as its value is already
	known. */
	portDISABLE_INTERRUPTS();
	{
		/* Increment the RTOS tick. */
		if( xTaskIncrementTick() != pdFALSE )
 8005456:	f7ff f97b 	bl	8004750 <xTaskIncrementTick>
 800545a:	b128      	cbz	r0, 8005468 <xPortSysTickHandler+0x24>
		{
			/* A context switch is required.  Context switching is performed in
			the PendSV interrupt.  Pend the PendSV interrupt. */
			portNVIC_INT_CTRL_REG = portNVIC_PENDSVSET_BIT;
 800545c:	f04f 23e0 	mov.w	r3, #3758153728	@ 0xe000e000
 8005460:	f04f 5280 	mov.w	r2, #268435456	@ 0x10000000
 8005464:	f8c3 2d04 	str.w	r2, [r3, #3332]	@ 0xd04
	__asm volatile
 8005468:	2300      	movs	r3, #0
 800546a:	f383 8811 	msr	BASEPRI, r3
		}
	}
	portENABLE_INTERRUPTS();
}
 800546e:	bd08      	pop	{r3, pc}

08005470 <vPortSetupTimerInterrupt>:
		ulStoppedTimerCompensation = portMISSED_COUNTS_FACTOR / ( configCPU_CLOCK_HZ / configSYSTICK_CLOCK_HZ );
	}
	#endif /* configUSE_TICKLESS_IDLE */

	/* Stop and clear the SysTick. */
	portNVIC_SYSTICK_CTRL_REG = 0UL;
 8005470:	f04f 22e0 	mov.w	r2, #3758153728	@ 0xe000e000
 8005474:	2300      	movs	r3, #0
	portNVIC_SYSTICK_CURRENT_VALUE_REG = 0UL;

	/* Configure SysTick to interrupt at the requested rate. */
	portNVIC_SYSTICK_LOAD_REG = ( configSYSTICK_CLOCK_HZ / configTICK_RATE_HZ ) - 1UL;
 8005476:	f44f 717a 	mov.w	r1, #1000	@ 0x3e8
	portNVIC_SYSTICK_CTRL_REG = 0UL;
 800547a:	6113      	str	r3, [r2, #16]
	portNVIC_SYSTICK_CURRENT_VALUE_REG = 0UL;
 800547c:	6193      	str	r3, [r2, #24]
	portNVIC_SYSTICK_LOAD_REG = ( configSYSTICK_CLOCK_HZ / configTICK_RATE_HZ ) - 1UL;
 800547e:	4b04      	ldr	r3, [pc, #16]	@ (8005490 <vPortSetupTimerInterrupt+0x20>)
 8005480:	681b      	ldr	r3, [r3, #0]
 8005482:	fbb3 f3f1 	udiv	r3, r3, r1
 8005486:	3b01      	subs	r3, #1
 8005488:	6153      	str	r3, [r2, #20]
	portNVIC_SYSTICK_CTRL_REG = ( portNVIC_SYSTICK_CLK_BIT | portNVIC_SYSTICK_INT_BIT | portNVIC_SYSTICK_ENABLE_BIT );
 800548a:	2307      	movs	r3, #7
 800548c:	6113      	str	r3, [r2, #16]
}
 800548e:	4770      	bx	lr
 8005490:	2000001c 	.word	0x2000001c

08005494 <xPortStartScheduler>:
{
 8005494:	b513      	push	{r0, r1, r4, lr}
		ulOriginalPriority = *pucFirstUserPriorityRegister;
 8005496:	4b27      	ldr	r3, [pc, #156]	@ (8005534 <xPortStartScheduler+0xa0>)
 8005498:	781a      	ldrb	r2, [r3, #0]
 800549a:	b2d2      	uxtb	r2, r2
 800549c:	9201      	str	r2, [sp, #4]
		*pucFirstUserPriorityRegister = portMAX_8_BIT_VALUE;
 800549e:	22ff      	movs	r2, #255	@ 0xff
 80054a0:	701a      	strb	r2, [r3, #0]
		ucMaxPriorityValue = *pucFirstUserPriorityRegister;
 80054a2:	781b      	ldrb	r3, [r3, #0]
		ucMaxSysCallPriority = configMAX_SYSCALL_INTERRUPT_PRIORITY & ucMaxPriorityValue;
 80054a4:	4a24      	ldr	r2, [pc, #144]	@ (8005538 <xPortStartScheduler+0xa4>)
		ucMaxPriorityValue = *pucFirstUserPriorityRegister;
 80054a6:	b2db      	uxtb	r3, r3
 80054a8:	f88d 3003 	strb.w	r3, [sp, #3]
		ucMaxSysCallPriority = configMAX_SYSCALL_INTERRUPT_PRIORITY & ucMaxPriorityValue;
 80054ac:	f89d 3003 	ldrb.w	r3, [sp, #3]
 80054b0:	f003 0350 	and.w	r3, r3, #80	@ 0x50
 80054b4:	7013      	strb	r3, [r2, #0]
		ulMaxPRIGROUPValue = portMAX_PRIGROUP_BITS;
 80054b6:	2307      	movs	r3, #7
 80054b8:	4a20      	ldr	r2, [pc, #128]	@ (800553c <xPortStartScheduler+0xa8>)
 80054ba:	6013      	str	r3, [r2, #0]
		while( ( ucMaxPriorityValue & portTOP_BIT_OF_BYTE ) == portTOP_BIT_OF_BYTE )
 80054bc:	f89d 1003 	ldrb.w	r1, [sp, #3]
			ulMaxPRIGROUPValue--;
 80054c0:	6813      	ldr	r3, [r2, #0]
		while( ( ucMaxPriorityValue & portTOP_BIT_OF_BYTE ) == portTOP_BIT_OF_BYTE )
 80054c2:	0609      	lsls	r1, r1, #24
 80054c4:	d40a      	bmi.n	80054dc <xPortStartScheduler+0x48>
			configASSERT( ( portMAX_PRIGROUP_BITS - ulMaxPRIGROUPValue ) == configPRIO_BITS );
 80054c6:	2b03      	cmp	r3, #3
 80054c8:	d011      	beq.n	80054ee <xPortStartScheduler+0x5a>
	__asm volatile
 80054ca:	f04f 0350 	mov.w	r3, #80	@ 0x50
 80054ce:	f383 8811 	msr	BASEPRI, r3
 80054d2:	f3bf 8f6f 	isb	sy
 80054d6:	f3bf 8f4f 	dsb	sy
 80054da:	e7fe      	b.n	80054da <xPortStartScheduler+0x46>
			ulMaxPRIGROUPValue--;
 80054dc:	3b01      	subs	r3, #1
 80054de:	6013      	str	r3, [r2, #0]
			ucMaxPriorityValue <<= ( uint8_t ) 0x01;
 80054e0:	f89d 3003 	ldrb.w	r3, [sp, #3]
 80054e4:	005b      	lsls	r3, r3, #1
 80054e6:	b2db      	uxtb	r3, r3
 80054e8:	f88d 3003 	strb.w	r3, [sp, #3]
 80054ec:	e7e6      	b.n	80054bc <xPortStartScheduler+0x28>
		ulMaxPRIGROUPValue &= portPRIORITY_GROUP_MASK;
 80054ee:	f44f 7340 	mov.w	r3, #768	@ 0x300
 80054f2:	6013      	str	r3, [r2, #0]
		*pucFirstUserPriorityRegister = ulOriginalPriority;
 80054f4:	9b01      	ldr	r3, [sp, #4]
 80054f6:	4a0f      	ldr	r2, [pc, #60]	@ (8005534 <xPortStartScheduler+0xa0>)
 80054f8:	b2db      	uxtb	r3, r3
 80054fa:	7013      	strb	r3, [r2, #0]
	portNVIC_SYSPRI2_REG |= portNVIC_PENDSV_PRI;
 80054fc:	f04f 23e0 	mov.w	r3, #3758153728	@ 0xe000e000
	uxCriticalNesting = 0;
 8005500:	2400      	movs	r4, #0
	portNVIC_SYSPRI2_REG |= portNVIC_PENDSV_PRI;
 8005502:	f8d3 2d20 	ldr.w	r2, [r3, #3360]	@ 0xd20
 8005506:	f442 0270 	orr.w	r2, r2, #15728640	@ 0xf00000
 800550a:	f8c3 2d20 	str.w	r2, [r3, #3360]	@ 0xd20
	portNVIC_SYSPRI2_REG |= portNVIC_SYSTICK_PRI;
 800550e:	f8d3 2d20 	ldr.w	r2, [r3, #3360]	@ 0xd20
 8005512:	f042 4270 	orr.w	r2, r2, #4026531840	@ 0xf0000000
 8005516:	f8c3 2d20 	str.w	r2, [r3, #3360]	@ 0xd20
	vPortSetupTimerInterrupt();
 800551a:	f7ff ffa9 	bl	8005470 <vPortSetupTimerInterrupt>
	uxCriticalNesting = 0;
 800551e:	4b08      	ldr	r3, [pc, #32]	@ (8005540 <xPortStartScheduler+0xac>)
 8005520:	601c      	str	r4, [r3, #0]
	prvPortStartFirstTask();
 8005522:	f7ff fee1 	bl	80052e8 <prvPortStartFirstTask>
	vTaskSwitchContext();
 8005526:	f7ff fa43 	bl	80049b0 <vTaskSwitchContext>
}
 800552a:	4620      	mov	r0, r4
	prvTaskExitError();
 800552c:	f7ff feec 	bl	8005308 <prvTaskExitError>
}
 8005530:	b002      	add	sp, #8
 8005532:	bd10      	pop	{r4, pc}
 8005534:	e000e400 	.word	0xe000e400
 8005538:	2000155c 	.word	0x2000155c
 800553c:	20001558 	.word	0x20001558
 8005540:	20000028 	.word	0x20000028

08005544 <vPortValidateInterruptPriority>:
	{
	uint32_t ulCurrentInterrupt;
	uint8_t ucCurrentPriority;

		/* Obtain the number of the currently executing interrupt. */
		__asm volatile( "mrs %0, ipsr" : "=r"( ulCurrentInterrupt ) :: "memory" );
 8005544:	f3ef 8305 	mrs	r3, IPSR

		/* Is the interrupt number a user defined interrupt? */
		if( ulCurrentInterrupt >= portFIRST_USER_INTERRUPT_NUMBER )
 8005548:	2b0f      	cmp	r3, #15
 800554a:	d90e      	bls.n	800556a <vPortValidateInterruptPriority+0x26>
		{
			/* Look up the interrupt's priority. */
			ucCurrentPriority = pcInterruptPriorityRegisters[ ulCurrentInterrupt ];
 800554c:	4a11      	ldr	r2, [pc, #68]	@ (8005594 <vPortValidateInterruptPriority+0x50>)
 800554e:	5c9b      	ldrb	r3, [r3, r2]
			interrupt entry is as fast and simple as possible.

			The following links provide detailed information:
			http://www.freertos.org/RTOS-Cortex-M3-M4.html
			http://www.freertos.org/FAQHelp.html */
			configASSERT( ucCurrentPriority >= ucMaxSysCallPriority );
 8005550:	4a11      	ldr	r2, [pc, #68]	@ (8005598 <vPortValidateInterruptPriority+0x54>)
 8005552:	7812      	ldrb	r2, [r2, #0]
 8005554:	429a      	cmp	r2, r3
 8005556:	d908      	bls.n	800556a <vPortValidateInterruptPriority+0x26>
 8005558:	f04f 0350 	mov.w	r3, #80	@ 0x50
 800555c:	f383 8811 	msr	BASEPRI, r3
 8005560:	f3bf 8f6f 	isb	sy
 8005564:	f3bf 8f4f 	dsb	sy
 8005568:	e7fe      	b.n	8005568 <vPortValidateInterruptPriority+0x24>
		configuration then the correct setting can be achieved on all Cortex-M
		devices by calling NVIC_SetPriorityGrouping( 0 ); before starting the
		scheduler.  Note however that some vendor specific peripheral libraries
		assume a non-zero priority group setting, in which cases using a value
		of zero will result in unpredictable behaviour. */
		configASSERT( ( portAIRCR_REG & portPRIORITY_GROUP_MASK ) <= ulMaxPRIGROUPValue );
 800556a:	f04f 23e0 	mov.w	r3, #3758153728	@ 0xe000e000
 800556e:	4a0b      	ldr	r2, [pc, #44]	@ (800559c <vPortValidateInterruptPriority+0x58>)
 8005570:	f8d3 3d0c 	ldr.w	r3, [r3, #3340]	@ 0xd0c
 8005574:	6812      	ldr	r2, [r2, #0]
 8005576:	f403 63e0 	and.w	r3, r3, #1792	@ 0x700
 800557a:	4293      	cmp	r3, r2
 800557c:	d908      	bls.n	8005590 <vPortValidateInterruptPriority+0x4c>
 800557e:	f04f 0350 	mov.w	r3, #80	@ 0x50
 8005582:	f383 8811 	msr	BASEPRI, r3
 8005586:	f3bf 8f6f 	isb	sy
 800558a:	f3bf 8f4f 	dsb	sy
 800558e:	e7fe      	b.n	800558e <vPortValidateInterruptPriority+0x4a>
	}
 8005590:	4770      	bx	lr
 8005592:	bf00      	nop
 8005594:	e000e3f0 	.word	0xe000e3f0
 8005598:	2000155c 	.word	0x2000155c
 800559c:	20001558 	.word	0x20001558

080055a0 <prvInsertBlockIntoFreeList>:
	xBlockAllocatedBit = ( ( size_t ) 1 ) << ( ( sizeof( size_t ) * heapBITS_PER_BYTE ) - 1 );
}
/*-----------------------------------------------------------*/

static void prvInsertBlockIntoFreeList( BlockLink_t *pxBlockToInsert )
{
 80055a0:	b510      	push	{r4, lr}
BlockLink_t *pxIterator;
uint8_t *puc;

	/* Iterate through the list until a block is found that has a higher address
	than the block being inserted. */
	for( pxIterator = &xStart; pxIterator->pxNextFreeBlock < pxBlockToInsert; pxIterator = pxIterator->pxNextFreeBlock )
 80055a2:	4b10      	ldr	r3, [pc, #64]	@ (80055e4 <prvInsertBlockIntoFreeList+0x44>)
 80055a4:	461a      	mov	r2, r3
 80055a6:	681b      	ldr	r3, [r3, #0]
 80055a8:	4283      	cmp	r3, r0
 80055aa:	d3fb      	bcc.n	80055a4 <prvInsertBlockIntoFreeList+0x4>
	}

	/* Do the block being inserted, and the block it is being inserted after
	make a contiguous block of memory? */
	puc = ( uint8_t * ) pxIterator;
	if( ( puc + pxIterator->xBlockSize ) == ( uint8_t * ) pxBlockToInsert )
 80055ac:	6854      	ldr	r4, [r2, #4]
 80055ae:	1911      	adds	r1, r2, r4
 80055b0:	4288      	cmp	r0, r1
	{
		pxIterator->xBlockSize += pxBlockToInsert->xBlockSize;
 80055b2:	bf01      	itttt	eq
 80055b4:	6841      	ldreq	r1, [r0, #4]
 80055b6:	4610      	moveq	r0, r2
 80055b8:	1909      	addeq	r1, r1, r4
 80055ba:	6051      	streq	r1, [r2, #4]
	}

	/* Do the block being inserted, and the block it is being inserted before
	make a contiguous block of memory? */
	puc = ( uint8_t * ) pxBlockToInsert;
	if( ( puc + pxBlockToInsert->xBlockSize ) == ( uint8_t * ) pxIterator->pxNextFreeBlock )
 80055bc:	6844      	ldr	r4, [r0, #4]
 80055be:	1901      	adds	r1, r0, r4
 80055c0:	428b      	cmp	r3, r1
 80055c2:	d10c      	bne.n	80055de <prvInsertBlockIntoFreeList+0x3e>
	{
		if( pxIterator->pxNextFreeBlock != pxEnd )
 80055c4:	4908      	ldr	r1, [pc, #32]	@ (80055e8 <prvInsertBlockIntoFreeList+0x48>)
 80055c6:	6809      	ldr	r1, [r1, #0]
 80055c8:	428b      	cmp	r3, r1
 80055ca:	d003      	beq.n	80055d4 <prvInsertBlockIntoFreeList+0x34>
		{
			/* Form one big block from the two blocks. */
			pxBlockToInsert->xBlockSize += pxIterator->pxNextFreeBlock->xBlockSize;
 80055cc:	6859      	ldr	r1, [r3, #4]
 80055ce:	4421      	add	r1, r4
 80055d0:	6041      	str	r1, [r0, #4]
			pxBlockToInsert->pxNextFreeBlock = pxIterator->pxNextFreeBlock->pxNextFreeBlock;
 80055d2:	6819      	ldr	r1, [r3, #0]

	/* If the block being inserted plugged a gab, so was merged with the block
	before and the block after, then it's pxNextFreeBlock pointer will have
	already been set, and should not be set here as that would make it point
	to itself. */
	if( pxIterator != pxBlockToInsert )
 80055d4:	4290      	cmp	r0, r2
			pxBlockToInsert->pxNextFreeBlock = pxEnd;
 80055d6:	6001      	str	r1, [r0, #0]
	{
		pxIterator->pxNextFreeBlock = pxBlockToInsert;
 80055d8:	bf18      	it	ne
 80055da:	6010      	strne	r0, [r2, #0]
	}
	else
	{
		mtCOVERAGE_TEST_MARKER();
	}
}
 80055dc:	bd10      	pop	{r4, pc}
	for( pxIterator = &xStart; pxIterator->pxNextFreeBlock < pxBlockToInsert; pxIterator = pxIterator->pxNextFreeBlock )
 80055de:	4619      	mov	r1, r3
 80055e0:	e7f8      	b.n	80055d4 <prvInsertBlockIntoFreeList+0x34>
 80055e2:	bf00      	nop
 80055e4:	20001578 	.word	0x20001578
 80055e8:	20001574 	.word	0x20001574

080055ec <pvPortMalloc>:
{
 80055ec:	e92d 41f0 	stmdb	sp!, {r4, r5, r6, r7, r8, lr}
 80055f0:	4604      	mov	r4, r0
	vTaskSuspendAll();
 80055f2:	f7ff f89f 	bl	8004734 <vTaskSuspendAll>
		if( pxEnd == NULL )
 80055f6:	4942      	ldr	r1, [pc, #264]	@ (8005700 <pvPortMalloc+0x114>)
 80055f8:	4d42      	ldr	r5, [pc, #264]	@ (8005704 <pvPortMalloc+0x118>)
 80055fa:	680b      	ldr	r3, [r1, #0]
 80055fc:	bb0b      	cbnz	r3, 8005642 <pvPortMalloc+0x56>
	uxAddress = ( size_t ) ucHeap;
 80055fe:	4a42      	ldr	r2, [pc, #264]	@ (8005708 <pvPortMalloc+0x11c>)
	if( ( uxAddress & portBYTE_ALIGNMENT_MASK ) != 0 )
 8005600:	0756      	lsls	r6, r2, #29
		uxAddress += ( portBYTE_ALIGNMENT - 1 );
 8005602:	bf1f      	itttt	ne
 8005604:	1dd0      	addne	r0, r2, #7
		uxAddress &= ~( ( size_t ) portBYTE_ALIGNMENT_MASK );
 8005606:	f020 0007 	bicne.w	r0, r0, #7
		xTotalHeapSize -= uxAddress - ( size_t ) ucHeap;
 800560a:	f502 622f 	addne.w	r2, r2, #2800	@ 0xaf0
 800560e:	1a13      	subne	r3, r2, r0
size_t xTotalHeapSize = configTOTAL_HEAP_SIZE;
 8005610:	bf0c      	ite	eq
 8005612:	f44f 632f 	moveq.w	r3, #2800	@ 0xaf0
		uxAddress &= ~( ( size_t ) portBYTE_ALIGNMENT_MASK );
 8005616:	4602      	movne	r2, r0
	xStart.xBlockSize = ( size_t ) 0;
 8005618:	2000      	movs	r0, #0
	uxAddress = ( ( size_t ) pucAlignedHeap ) + xTotalHeapSize;
 800561a:	4413      	add	r3, r2
	xStart.pxNextFreeBlock = ( void * ) pucAlignedHeap;
 800561c:	4e3b      	ldr	r6, [pc, #236]	@ (800570c <pvPortMalloc+0x120>)
	uxAddress -= xHeapStructSize;
 800561e:	3b08      	subs	r3, #8
	uxAddress &= ~( ( size_t ) portBYTE_ALIGNMENT_MASK );
 8005620:	f023 0307 	bic.w	r3, r3, #7
	xStart.xBlockSize = ( size_t ) 0;
 8005624:	6070      	str	r0, [r6, #4]
	xStart.pxNextFreeBlock = ( void * ) pucAlignedHeap;
 8005626:	6032      	str	r2, [r6, #0]
	pxEnd->pxNextFreeBlock = NULL;
 8005628:	e9c3 0000 	strd	r0, r0, [r3]
	pxFirstFreeBlock->xBlockSize = uxAddress - ( size_t ) pxFirstFreeBlock;
 800562c:	1a98      	subs	r0, r3, r2
	pxFirstFreeBlock->pxNextFreeBlock = pxEnd;
 800562e:	e9c2 3000 	strd	r3, r0, [r2]
	pxEnd = ( void * ) uxAddress;
 8005632:	600b      	str	r3, [r1, #0]
	xMinimumEverFreeBytesRemaining = pxFirstFreeBlock->xBlockSize;
 8005634:	4b36      	ldr	r3, [pc, #216]	@ (8005710 <pvPortMalloc+0x124>)
 8005636:	6018      	str	r0, [r3, #0]
	xFreeBytesRemaining = pxFirstFreeBlock->xBlockSize;
 8005638:	4b36      	ldr	r3, [pc, #216]	@ (8005714 <pvPortMalloc+0x128>)
 800563a:	6018      	str	r0, [r3, #0]
	xBlockAllocatedBit = ( ( size_t ) 1 ) << ( ( sizeof( size_t ) * heapBITS_PER_BYTE ) - 1 );
 800563c:	f04f 4300 	mov.w	r3, #2147483648	@ 0x80000000
 8005640:	602b      	str	r3, [r5, #0]
		if( ( xWantedSize & xBlockAllocatedBit ) == 0 )
 8005642:	682e      	ldr	r6, [r5, #0]
 8005644:	4226      	tst	r6, r4
 8005646:	d155      	bne.n	80056f4 <pvPortMalloc+0x108>
			if( xWantedSize > 0 )
 8005648:	2c00      	cmp	r4, #0
 800564a:	d046      	beq.n	80056da <pvPortMalloc+0xee>
				xWantedSize += xHeapStructSize;
 800564c:	f104 0308 	add.w	r3, r4, #8
				if( ( xWantedSize & portBYTE_ALIGNMENT_MASK ) != 0x00 )
 8005650:	0760      	lsls	r0, r4, #29
					xWantedSize += ( portBYTE_ALIGNMENT - ( xWantedSize & portBYTE_ALIGNMENT_MASK ) );
 8005652:	bf1c      	itt	ne
 8005654:	f023 0307 	bicne.w	r3, r3, #7
 8005658:	3308      	addne	r3, #8
			if( ( xWantedSize > 0 ) && ( xWantedSize <= xFreeBytesRemaining ) )
 800565a:	2b00      	cmp	r3, #0
 800565c:	d04a      	beq.n	80056f4 <pvPortMalloc+0x108>
 800565e:	4f2d      	ldr	r7, [pc, #180]	@ (8005714 <pvPortMalloc+0x128>)
 8005660:	683c      	ldr	r4, [r7, #0]
 8005662:	429c      	cmp	r4, r3
 8005664:	d346      	bcc.n	80056f4 <pvPortMalloc+0x108>
				pxBlock = xStart.pxNextFreeBlock;
 8005666:	4a29      	ldr	r2, [pc, #164]	@ (800570c <pvPortMalloc+0x120>)
 8005668:	6815      	ldr	r5, [r2, #0]
				while( ( pxBlock->xBlockSize < xWantedSize ) && ( pxBlock->pxNextFreeBlock != NULL ) )
 800566a:	6868      	ldr	r0, [r5, #4]
 800566c:	4298      	cmp	r0, r3
 800566e:	d204      	bcs.n	800567a <pvPortMalloc+0x8e>
 8005670:	f8d5 c000 	ldr.w	ip, [r5]
 8005674:	f1bc 0f00 	cmp.w	ip, #0
 8005678:	d115      	bne.n	80056a6 <pvPortMalloc+0xba>
				if( pxBlock != pxEnd )
 800567a:	6809      	ldr	r1, [r1, #0]
 800567c:	42a9      	cmp	r1, r5
 800567e:	d039      	beq.n	80056f4 <pvPortMalloc+0x108>
					pxPreviousBlock->pxNextFreeBlock = pxBlock->pxNextFreeBlock;
 8005680:	6829      	ldr	r1, [r5, #0]
					pvReturn = ( void * ) ( ( ( uint8_t * ) pxPreviousBlock->pxNextFreeBlock ) + xHeapStructSize );
 8005682:	f8d2 8000 	ldr.w	r8, [r2]
					pxPreviousBlock->pxNextFreeBlock = pxBlock->pxNextFreeBlock;
 8005686:	6011      	str	r1, [r2, #0]
					if( ( pxBlock->xBlockSize - xWantedSize ) > heapMINIMUM_BLOCK_SIZE )
 8005688:	1ac2      	subs	r2, r0, r3
 800568a:	2a10      	cmp	r2, #16
 800568c:	d912      	bls.n	80056b4 <pvPortMalloc+0xc8>
						pxNewBlockLink = ( void * ) ( ( ( uint8_t * ) pxBlock ) + xWantedSize );
 800568e:	18e8      	adds	r0, r5, r3
						configASSERT( ( ( ( size_t ) pxNewBlockLink ) & portBYTE_ALIGNMENT_MASK ) == 0 );
 8005690:	0741      	lsls	r1, r0, #29
 8005692:	d00b      	beq.n	80056ac <pvPortMalloc+0xc0>
 8005694:	f04f 0350 	mov.w	r3, #80	@ 0x50
 8005698:	f383 8811 	msr	BASEPRI, r3
 800569c:	f3bf 8f6f 	isb	sy
 80056a0:	f3bf 8f4f 	dsb	sy
 80056a4:	e7fe      	b.n	80056a4 <pvPortMalloc+0xb8>
 80056a6:	462a      	mov	r2, r5
 80056a8:	4665      	mov	r5, ip
 80056aa:	e7de      	b.n	800566a <pvPortMalloc+0x7e>
						pxNewBlockLink->xBlockSize = pxBlock->xBlockSize - xWantedSize;
 80056ac:	6042      	str	r2, [r0, #4]
						pxBlock->xBlockSize = xWantedSize;
 80056ae:	606b      	str	r3, [r5, #4]
						prvInsertBlockIntoFreeList( pxNewBlockLink );
 80056b0:	f7ff ff76 	bl	80055a0 <prvInsertBlockIntoFreeList>
					pxBlock->pxNextFreeBlock = NULL;
 80056b4:	2300      	movs	r3, #0
					xFreeBytesRemaining -= pxBlock->xBlockSize;
 80056b6:	686a      	ldr	r2, [r5, #4]
					if( xFreeBytesRemaining < xMinimumEverFreeBytesRemaining )
 80056b8:	4915      	ldr	r1, [pc, #84]	@ (8005710 <pvPortMalloc+0x124>)
					xFreeBytesRemaining -= pxBlock->xBlockSize;
 80056ba:	1aa4      	subs	r4, r4, r2
					pxBlock->xBlockSize |= xBlockAllocatedBit;
 80056bc:	4316      	orrs	r6, r2
					xNumberOfSuccessfulAllocations++;
 80056be:	4a16      	ldr	r2, [pc, #88]	@ (8005718 <pvPortMalloc+0x12c>)
					if( xFreeBytesRemaining < xMinimumEverFreeBytesRemaining )
 80056c0:	6808      	ldr	r0, [r1, #0]
					pxBlock->pxNextFreeBlock = NULL;
 80056c2:	602b      	str	r3, [r5, #0]
					xNumberOfSuccessfulAllocations++;
 80056c4:	6813      	ldr	r3, [r2, #0]
					if( xFreeBytesRemaining < xMinimumEverFreeBytesRemaining )
 80056c6:	4284      	cmp	r4, r0
					xNumberOfSuccessfulAllocations++;
 80056c8:	f103 0301 	add.w	r3, r3, #1
					xFreeBytesRemaining -= pxBlock->xBlockSize;
 80056cc:	603c      	str	r4, [r7, #0]
						xMinimumEverFreeBytesRemaining = xFreeBytesRemaining;
 80056ce:	bf38      	it	cc
 80056d0:	600c      	strcc	r4, [r1, #0]
					pxBlock->xBlockSize |= xBlockAllocatedBit;
 80056d2:	606e      	str	r6, [r5, #4]
					pvReturn = ( void * ) ( ( ( uint8_t * ) pxPreviousBlock->pxNextFreeBlock ) + xHeapStructSize );
 80056d4:	f108 0408 	add.w	r4, r8, #8
					xNumberOfSuccessfulAllocations++;
 80056d8:	6013      	str	r3, [r2, #0]
	( void ) xTaskResumeAll();
 80056da:	f7ff f8d1 	bl	8004880 <xTaskResumeAll>
	configASSERT( ( ( ( size_t ) pvReturn ) & ( size_t ) portBYTE_ALIGNMENT_MASK ) == 0 );
 80056de:	0763      	lsls	r3, r4, #29
 80056e0:	d00a      	beq.n	80056f8 <pvPortMalloc+0x10c>
 80056e2:	f04f 0350 	mov.w	r3, #80	@ 0x50
 80056e6:	f383 8811 	msr	BASEPRI, r3
 80056ea:	f3bf 8f6f 	isb	sy
 80056ee:	f3bf 8f4f 	dsb	sy
 80056f2:	e7fe      	b.n	80056f2 <pvPortMalloc+0x106>
void *pvReturn = NULL;
 80056f4:	2400      	movs	r4, #0
 80056f6:	e7f0      	b.n	80056da <pvPortMalloc+0xee>
}
 80056f8:	4620      	mov	r0, r4
 80056fa:	e8bd 81f0 	ldmia.w	sp!, {r4, r5, r6, r7, r8, pc}
 80056fe:	bf00      	nop
 8005700:	20001574 	.word	0x20001574
 8005704:	20001560 	.word	0x20001560
 8005708:	20001580 	.word	0x20001580
 800570c:	20001578 	.word	0x20001578
 8005710:	2000156c 	.word	0x2000156c
 8005714:	20001570 	.word	0x20001570
 8005718:	20001568 	.word	0x20001568

0800571c <vPortFree>:
{
 800571c:	b510      	push	{r4, lr}
	if( pv != NULL )
 800571e:	4604      	mov	r4, r0
 8005720:	b390      	cbz	r0, 8005788 <vPortFree+0x6c>
		configASSERT( ( pxLink->xBlockSize & xBlockAllocatedBit ) != 0 );
 8005722:	4a1a      	ldr	r2, [pc, #104]	@ (800578c <vPortFree+0x70>)
 8005724:	f850 3c04 	ldr.w	r3, [r0, #-4]
 8005728:	6812      	ldr	r2, [r2, #0]
 800572a:	4213      	tst	r3, r2
 800572c:	d108      	bne.n	8005740 <vPortFree+0x24>
 800572e:	f04f 0350 	mov.w	r3, #80	@ 0x50
 8005732:	f383 8811 	msr	BASEPRI, r3
 8005736:	f3bf 8f6f 	isb	sy
 800573a:	f3bf 8f4f 	dsb	sy
 800573e:	e7fe      	b.n	800573e <vPortFree+0x22>
		configASSERT( pxLink->pxNextFreeBlock == NULL );
 8005740:	f850 1c08 	ldr.w	r1, [r0, #-8]
 8005744:	b141      	cbz	r1, 8005758 <vPortFree+0x3c>
 8005746:	f04f 0350 	mov.w	r3, #80	@ 0x50
 800574a:	f383 8811 	msr	BASEPRI, r3
 800574e:	f3bf 8f6f 	isb	sy
 8005752:	f3bf 8f4f 	dsb	sy
 8005756:	e7fe      	b.n	8005756 <vPortFree+0x3a>
				pxLink->xBlockSize &= ~xBlockAllocatedBit;
 8005758:	ea23 0302 	bic.w	r3, r3, r2
 800575c:	f840 3c04 	str.w	r3, [r0, #-4]
				vTaskSuspendAll();
 8005760:	f7fe ffe8 	bl	8004734 <vTaskSuspendAll>
					xFreeBytesRemaining += pxLink->xBlockSize;
 8005764:	4a0a      	ldr	r2, [pc, #40]	@ (8005790 <vPortFree+0x74>)
 8005766:	f854 3c04 	ldr.w	r3, [r4, #-4]
 800576a:	6811      	ldr	r1, [r2, #0]
					prvInsertBlockIntoFreeList( ( ( BlockLink_t * ) pxLink ) );
 800576c:	f1a4 0008 	sub.w	r0, r4, #8
					xFreeBytesRemaining += pxLink->xBlockSize;
 8005770:	440b      	add	r3, r1
 8005772:	6013      	str	r3, [r2, #0]
					prvInsertBlockIntoFreeList( ( ( BlockLink_t * ) pxLink ) );
 8005774:	f7ff ff14 	bl	80055a0 <prvInsertBlockIntoFreeList>
}
 8005778:	e8bd 4010 	ldmia.w	sp!, {r4, lr}
					xNumberOfSuccessfulFrees++;
 800577c:	4a05      	ldr	r2, [pc, #20]	@ (8005794 <vPortFree+0x78>)
 800577e:	6813      	ldr	r3, [r2, #0]
 8005780:	3301      	adds	r3, #1
 8005782:	6013      	str	r3, [r2, #0]
				( void ) xTaskResumeAll();
 8005784:	f7ff b87c 	b.w	8004880 <xTaskResumeAll>
}
 8005788:	bd10      	pop	{r4, pc}
 800578a:	bf00      	nop
 800578c:	20001560 	.word	0x20001560
 8005790:	20001570 	.word	0x20001570
 8005794:	20001564 	.word	0x20001564

08005798 <siprintf>:
 8005798:	b40e      	push	{r1, r2, r3}
 800579a:	f06f 4100 	mvn.w	r1, #2147483648	@ 0x80000000
 800579e:	b500      	push	{lr}
 80057a0:	b09c      	sub	sp, #112	@ 0x70
 80057a2:	ab1d      	add	r3, sp, #116	@ 0x74
 80057a4:	9002      	str	r0, [sp, #8]
 80057a6:	9006      	str	r0, [sp, #24]
 80057a8:	9107      	str	r1, [sp, #28]
 80057aa:	9104      	str	r1, [sp, #16]
 80057ac:	4808      	ldr	r0, [pc, #32]	@ (80057d0 <siprintf+0x38>)
 80057ae:	4909      	ldr	r1, [pc, #36]	@ (80057d4 <siprintf+0x3c>)
 80057b0:	f853 2b04 	ldr.w	r2, [r3], #4
 80057b4:	9105      	str	r1, [sp, #20]
 80057b6:	6800      	ldr	r0, [r0, #0]
 80057b8:	a902      	add	r1, sp, #8
 80057ba:	9301      	str	r3, [sp, #4]
 80057bc:	f000 fa10 	bl	8005be0 <_svfiprintf_r>
 80057c0:	2200      	movs	r2, #0
 80057c2:	9b02      	ldr	r3, [sp, #8]
 80057c4:	701a      	strb	r2, [r3, #0]
 80057c6:	b01c      	add	sp, #112	@ 0x70
 80057c8:	f85d eb04 	ldr.w	lr, [sp], #4
 80057cc:	b003      	add	sp, #12
 80057ce:	4770      	bx	lr
 80057d0:	2000002c 	.word	0x2000002c
 80057d4:	ffff0208 	.word	0xffff0208

080057d8 <memmove>:
 80057d8:	4288      	cmp	r0, r1
 80057da:	b510      	push	{r4, lr}
 80057dc:	eb01 0402 	add.w	r4, r1, r2
 80057e0:	d902      	bls.n	80057e8 <memmove+0x10>
 80057e2:	4284      	cmp	r4, r0
 80057e4:	4623      	mov	r3, r4
 80057e6:	d807      	bhi.n	80057f8 <memmove+0x20>
 80057e8:	1e43      	subs	r3, r0, #1
 80057ea:	42a1      	cmp	r1, r4
 80057ec:	d008      	beq.n	8005800 <memmove+0x28>
 80057ee:	f811 2b01 	ldrb.w	r2, [r1], #1
 80057f2:	f803 2f01 	strb.w	r2, [r3, #1]!
 80057f6:	e7f8      	b.n	80057ea <memmove+0x12>
 80057f8:	4601      	mov	r1, r0
 80057fa:	4402      	add	r2, r0
 80057fc:	428a      	cmp	r2, r1
 80057fe:	d100      	bne.n	8005802 <memmove+0x2a>
 8005800:	bd10      	pop	{r4, pc}
 8005802:	f813 4d01 	ldrb.w	r4, [r3, #-1]!
 8005806:	f802 4d01 	strb.w	r4, [r2, #-1]!
 800580a:	e7f7      	b.n	80057fc <memmove+0x24>

0800580c <memset>:
 800580c:	4603      	mov	r3, r0
 800580e:	4402      	add	r2, r0
 8005810:	4293      	cmp	r3, r2
 8005812:	d100      	bne.n	8005816 <memset+0xa>
 8005814:	4770      	bx	lr
 8005816:	f803 1b01 	strb.w	r1, [r3], #1
 800581a:	e7f9      	b.n	8005810 <memset+0x4>

0800581c <_reclaim_reent>:
 800581c:	4b29      	ldr	r3, [pc, #164]	@ (80058c4 <_reclaim_reent+0xa8>)
 800581e:	b570      	push	{r4, r5, r6, lr}
 8005820:	681b      	ldr	r3, [r3, #0]
 8005822:	4604      	mov	r4, r0
 8005824:	4283      	cmp	r3, r0
 8005826:	d04b      	beq.n	80058c0 <_reclaim_reent+0xa4>
 8005828:	69c3      	ldr	r3, [r0, #28]
 800582a:	b1ab      	cbz	r3, 8005858 <_reclaim_reent+0x3c>
 800582c:	68db      	ldr	r3, [r3, #12]
 800582e:	b16b      	cbz	r3, 800584c <_reclaim_reent+0x30>
 8005830:	2500      	movs	r5, #0
 8005832:	69e3      	ldr	r3, [r4, #28]
 8005834:	68db      	ldr	r3, [r3, #12]
 8005836:	5959      	ldr	r1, [r3, r5]
 8005838:	2900      	cmp	r1, #0
 800583a:	d13b      	bne.n	80058b4 <_reclaim_reent+0x98>
 800583c:	3504      	adds	r5, #4
 800583e:	2d80      	cmp	r5, #128	@ 0x80
 8005840:	d1f7      	bne.n	8005832 <_reclaim_reent+0x16>
 8005842:	69e3      	ldr	r3, [r4, #28]
 8005844:	4620      	mov	r0, r4
 8005846:	68d9      	ldr	r1, [r3, #12]
 8005848:	f000 f878 	bl	800593c <_free_r>
 800584c:	69e3      	ldr	r3, [r4, #28]
 800584e:	6819      	ldr	r1, [r3, #0]
 8005850:	b111      	cbz	r1, 8005858 <_reclaim_reent+0x3c>
 8005852:	4620      	mov	r0, r4
 8005854:	f000 f872 	bl	800593c <_free_r>
 8005858:	6961      	ldr	r1, [r4, #20]
 800585a:	b111      	cbz	r1, 8005862 <_reclaim_reent+0x46>
 800585c:	4620      	mov	r0, r4
 800585e:	f000 f86d 	bl	800593c <_free_r>
 8005862:	69e1      	ldr	r1, [r4, #28]
 8005864:	b111      	cbz	r1, 800586c <_reclaim_reent+0x50>
 8005866:	4620      	mov	r0, r4
 8005868:	f000 f868 	bl	800593c <_free_r>
 800586c:	6b21      	ldr	r1, [r4, #48]	@ 0x30
 800586e:	b111      	cbz	r1, 8005876 <_reclaim_reent+0x5a>
 8005870:	4620      	mov	r0, r4
 8005872:	f000 f863 	bl	800593c <_free_r>
 8005876:	6b61      	ldr	r1, [r4, #52]	@ 0x34
 8005878:	b111      	cbz	r1, 8005880 <_reclaim_reent+0x64>
 800587a:	4620      	mov	r0, r4
 800587c:	f000 f85e 	bl	800593c <_free_r>
 8005880:	6ba1      	ldr	r1, [r4, #56]	@ 0x38
 8005882:	b111      	cbz	r1, 800588a <_reclaim_reent+0x6e>
 8005884:	4620      	mov	r0, r4
 8005886:	f000 f859 	bl	800593c <_free_r>
 800588a:	6ca1      	ldr	r1, [r4, #72]	@ 0x48
 800588c:	b111      	cbz	r1, 8005894 <_reclaim_reent+0x78>
 800588e:	4620      	mov	r0, r4
 8005890:	f000 f854 	bl	800593c <_free_r>
 8005894:	6c61      	ldr	r1, [r4, #68]	@ 0x44
 8005896:	b111      	cbz	r1, 800589e <_reclaim_reent+0x82>
 8005898:	4620      	mov	r0, r4
 800589a:	f000 f84f 	bl	800593c <_free_r>
 800589e:	6ae1      	ldr	r1, [r4, #44]	@ 0x2c
 80058a0:	b111      	cbz	r1, 80058a8 <_reclaim_reent+0x8c>
 80058a2:	4620      	mov	r0, r4
 80058a4:	f000 f84a 	bl	800593c <_free_r>
 80058a8:	6a23      	ldr	r3, [r4, #32]
 80058aa:	b14b      	cbz	r3, 80058c0 <_reclaim_reent+0xa4>
 80058ac:	4620      	mov	r0, r4
 80058ae:	e8bd 4070 	ldmia.w	sp!, {r4, r5, r6, lr}
 80058b2:	4718      	bx	r3
 80058b4:	680e      	ldr	r6, [r1, #0]
 80058b6:	4620      	mov	r0, r4
 80058b8:	f000 f840 	bl	800593c <_free_r>
 80058bc:	4631      	mov	r1, r6
 80058be:	e7bb      	b.n	8005838 <_reclaim_reent+0x1c>
 80058c0:	bd70      	pop	{r4, r5, r6, pc}
 80058c2:	bf00      	nop
 80058c4:	2000002c 	.word	0x2000002c

080058c8 <__errno>:
 80058c8:	4b01      	ldr	r3, [pc, #4]	@ (80058d0 <__errno+0x8>)
 80058ca:	6818      	ldr	r0, [r3, #0]
 80058cc:	4770      	bx	lr
 80058ce:	bf00      	nop
 80058d0:	2000002c 	.word	0x2000002c

080058d4 <__libc_init_array>:
 80058d4:	b570      	push	{r4, r5, r6, lr}
 80058d6:	2600      	movs	r6, #0
 80058d8:	4d0c      	ldr	r5, [pc, #48]	@ (800590c <__libc_init_array+0x38>)
 80058da:	4c0d      	ldr	r4, [pc, #52]	@ (8005910 <__libc_init_array+0x3c>)
 80058dc:	1b64      	subs	r4, r4, r5
 80058de:	10a4      	asrs	r4, r4, #2
 80058e0:	42a6      	cmp	r6, r4
 80058e2:	d109      	bne.n	80058f8 <__libc_init_array+0x24>
 80058e4:	f000 fc5e 	bl	80061a4 <_init>
 80058e8:	2600      	movs	r6, #0
 80058ea:	4d0a      	ldr	r5, [pc, #40]	@ (8005914 <__libc_init_array+0x40>)
 80058ec:	4c0a      	ldr	r4, [pc, #40]	@ (8005918 <__libc_init_array+0x44>)
 80058ee:	1b64      	subs	r4, r4, r5
 80058f0:	10a4      	asrs	r4, r4, #2
 80058f2:	42a6      	cmp	r6, r4
 80058f4:	d105      	bne.n	8005902 <__libc_init_array+0x2e>
 80058f6:	bd70      	pop	{r4, r5, r6, pc}
 80058f8:	f855 3b04 	ldr.w	r3, [r5], #4
 80058fc:	4798      	blx	r3
 80058fe:	3601      	adds	r6, #1
 8005900:	e7ee      	b.n	80058e0 <__libc_init_array+0xc>
 8005902:	f855 3b04 	ldr.w	r3, [r5], #4
 8005906:	4798      	blx	r3
 8005908:	3601      	adds	r6, #1
 800590a:	e7f2      	b.n	80058f2 <__libc_init_array+0x1e>
 800590c:	08007128 	.word	0x08007128
 8005910:	08007128 	.word	0x08007128
 8005914:	08007128 	.word	0x08007128
 8005918:	0800712c 	.word	0x0800712c

0800591c <__retarget_lock_acquire_recursive>:
 800591c:	4770      	bx	lr

0800591e <__retarget_lock_release_recursive>:
 800591e:	4770      	bx	lr

08005920 <memcpy>:
 8005920:	440a      	add	r2, r1
 8005922:	4291      	cmp	r1, r2
 8005924:	f100 33ff 	add.w	r3, r0, #4294967295	@ 0xffffffff
 8005928:	d100      	bne.n	800592c <memcpy+0xc>
 800592a:	4770      	bx	lr
 800592c:	b510      	push	{r4, lr}
 800592e:	f811 4b01 	ldrb.w	r4, [r1], #1
 8005932:	4291      	cmp	r1, r2
 8005934:	f803 4f01 	strb.w	r4, [r3, #1]!
 8005938:	d1f9      	bne.n	800592e <memcpy+0xe>
 800593a:	bd10      	pop	{r4, pc}

0800593c <_free_r>:
 800593c:	b538      	push	{r3, r4, r5, lr}
 800593e:	4605      	mov	r5, r0
 8005940:	2900      	cmp	r1, #0
 8005942:	d040      	beq.n	80059c6 <_free_r+0x8a>
 8005944:	f851 3c04 	ldr.w	r3, [r1, #-4]
 8005948:	1f0c      	subs	r4, r1, #4
 800594a:	2b00      	cmp	r3, #0
 800594c:	bfb8      	it	lt
 800594e:	18e4      	addlt	r4, r4, r3
 8005950:	f000 f8de 	bl	8005b10 <__malloc_lock>
 8005954:	4a1c      	ldr	r2, [pc, #112]	@ (80059c8 <_free_r+0x8c>)
 8005956:	6813      	ldr	r3, [r2, #0]
 8005958:	b933      	cbnz	r3, 8005968 <_free_r+0x2c>
 800595a:	6063      	str	r3, [r4, #4]
 800595c:	6014      	str	r4, [r2, #0]
 800595e:	4628      	mov	r0, r5
 8005960:	e8bd 4038 	ldmia.w	sp!, {r3, r4, r5, lr}
 8005964:	f000 b8da 	b.w	8005b1c <__malloc_unlock>
 8005968:	42a3      	cmp	r3, r4
 800596a:	d908      	bls.n	800597e <_free_r+0x42>
 800596c:	6820      	ldr	r0, [r4, #0]
 800596e:	1821      	adds	r1, r4, r0
 8005970:	428b      	cmp	r3, r1
 8005972:	bf01      	itttt	eq
 8005974:	6819      	ldreq	r1, [r3, #0]
 8005976:	685b      	ldreq	r3, [r3, #4]
 8005978:	1809      	addeq	r1, r1, r0
 800597a:	6021      	streq	r1, [r4, #0]
 800597c:	e7ed      	b.n	800595a <_free_r+0x1e>
 800597e:	461a      	mov	r2, r3
 8005980:	685b      	ldr	r3, [r3, #4]
 8005982:	b10b      	cbz	r3, 8005988 <_free_r+0x4c>
 8005984:	42a3      	cmp	r3, r4
 8005986:	d9fa      	bls.n	800597e <_free_r+0x42>
 8005988:	6811      	ldr	r1, [r2, #0]
 800598a:	1850      	adds	r0, r2, r1
 800598c:	42a0      	cmp	r0, r4
 800598e:	d10b      	bne.n	80059a8 <_free_r+0x6c>
 8005990:	6820      	ldr	r0, [r4, #0]
 8005992:	4401      	add	r1, r0
 8005994:	1850      	adds	r0, r2, r1
 8005996:	4283      	cmp	r3, r0
 8005998:	6011      	str	r1, [r2, #0]
 800599a:	d1e0      	bne.n	800595e <_free_r+0x22>
 800599c:	6818      	ldr	r0, [r3, #0]
 800599e:	685b      	ldr	r3, [r3, #4]
 80059a0:	4408      	add	r0, r1
 80059a2:	6010      	str	r0, [r2, #0]
 80059a4:	6053      	str	r3, [r2, #4]
 80059a6:	e7da      	b.n	800595e <_free_r+0x22>
 80059a8:	d902      	bls.n	80059b0 <_free_r+0x74>
 80059aa:	230c      	movs	r3, #12
 80059ac:	602b      	str	r3, [r5, #0]
 80059ae:	e7d6      	b.n	800595e <_free_r+0x22>
 80059b0:	6820      	ldr	r0, [r4, #0]
 80059b2:	1821      	adds	r1, r4, r0
 80059b4:	428b      	cmp	r3, r1
 80059b6:	bf01      	itttt	eq
 80059b8:	6819      	ldreq	r1, [r3, #0]
 80059ba:	685b      	ldreq	r3, [r3, #4]
 80059bc:	1809      	addeq	r1, r1, r0
 80059be:	6021      	streq	r1, [r4, #0]
 80059c0:	6063      	str	r3, [r4, #4]
 80059c2:	6054      	str	r4, [r2, #4]
 80059c4:	e7cb      	b.n	800595e <_free_r+0x22>
 80059c6:	bd38      	pop	{r3, r4, r5, pc}
 80059c8:	200021b4 	.word	0x200021b4

080059cc <sbrk_aligned>:
 80059cc:	b570      	push	{r4, r5, r6, lr}
 80059ce:	4e0f      	ldr	r6, [pc, #60]	@ (8005a0c <sbrk_aligned+0x40>)
 80059d0:	460c      	mov	r4, r1
 80059d2:	6831      	ldr	r1, [r6, #0]
 80059d4:	4605      	mov	r5, r0
 80059d6:	b911      	cbnz	r1, 80059de <sbrk_aligned+0x12>
 80059d8:	f000 fb90 	bl	80060fc <_sbrk_r>
 80059dc:	6030      	str	r0, [r6, #0]
 80059de:	4621      	mov	r1, r4
 80059e0:	4628      	mov	r0, r5
 80059e2:	f000 fb8b 	bl	80060fc <_sbrk_r>
 80059e6:	1c43      	adds	r3, r0, #1
 80059e8:	d103      	bne.n	80059f2 <sbrk_aligned+0x26>
 80059ea:	f04f 34ff 	mov.w	r4, #4294967295	@ 0xffffffff
 80059ee:	4620      	mov	r0, r4
 80059f0:	bd70      	pop	{r4, r5, r6, pc}
 80059f2:	1cc4      	adds	r4, r0, #3
 80059f4:	f024 0403 	bic.w	r4, r4, #3
 80059f8:	42a0      	cmp	r0, r4
 80059fa:	d0f8      	beq.n	80059ee <sbrk_aligned+0x22>
 80059fc:	1a21      	subs	r1, r4, r0
 80059fe:	4628      	mov	r0, r5
 8005a00:	f000 fb7c 	bl	80060fc <_sbrk_r>
 8005a04:	3001      	adds	r0, #1
 8005a06:	d1f2      	bne.n	80059ee <sbrk_aligned+0x22>
 8005a08:	e7ef      	b.n	80059ea <sbrk_aligned+0x1e>
 8005a0a:	bf00      	nop
 8005a0c:	200021b0 	.word	0x200021b0

08005a10 <_malloc_r>:
 8005a10:	e92d 43f8 	stmdb	sp!, {r3, r4, r5, r6, r7, r8, r9, lr}
 8005a14:	1ccd      	adds	r5, r1, #3
 8005a16:	f025 0503 	bic.w	r5, r5, #3
 8005a1a:	3508      	adds	r5, #8
 8005a1c:	2d0c      	cmp	r5, #12
 8005a1e:	bf38      	it	cc
 8005a20:	250c      	movcc	r5, #12
 8005a22:	2d00      	cmp	r5, #0
 8005a24:	4606      	mov	r6, r0
 8005a26:	db01      	blt.n	8005a2c <_malloc_r+0x1c>
 8005a28:	42a9      	cmp	r1, r5
 8005a2a:	d904      	bls.n	8005a36 <_malloc_r+0x26>
 8005a2c:	230c      	movs	r3, #12
 8005a2e:	6033      	str	r3, [r6, #0]
 8005a30:	2000      	movs	r0, #0
 8005a32:	e8bd 83f8 	ldmia.w	sp!, {r3, r4, r5, r6, r7, r8, r9, pc}
 8005a36:	f8df 80d4 	ldr.w	r8, [pc, #212]	@ 8005b0c <_malloc_r+0xfc>
 8005a3a:	f000 f869 	bl	8005b10 <__malloc_lock>
 8005a3e:	f8d8 3000 	ldr.w	r3, [r8]
 8005a42:	461c      	mov	r4, r3
 8005a44:	bb44      	cbnz	r4, 8005a98 <_malloc_r+0x88>
 8005a46:	4629      	mov	r1, r5
 8005a48:	4630      	mov	r0, r6
 8005a4a:	f7ff ffbf 	bl	80059cc <sbrk_aligned>
 8005a4e:	1c43      	adds	r3, r0, #1
 8005a50:	4604      	mov	r4, r0
 8005a52:	d158      	bne.n	8005b06 <_malloc_r+0xf6>
 8005a54:	f8d8 4000 	ldr.w	r4, [r8]
 8005a58:	4627      	mov	r7, r4
 8005a5a:	2f00      	cmp	r7, #0
 8005a5c:	d143      	bne.n	8005ae6 <_malloc_r+0xd6>
 8005a5e:	2c00      	cmp	r4, #0
 8005a60:	d04b      	beq.n	8005afa <_malloc_r+0xea>
 8005a62:	6823      	ldr	r3, [r4, #0]
 8005a64:	4639      	mov	r1, r7
 8005a66:	4630      	mov	r0, r6
 8005a68:	eb04 0903 	add.w	r9, r4, r3
 8005a6c:	f000 fb46 	bl	80060fc <_sbrk_r>
 8005a70:	4581      	cmp	r9, r0
 8005a72:	d142      	bne.n	8005afa <_malloc_r+0xea>
 8005a74:	6821      	ldr	r1, [r4, #0]
 8005a76:	4630      	mov	r0, r6
 8005a78:	1a6d      	subs	r5, r5, r1
 8005a7a:	4629      	mov	r1, r5
 8005a7c:	f7ff ffa6 	bl	80059cc <sbrk_aligned>
 8005a80:	3001      	adds	r0, #1
 8005a82:	d03a      	beq.n	8005afa <_malloc_r+0xea>
 8005a84:	6823      	ldr	r3, [r4, #0]
 8005a86:	442b      	add	r3, r5
 8005a88:	6023      	str	r3, [r4, #0]
 8005a8a:	f8d8 3000 	ldr.w	r3, [r8]
 8005a8e:	685a      	ldr	r2, [r3, #4]
 8005a90:	bb62      	cbnz	r2, 8005aec <_malloc_r+0xdc>
 8005a92:	f8c8 7000 	str.w	r7, [r8]
 8005a96:	e00f      	b.n	8005ab8 <_malloc_r+0xa8>
 8005a98:	6822      	ldr	r2, [r4, #0]
 8005a9a:	1b52      	subs	r2, r2, r5
 8005a9c:	d420      	bmi.n	8005ae0 <_malloc_r+0xd0>
 8005a9e:	2a0b      	cmp	r2, #11
 8005aa0:	d917      	bls.n	8005ad2 <_malloc_r+0xc2>
 8005aa2:	1961      	adds	r1, r4, r5
 8005aa4:	42a3      	cmp	r3, r4
 8005aa6:	6025      	str	r5, [r4, #0]
 8005aa8:	bf18      	it	ne
 8005aaa:	6059      	strne	r1, [r3, #4]
 8005aac:	6863      	ldr	r3, [r4, #4]
 8005aae:	bf08      	it	eq
 8005ab0:	f8c8 1000 	streq.w	r1, [r8]
 8005ab4:	5162      	str	r2, [r4, r5]
 8005ab6:	604b      	str	r3, [r1, #4]
 8005ab8:	4630      	mov	r0, r6
 8005aba:	f000 f82f 	bl	8005b1c <__malloc_unlock>
 8005abe:	f104 000b 	add.w	r0, r4, #11
 8005ac2:	1d23      	adds	r3, r4, #4
 8005ac4:	f020 0007 	bic.w	r0, r0, #7
 8005ac8:	1ac2      	subs	r2, r0, r3
 8005aca:	bf1c      	itt	ne
 8005acc:	1a1b      	subne	r3, r3, r0
 8005ace:	50a3      	strne	r3, [r4, r2]
 8005ad0:	e7af      	b.n	8005a32 <_malloc_r+0x22>
 8005ad2:	6862      	ldr	r2, [r4, #4]
 8005ad4:	42a3      	cmp	r3, r4
 8005ad6:	bf0c      	ite	eq
 8005ad8:	f8c8 2000 	streq.w	r2, [r8]
 8005adc:	605a      	strne	r2, [r3, #4]
 8005ade:	e7eb      	b.n	8005ab8 <_malloc_r+0xa8>
 8005ae0:	4623      	mov	r3, r4
 8005ae2:	6864      	ldr	r4, [r4, #4]
 8005ae4:	e7ae      	b.n	8005a44 <_malloc_r+0x34>
 8005ae6:	463c      	mov	r4, r7
 8005ae8:	687f      	ldr	r7, [r7, #4]
 8005aea:	e7b6      	b.n	8005a5a <_malloc_r+0x4a>
 8005aec:	461a      	mov	r2, r3
 8005aee:	685b      	ldr	r3, [r3, #4]
 8005af0:	42a3      	cmp	r3, r4
 8005af2:	d1fb      	bne.n	8005aec <_malloc_r+0xdc>
 8005af4:	2300      	movs	r3, #0
 8005af6:	6053      	str	r3, [r2, #4]
 8005af8:	e7de      	b.n	8005ab8 <_malloc_r+0xa8>
 8005afa:	230c      	movs	r3, #12
 8005afc:	4630      	mov	r0, r6
 8005afe:	6033      	str	r3, [r6, #0]
 8005b00:	f000 f80c 	bl	8005b1c <__malloc_unlock>
 8005b04:	e794      	b.n	8005a30 <_malloc_r+0x20>
 8005b06:	6005      	str	r5, [r0, #0]
 8005b08:	e7d6      	b.n	8005ab8 <_malloc_r+0xa8>
 8005b0a:	bf00      	nop
 8005b0c:	200021b4 	.word	0x200021b4

08005b10 <__malloc_lock>:
 8005b10:	4801      	ldr	r0, [pc, #4]	@ (8005b18 <__malloc_lock+0x8>)
 8005b12:	f7ff bf03 	b.w	800591c <__retarget_lock_acquire_recursive>
 8005b16:	bf00      	nop
 8005b18:	200021ac 	.word	0x200021ac

08005b1c <__malloc_unlock>:
 8005b1c:	4801      	ldr	r0, [pc, #4]	@ (8005b24 <__malloc_unlock+0x8>)
 8005b1e:	f7ff befe 	b.w	800591e <__retarget_lock_release_recursive>
 8005b22:	bf00      	nop
 8005b24:	200021ac 	.word	0x200021ac

08005b28 <__ssputs_r>:
 8005b28:	e92d 47f0 	stmdb	sp!, {r4, r5, r6, r7, r8, r9, sl, lr}
 8005b2c:	461f      	mov	r7, r3
 8005b2e:	688e      	ldr	r6, [r1, #8]
 8005b30:	4682      	mov	sl, r0
 8005b32:	42be      	cmp	r6, r7
 8005b34:	460c      	mov	r4, r1
 8005b36:	4690      	mov	r8, r2
 8005b38:	680b      	ldr	r3, [r1, #0]
 8005b3a:	d82d      	bhi.n	8005b98 <__ssputs_r+0x70>
 8005b3c:	f9b1 200c 	ldrsh.w	r2, [r1, #12]
 8005b40:	f412 6f90 	tst.w	r2, #1152	@ 0x480
 8005b44:	d026      	beq.n	8005b94 <__ssputs_r+0x6c>
 8005b46:	6965      	ldr	r5, [r4, #20]
 8005b48:	6909      	ldr	r1, [r1, #16]
 8005b4a:	eb05 0545 	add.w	r5, r5, r5, lsl #1
 8005b4e:	eba3 0901 	sub.w	r9, r3, r1
 8005b52:	eb05 75d5 	add.w	r5, r5, r5, lsr #31
 8005b56:	1c7b      	adds	r3, r7, #1
 8005b58:	444b      	add	r3, r9
 8005b5a:	106d      	asrs	r5, r5, #1
 8005b5c:	429d      	cmp	r5, r3
 8005b5e:	bf38      	it	cc
 8005b60:	461d      	movcc	r5, r3
 8005b62:	0553      	lsls	r3, r2, #21
 8005b64:	d527      	bpl.n	8005bb6 <__ssputs_r+0x8e>
 8005b66:	4629      	mov	r1, r5
 8005b68:	f7ff ff52 	bl	8005a10 <_malloc_r>
 8005b6c:	4606      	mov	r6, r0
 8005b6e:	b360      	cbz	r0, 8005bca <__ssputs_r+0xa2>
 8005b70:	464a      	mov	r2, r9
 8005b72:	6921      	ldr	r1, [r4, #16]
 8005b74:	f7ff fed4 	bl	8005920 <memcpy>
 8005b78:	89a3      	ldrh	r3, [r4, #12]
 8005b7a:	f423 6390 	bic.w	r3, r3, #1152	@ 0x480
 8005b7e:	f043 0380 	orr.w	r3, r3, #128	@ 0x80
 8005b82:	81a3      	strh	r3, [r4, #12]
 8005b84:	6126      	str	r6, [r4, #16]
 8005b86:	444e      	add	r6, r9
 8005b88:	6026      	str	r6, [r4, #0]
 8005b8a:	463e      	mov	r6, r7
 8005b8c:	6165      	str	r5, [r4, #20]
 8005b8e:	eba5 0509 	sub.w	r5, r5, r9
 8005b92:	60a5      	str	r5, [r4, #8]
 8005b94:	42be      	cmp	r6, r7
 8005b96:	d900      	bls.n	8005b9a <__ssputs_r+0x72>
 8005b98:	463e      	mov	r6, r7
 8005b9a:	4632      	mov	r2, r6
 8005b9c:	4641      	mov	r1, r8
 8005b9e:	6820      	ldr	r0, [r4, #0]
 8005ba0:	f7ff fe1a 	bl	80057d8 <memmove>
 8005ba4:	2000      	movs	r0, #0
 8005ba6:	68a3      	ldr	r3, [r4, #8]
 8005ba8:	1b9b      	subs	r3, r3, r6
 8005baa:	60a3      	str	r3, [r4, #8]
 8005bac:	6823      	ldr	r3, [r4, #0]
 8005bae:	4433      	add	r3, r6
 8005bb0:	6023      	str	r3, [r4, #0]
 8005bb2:	e8bd 87f0 	ldmia.w	sp!, {r4, r5, r6, r7, r8, r9, sl, pc}
 8005bb6:	462a      	mov	r2, r5
 8005bb8:	f000 fabe 	bl	8006138 <_realloc_r>
 8005bbc:	4606      	mov	r6, r0
 8005bbe:	2800      	cmp	r0, #0
 8005bc0:	d1e0      	bne.n	8005b84 <__ssputs_r+0x5c>
 8005bc2:	4650      	mov	r0, sl
 8005bc4:	6921      	ldr	r1, [r4, #16]
 8005bc6:	f7ff feb9 	bl	800593c <_free_r>
 8005bca:	230c      	movs	r3, #12
 8005bcc:	f8ca 3000 	str.w	r3, [sl]
 8005bd0:	89a3      	ldrh	r3, [r4, #12]
 8005bd2:	f04f 30ff 	mov.w	r0, #4294967295	@ 0xffffffff
 8005bd6:	f043 0340 	orr.w	r3, r3, #64	@ 0x40
 8005bda:	81a3      	strh	r3, [r4, #12]
 8005bdc:	e7e9      	b.n	8005bb2 <__ssputs_r+0x8a>
	...

08005be0 <_svfiprintf_r>:
 8005be0:	e92d 4ff0 	stmdb	sp!, {r4, r5, r6, r7, r8, r9, sl, fp, lr}
 8005be4:	4698      	mov	r8, r3
 8005be6:	898b      	ldrh	r3, [r1, #12]
 8005be8:	4607      	mov	r7, r0
 8005bea:	061b      	lsls	r3, r3, #24
 8005bec:	460d      	mov	r5, r1
 8005bee:	4614      	mov	r4, r2
 8005bf0:	b09d      	sub	sp, #116	@ 0x74
 8005bf2:	d510      	bpl.n	8005c16 <_svfiprintf_r+0x36>
 8005bf4:	690b      	ldr	r3, [r1, #16]
 8005bf6:	b973      	cbnz	r3, 8005c16 <_svfiprintf_r+0x36>
 8005bf8:	2140      	movs	r1, #64	@ 0x40
 8005bfa:	f7ff ff09 	bl	8005a10 <_malloc_r>
 8005bfe:	6028      	str	r0, [r5, #0]
 8005c00:	6128      	str	r0, [r5, #16]
 8005c02:	b930      	cbnz	r0, 8005c12 <_svfiprintf_r+0x32>
 8005c04:	230c      	movs	r3, #12
 8005c06:	603b      	str	r3, [r7, #0]
 8005c08:	f04f 30ff 	mov.w	r0, #4294967295	@ 0xffffffff
 8005c0c:	b01d      	add	sp, #116	@ 0x74
 8005c0e:	e8bd 8ff0 	ldmia.w	sp!, {r4, r5, r6, r7, r8, r9, sl, fp, pc}
 8005c12:	2340      	movs	r3, #64	@ 0x40
 8005c14:	616b      	str	r3, [r5, #20]
 8005c16:	2300      	movs	r3, #0
 8005c18:	9309      	str	r3, [sp, #36]	@ 0x24
 8005c1a:	2320      	movs	r3, #32
 8005c1c:	f88d 3029 	strb.w	r3, [sp, #41]	@ 0x29
 8005c20:	2330      	movs	r3, #48	@ 0x30
 8005c22:	f04f 0901 	mov.w	r9, #1
 8005c26:	f8cd 800c 	str.w	r8, [sp, #12]
 8005c2a:	f8df 8198 	ldr.w	r8, [pc, #408]	@ 8005dc4 <_svfiprintf_r+0x1e4>
 8005c2e:	f88d 302a 	strb.w	r3, [sp, #42]	@ 0x2a
 8005c32:	4623      	mov	r3, r4
 8005c34:	469a      	mov	sl, r3
 8005c36:	f813 2b01 	ldrb.w	r2, [r3], #1
 8005c3a:	b10a      	cbz	r2, 8005c40 <_svfiprintf_r+0x60>
 8005c3c:	2a25      	cmp	r2, #37	@ 0x25
 8005c3e:	d1f9      	bne.n	8005c34 <_svfiprintf_r+0x54>
 8005c40:	ebba 0b04 	subs.w	fp, sl, r4
 8005c44:	d00b      	beq.n	8005c5e <_svfiprintf_r+0x7e>
 8005c46:	465b      	mov	r3, fp
 8005c48:	4622      	mov	r2, r4
 8005c4a:	4629      	mov	r1, r5
 8005c4c:	4638      	mov	r0, r7
 8005c4e:	f7ff ff6b 	bl	8005b28 <__ssputs_r>
 8005c52:	3001      	adds	r0, #1
 8005c54:	f000 80a7 	beq.w	8005da6 <_svfiprintf_r+0x1c6>
 8005c58:	9a09      	ldr	r2, [sp, #36]	@ 0x24
 8005c5a:	445a      	add	r2, fp
 8005c5c:	9209      	str	r2, [sp, #36]	@ 0x24
 8005c5e:	f89a 3000 	ldrb.w	r3, [sl]
 8005c62:	2b00      	cmp	r3, #0
 8005c64:	f000 809f 	beq.w	8005da6 <_svfiprintf_r+0x1c6>
 8005c68:	2300      	movs	r3, #0
 8005c6a:	f04f 32ff 	mov.w	r2, #4294967295	@ 0xffffffff
 8005c6e:	e9cd 2305 	strd	r2, r3, [sp, #20]
 8005c72:	f10a 0a01 	add.w	sl, sl, #1
 8005c76:	9304      	str	r3, [sp, #16]
 8005c78:	9307      	str	r3, [sp, #28]
 8005c7a:	f88d 3053 	strb.w	r3, [sp, #83]	@ 0x53
 8005c7e:	931a      	str	r3, [sp, #104]	@ 0x68
 8005c80:	4654      	mov	r4, sl
 8005c82:	2205      	movs	r2, #5
 8005c84:	f814 1b01 	ldrb.w	r1, [r4], #1
 8005c88:	484e      	ldr	r0, [pc, #312]	@ (8005dc4 <_svfiprintf_r+0x1e4>)
 8005c8a:	f000 fa47 	bl	800611c <memchr>
 8005c8e:	9a04      	ldr	r2, [sp, #16]
 8005c90:	b9d8      	cbnz	r0, 8005cca <_svfiprintf_r+0xea>
 8005c92:	06d0      	lsls	r0, r2, #27
 8005c94:	bf44      	itt	mi
 8005c96:	2320      	movmi	r3, #32
 8005c98:	f88d 3053 	strbmi.w	r3, [sp, #83]	@ 0x53
 8005c9c:	0711      	lsls	r1, r2, #28
 8005c9e:	bf44      	itt	mi
 8005ca0:	232b      	movmi	r3, #43	@ 0x2b
 8005ca2:	f88d 3053 	strbmi.w	r3, [sp, #83]	@ 0x53
 8005ca6:	f89a 3000 	ldrb.w	r3, [sl]
 8005caa:	2b2a      	cmp	r3, #42	@ 0x2a
 8005cac:	d015      	beq.n	8005cda <_svfiprintf_r+0xfa>
 8005cae:	4654      	mov	r4, sl
 8005cb0:	2000      	movs	r0, #0
 8005cb2:	f04f 0c0a 	mov.w	ip, #10
 8005cb6:	9a07      	ldr	r2, [sp, #28]
 8005cb8:	4621      	mov	r1, r4
 8005cba:	f811 3b01 	ldrb.w	r3, [r1], #1
 8005cbe:	3b30      	subs	r3, #48	@ 0x30
 8005cc0:	2b09      	cmp	r3, #9
 8005cc2:	d94b      	bls.n	8005d5c <_svfiprintf_r+0x17c>
 8005cc4:	b1b0      	cbz	r0, 8005cf4 <_svfiprintf_r+0x114>
 8005cc6:	9207      	str	r2, [sp, #28]
 8005cc8:	e014      	b.n	8005cf4 <_svfiprintf_r+0x114>
 8005cca:	eba0 0308 	sub.w	r3, r0, r8
 8005cce:	fa09 f303 	lsl.w	r3, r9, r3
 8005cd2:	4313      	orrs	r3, r2
 8005cd4:	46a2      	mov	sl, r4
 8005cd6:	9304      	str	r3, [sp, #16]
 8005cd8:	e7d2      	b.n	8005c80 <_svfiprintf_r+0xa0>
 8005cda:	9b03      	ldr	r3, [sp, #12]
 8005cdc:	1d19      	adds	r1, r3, #4
 8005cde:	681b      	ldr	r3, [r3, #0]
 8005ce0:	9103      	str	r1, [sp, #12]
 8005ce2:	2b00      	cmp	r3, #0
 8005ce4:	bfbb      	ittet	lt
 8005ce6:	425b      	neglt	r3, r3
 8005ce8:	f042 0202 	orrlt.w	r2, r2, #2
 8005cec:	9307      	strge	r3, [sp, #28]
 8005cee:	9307      	strlt	r3, [sp, #28]
 8005cf0:	bfb8      	it	lt
 8005cf2:	9204      	strlt	r2, [sp, #16]
 8005cf4:	7823      	ldrb	r3, [r4, #0]
 8005cf6:	2b2e      	cmp	r3, #46	@ 0x2e
 8005cf8:	d10a      	bne.n	8005d10 <_svfiprintf_r+0x130>
 8005cfa:	7863      	ldrb	r3, [r4, #1]
 8005cfc:	2b2a      	cmp	r3, #42	@ 0x2a
 8005cfe:	d132      	bne.n	8005d66 <_svfiprintf_r+0x186>
 8005d00:	9b03      	ldr	r3, [sp, #12]
 8005d02:	3402      	adds	r4, #2
 8005d04:	1d1a      	adds	r2, r3, #4
 8005d06:	681b      	ldr	r3, [r3, #0]
 8005d08:	9203      	str	r2, [sp, #12]
 8005d0a:	ea43 73e3 	orr.w	r3, r3, r3, asr #31
 8005d0e:	9305      	str	r3, [sp, #20]
 8005d10:	f8df a0b4 	ldr.w	sl, [pc, #180]	@ 8005dc8 <_svfiprintf_r+0x1e8>
 8005d14:	2203      	movs	r2, #3
 8005d16:	4650      	mov	r0, sl
 8005d18:	7821      	ldrb	r1, [r4, #0]
 8005d1a:	f000 f9ff 	bl	800611c <memchr>
 8005d1e:	b138      	cbz	r0, 8005d30 <_svfiprintf_r+0x150>
 8005d20:	2240      	movs	r2, #64	@ 0x40
 8005d22:	9b04      	ldr	r3, [sp, #16]
 8005d24:	eba0 000a 	sub.w	r0, r0, sl
 8005d28:	4082      	lsls	r2, r0
 8005d2a:	4313      	orrs	r3, r2
 8005d2c:	3401      	adds	r4, #1
 8005d2e:	9304      	str	r3, [sp, #16]
 8005d30:	f814 1b01 	ldrb.w	r1, [r4], #1
 8005d34:	2206      	movs	r2, #6
 8005d36:	4825      	ldr	r0, [pc, #148]	@ (8005dcc <_svfiprintf_r+0x1ec>)
 8005d38:	f88d 1028 	strb.w	r1, [sp, #40]	@ 0x28
 8005d3c:	f000 f9ee 	bl	800611c <memchr>
 8005d40:	2800      	cmp	r0, #0
 8005d42:	d036      	beq.n	8005db2 <_svfiprintf_r+0x1d2>
 8005d44:	4b22      	ldr	r3, [pc, #136]	@ (8005dd0 <_svfiprintf_r+0x1f0>)
 8005d46:	bb1b      	cbnz	r3, 8005d90 <_svfiprintf_r+0x1b0>
 8005d48:	9b03      	ldr	r3, [sp, #12]
 8005d4a:	3307      	adds	r3, #7
 8005d4c:	f023 0307 	bic.w	r3, r3, #7
 8005d50:	3308      	adds	r3, #8
 8005d52:	9303      	str	r3, [sp, #12]
 8005d54:	9b09      	ldr	r3, [sp, #36]	@ 0x24
 8005d56:	4433      	add	r3, r6
 8005d58:	9309      	str	r3, [sp, #36]	@ 0x24
 8005d5a:	e76a      	b.n	8005c32 <_svfiprintf_r+0x52>
 8005d5c:	460c      	mov	r4, r1
 8005d5e:	2001      	movs	r0, #1
 8005d60:	fb0c 3202 	mla	r2, ip, r2, r3
 8005d64:	e7a8      	b.n	8005cb8 <_svfiprintf_r+0xd8>
 8005d66:	2300      	movs	r3, #0
 8005d68:	f04f 0c0a 	mov.w	ip, #10
 8005d6c:	4619      	mov	r1, r3
 8005d6e:	3401      	adds	r4, #1
 8005d70:	9305      	str	r3, [sp, #20]
 8005d72:	4620      	mov	r0, r4
 8005d74:	f810 2b01 	ldrb.w	r2, [r0], #1
 8005d78:	3a30      	subs	r2, #48	@ 0x30
 8005d7a:	2a09      	cmp	r2, #9
 8005d7c:	d903      	bls.n	8005d86 <_svfiprintf_r+0x1a6>
 8005d7e:	2b00      	cmp	r3, #0
 8005d80:	d0c6      	beq.n	8005d10 <_svfiprintf_r+0x130>
 8005d82:	9105      	str	r1, [sp, #20]
 8005d84:	e7c4      	b.n	8005d10 <_svfiprintf_r+0x130>
 8005d86:	4604      	mov	r4, r0
 8005d88:	2301      	movs	r3, #1
 8005d8a:	fb0c 2101 	mla	r1, ip, r1, r2
 8005d8e:	e7f0      	b.n	8005d72 <_svfiprintf_r+0x192>
 8005d90:	ab03      	add	r3, sp, #12
 8005d92:	9300      	str	r3, [sp, #0]
 8005d94:	462a      	mov	r2, r5
 8005d96:	4638      	mov	r0, r7
 8005d98:	4b0e      	ldr	r3, [pc, #56]	@ (8005dd4 <_svfiprintf_r+0x1f4>)
 8005d9a:	a904      	add	r1, sp, #16
 8005d9c:	f3af 8000 	nop.w
 8005da0:	1c42      	adds	r2, r0, #1
 8005da2:	4606      	mov	r6, r0
 8005da4:	d1d6      	bne.n	8005d54 <_svfiprintf_r+0x174>
 8005da6:	89ab      	ldrh	r3, [r5, #12]
 8005da8:	065b      	lsls	r3, r3, #25
 8005daa:	f53f af2d 	bmi.w	8005c08 <_svfiprintf_r+0x28>
 8005dae:	9809      	ldr	r0, [sp, #36]	@ 0x24
 8005db0:	e72c      	b.n	8005c0c <_svfiprintf_r+0x2c>
 8005db2:	ab03      	add	r3, sp, #12
 8005db4:	9300      	str	r3, [sp, #0]
 8005db6:	462a      	mov	r2, r5
 8005db8:	4638      	mov	r0, r7
 8005dba:	4b06      	ldr	r3, [pc, #24]	@ (8005dd4 <_svfiprintf_r+0x1f4>)
 8005dbc:	a904      	add	r1, sp, #16
 8005dbe:	f000 f87d 	bl	8005ebc <_printf_i>
 8005dc2:	e7ed      	b.n	8005da0 <_svfiprintf_r+0x1c0>
 8005dc4:	080070f2 	.word	0x080070f2
 8005dc8:	080070f8 	.word	0x080070f8
 8005dcc:	080070fc 	.word	0x080070fc
 8005dd0:	00000000 	.word	0x00000000
 8005dd4:	08005b29 	.word	0x08005b29

08005dd8 <_printf_common>:
 8005dd8:	e92d 47f0 	stmdb	sp!, {r4, r5, r6, r7, r8, r9, sl, lr}
 8005ddc:	4616      	mov	r6, r2
 8005dde:	4698      	mov	r8, r3
 8005de0:	688a      	ldr	r2, [r1, #8]
 8005de2:	690b      	ldr	r3, [r1, #16]
 8005de4:	4607      	mov	r7, r0
 8005de6:	4293      	cmp	r3, r2
 8005de8:	bfb8      	it	lt
 8005dea:	4613      	movlt	r3, r2
 8005dec:	6033      	str	r3, [r6, #0]
 8005dee:	f891 2043 	ldrb.w	r2, [r1, #67]	@ 0x43
 8005df2:	460c      	mov	r4, r1
 8005df4:	f8dd 9020 	ldr.w	r9, [sp, #32]
 8005df8:	b10a      	cbz	r2, 8005dfe <_printf_common+0x26>
 8005dfa:	3301      	adds	r3, #1
 8005dfc:	6033      	str	r3, [r6, #0]
 8005dfe:	6823      	ldr	r3, [r4, #0]
 8005e00:	0699      	lsls	r1, r3, #26
 8005e02:	bf42      	ittt	mi
 8005e04:	6833      	ldrmi	r3, [r6, #0]
 8005e06:	3302      	addmi	r3, #2
 8005e08:	6033      	strmi	r3, [r6, #0]
 8005e0a:	6825      	ldr	r5, [r4, #0]
 8005e0c:	f015 0506 	ands.w	r5, r5, #6
 8005e10:	d106      	bne.n	8005e20 <_printf_common+0x48>
 8005e12:	f104 0a19 	add.w	sl, r4, #25
 8005e16:	68e3      	ldr	r3, [r4, #12]
 8005e18:	6832      	ldr	r2, [r6, #0]
 8005e1a:	1a9b      	subs	r3, r3, r2
 8005e1c:	42ab      	cmp	r3, r5
 8005e1e:	dc2b      	bgt.n	8005e78 <_printf_common+0xa0>
 8005e20:	f894 3043 	ldrb.w	r3, [r4, #67]	@ 0x43
 8005e24:	6822      	ldr	r2, [r4, #0]
 8005e26:	3b00      	subs	r3, #0
 8005e28:	bf18      	it	ne
 8005e2a:	2301      	movne	r3, #1
 8005e2c:	0692      	lsls	r2, r2, #26
 8005e2e:	d430      	bmi.n	8005e92 <_printf_common+0xba>
 8005e30:	4641      	mov	r1, r8
 8005e32:	4638      	mov	r0, r7
 8005e34:	f104 0243 	add.w	r2, r4, #67	@ 0x43
 8005e38:	47c8      	blx	r9
 8005e3a:	3001      	adds	r0, #1
 8005e3c:	d023      	beq.n	8005e86 <_printf_common+0xae>
 8005e3e:	6823      	ldr	r3, [r4, #0]
 8005e40:	6922      	ldr	r2, [r4, #16]
 8005e42:	f003 0306 	and.w	r3, r3, #6
 8005e46:	2b04      	cmp	r3, #4
 8005e48:	bf14      	ite	ne
 8005e4a:	2500      	movne	r5, #0
 8005e4c:	6833      	ldreq	r3, [r6, #0]
 8005e4e:	f04f 0600 	mov.w	r6, #0
 8005e52:	bf08      	it	eq
 8005e54:	68e5      	ldreq	r5, [r4, #12]
 8005e56:	f104 041a 	add.w	r4, r4, #26
 8005e5a:	bf08      	it	eq
 8005e5c:	1aed      	subeq	r5, r5, r3
 8005e5e:	f854 3c12 	ldr.w	r3, [r4, #-18]
 8005e62:	bf08      	it	eq
 8005e64:	ea25 75e5 	biceq.w	r5, r5, r5, asr #31
 8005e68:	4293      	cmp	r3, r2
 8005e6a:	bfc4      	itt	gt
 8005e6c:	1a9b      	subgt	r3, r3, r2
 8005e6e:	18ed      	addgt	r5, r5, r3
 8005e70:	42b5      	cmp	r5, r6
 8005e72:	d11a      	bne.n	8005eaa <_printf_common+0xd2>
 8005e74:	2000      	movs	r0, #0
 8005e76:	e008      	b.n	8005e8a <_printf_common+0xb2>
 8005e78:	2301      	movs	r3, #1
 8005e7a:	4652      	mov	r2, sl
 8005e7c:	4641      	mov	r1, r8
 8005e7e:	4638      	mov	r0, r7
 8005e80:	47c8      	blx	r9
 8005e82:	3001      	adds	r0, #1
 8005e84:	d103      	bne.n	8005e8e <_printf_common+0xb6>
 8005e86:	f04f 30ff 	mov.w	r0, #4294967295	@ 0xffffffff
 8005e8a:	e8bd 87f0 	ldmia.w	sp!, {r4, r5, r6, r7, r8, r9, sl, pc}
 8005e8e:	3501      	adds	r5, #1
 8005e90:	e7c1      	b.n	8005e16 <_printf_common+0x3e>
 8005e92:	2030      	movs	r0, #48	@ 0x30
 8005e94:	18e1      	adds	r1, r4, r3
 8005e96:	f881 0043 	strb.w	r0, [r1, #67]	@ 0x43
 8005e9a:	1c5a      	adds	r2, r3, #1
 8005e9c:	f894 1045 	ldrb.w	r1, [r4, #69]	@ 0x45
 8005ea0:	4422      	add	r2, r4
 8005ea2:	3302      	adds	r3, #2
 8005ea4:	f882 1043 	strb.w	r1, [r2, #67]	@ 0x43
 8005ea8:	e7c2      	b.n	8005e30 <_printf_common+0x58>
 8005eaa:	2301      	movs	r3, #1
 8005eac:	4622      	mov	r2, r4
 8005eae:	4641      	mov	r1, r8
 8005eb0:	4638      	mov	r0, r7
 8005eb2:	47c8      	blx	r9
 8005eb4:	3001      	adds	r0, #1
 8005eb6:	d0e6      	beq.n	8005e86 <_printf_common+0xae>
 8005eb8:	3601      	adds	r6, #1
 8005eba:	e7d9      	b.n	8005e70 <_printf_common+0x98>

08005ebc <_printf_i>:
 8005ebc:	e92d 47ff 	stmdb	sp!, {r0, r1, r2, r3, r4, r5, r6, r7, r8, r9, sl, lr}
 8005ec0:	7e0f      	ldrb	r7, [r1, #24]
 8005ec2:	4691      	mov	r9, r2
 8005ec4:	2f78      	cmp	r7, #120	@ 0x78
 8005ec6:	4680      	mov	r8, r0
 8005ec8:	460c      	mov	r4, r1
 8005eca:	469a      	mov	sl, r3
 8005ecc:	9e0c      	ldr	r6, [sp, #48]	@ 0x30
 8005ece:	f101 0243 	add.w	r2, r1, #67	@ 0x43
 8005ed2:	d807      	bhi.n	8005ee4 <_printf_i+0x28>
 8005ed4:	2f62      	cmp	r7, #98	@ 0x62
 8005ed6:	d80a      	bhi.n	8005eee <_printf_i+0x32>
 8005ed8:	2f00      	cmp	r7, #0
 8005eda:	f000 80d3 	beq.w	8006084 <_printf_i+0x1c8>
 8005ede:	2f58      	cmp	r7, #88	@ 0x58
 8005ee0:	f000 80ba 	beq.w	8006058 <_printf_i+0x19c>
 8005ee4:	f104 0642 	add.w	r6, r4, #66	@ 0x42
 8005ee8:	f884 7042 	strb.w	r7, [r4, #66]	@ 0x42
 8005eec:	e03a      	b.n	8005f64 <_printf_i+0xa8>
 8005eee:	f1a7 0363 	sub.w	r3, r7, #99	@ 0x63
 8005ef2:	2b15      	cmp	r3, #21
 8005ef4:	d8f6      	bhi.n	8005ee4 <_printf_i+0x28>
 8005ef6:	a101      	add	r1, pc, #4	@ (adr r1, 8005efc <_printf_i+0x40>)
 8005ef8:	f851 f023 	ldr.w	pc, [r1, r3, lsl #2]
 8005efc:	08005f55 	.word	0x08005f55
 8005f00:	08005f69 	.word	0x08005f69
 8005f04:	08005ee5 	.word	0x08005ee5
 8005f08:	08005ee5 	.word	0x08005ee5
 8005f0c:	08005ee5 	.word	0x08005ee5
 8005f10:	08005ee5 	.word	0x08005ee5
 8005f14:	08005f69 	.word	0x08005f69
 8005f18:	08005ee5 	.word	0x08005ee5
 8005f1c:	08005ee5 	.word	0x08005ee5
 8005f20:	08005ee5 	.word	0x08005ee5
 8005f24:	08005ee5 	.word	0x08005ee5
 8005f28:	0800606b 	.word	0x0800606b
 8005f2c:	08005f93 	.word	0x08005f93
 8005f30:	08006025 	.word	0x08006025
 8005f34:	08005ee5 	.word	0x08005ee5
 8005f38:	08005ee5 	.word	0x08005ee5
 8005f3c:	0800608d 	.word	0x0800608d
 8005f40:	08005ee5 	.word	0x08005ee5
 8005f44:	08005f93 	.word	0x08005f93
 8005f48:	08005ee5 	.word	0x08005ee5
 8005f4c:	08005ee5 	.word	0x08005ee5
 8005f50:	0800602d 	.word	0x0800602d
 8005f54:	6833      	ldr	r3, [r6, #0]
 8005f56:	1d1a      	adds	r2, r3, #4
 8005f58:	681b      	ldr	r3, [r3, #0]
 8005f5a:	6032      	str	r2, [r6, #0]
 8005f5c:	f104 0642 	add.w	r6, r4, #66	@ 0x42
 8005f60:	f884 3042 	strb.w	r3, [r4, #66]	@ 0x42
 8005f64:	2301      	movs	r3, #1
 8005f66:	e09e      	b.n	80060a6 <_printf_i+0x1ea>
 8005f68:	6833      	ldr	r3, [r6, #0]
 8005f6a:	6820      	ldr	r0, [r4, #0]
 8005f6c:	1d19      	adds	r1, r3, #4
 8005f6e:	6031      	str	r1, [r6, #0]
 8005f70:	0606      	lsls	r6, r0, #24
 8005f72:	d501      	bpl.n	8005f78 <_printf_i+0xbc>
 8005f74:	681d      	ldr	r5, [r3, #0]
 8005f76:	e003      	b.n	8005f80 <_printf_i+0xc4>
 8005f78:	0645      	lsls	r5, r0, #25
 8005f7a:	d5fb      	bpl.n	8005f74 <_printf_i+0xb8>
 8005f7c:	f9b3 5000 	ldrsh.w	r5, [r3]
 8005f80:	2d00      	cmp	r5, #0
 8005f82:	da03      	bge.n	8005f8c <_printf_i+0xd0>
 8005f84:	232d      	movs	r3, #45	@ 0x2d
 8005f86:	426d      	negs	r5, r5
 8005f88:	f884 3043 	strb.w	r3, [r4, #67]	@ 0x43
 8005f8c:	230a      	movs	r3, #10
 8005f8e:	4859      	ldr	r0, [pc, #356]	@ (80060f4 <_printf_i+0x238>)
 8005f90:	e011      	b.n	8005fb6 <_printf_i+0xfa>
 8005f92:	6821      	ldr	r1, [r4, #0]
 8005f94:	6833      	ldr	r3, [r6, #0]
 8005f96:	0608      	lsls	r0, r1, #24
 8005f98:	f853 5b04 	ldr.w	r5, [r3], #4
 8005f9c:	d402      	bmi.n	8005fa4 <_printf_i+0xe8>
 8005f9e:	0649      	lsls	r1, r1, #25
 8005fa0:	bf48      	it	mi
 8005fa2:	b2ad      	uxthmi	r5, r5
 8005fa4:	2f6f      	cmp	r7, #111	@ 0x6f
 8005fa6:	6033      	str	r3, [r6, #0]
 8005fa8:	bf14      	ite	ne
 8005faa:	230a      	movne	r3, #10
 8005fac:	2308      	moveq	r3, #8
 8005fae:	4851      	ldr	r0, [pc, #324]	@ (80060f4 <_printf_i+0x238>)
 8005fb0:	2100      	movs	r1, #0
 8005fb2:	f884 1043 	strb.w	r1, [r4, #67]	@ 0x43
 8005fb6:	6866      	ldr	r6, [r4, #4]
 8005fb8:	2e00      	cmp	r6, #0
 8005fba:	bfa8      	it	ge
 8005fbc:	6821      	ldrge	r1, [r4, #0]
 8005fbe:	60a6      	str	r6, [r4, #8]
 8005fc0:	bfa4      	itt	ge
 8005fc2:	f021 0104 	bicge.w	r1, r1, #4
 8005fc6:	6021      	strge	r1, [r4, #0]
 8005fc8:	b90d      	cbnz	r5, 8005fce <_printf_i+0x112>
 8005fca:	2e00      	cmp	r6, #0
 8005fcc:	d04b      	beq.n	8006066 <_printf_i+0x1aa>
 8005fce:	4616      	mov	r6, r2
 8005fd0:	fbb5 f1f3 	udiv	r1, r5, r3
 8005fd4:	fb03 5711 	mls	r7, r3, r1, r5
 8005fd8:	5dc7      	ldrb	r7, [r0, r7]
 8005fda:	f806 7d01 	strb.w	r7, [r6, #-1]!
 8005fde:	462f      	mov	r7, r5
 8005fe0:	42bb      	cmp	r3, r7
 8005fe2:	460d      	mov	r5, r1
 8005fe4:	d9f4      	bls.n	8005fd0 <_printf_i+0x114>
 8005fe6:	2b08      	cmp	r3, #8
 8005fe8:	d10b      	bne.n	8006002 <_printf_i+0x146>
 8005fea:	6823      	ldr	r3, [r4, #0]
 8005fec:	07df      	lsls	r7, r3, #31
 8005fee:	d508      	bpl.n	8006002 <_printf_i+0x146>
 8005ff0:	6923      	ldr	r3, [r4, #16]
 8005ff2:	6861      	ldr	r1, [r4, #4]
 8005ff4:	4299      	cmp	r1, r3
 8005ff6:	bfde      	ittt	le
 8005ff8:	2330      	movle	r3, #48	@ 0x30
 8005ffa:	f806 3c01 	strble.w	r3, [r6, #-1]
 8005ffe:	f106 36ff 	addle.w	r6, r6, #4294967295	@ 0xffffffff
 8006002:	1b92      	subs	r2, r2, r6
 8006004:	6122      	str	r2, [r4, #16]
 8006006:	464b      	mov	r3, r9
 8006008:	4621      	mov	r1, r4
 800600a:	4640      	mov	r0, r8
 800600c:	f8cd a000 	str.w	sl, [sp]
 8006010:	aa03      	add	r2, sp, #12
 8006012:	f7ff fee1 	bl	8005dd8 <_printf_common>
 8006016:	3001      	adds	r0, #1
 8006018:	d14a      	bne.n	80060b0 <_printf_i+0x1f4>
 800601a:	f04f 30ff 	mov.w	r0, #4294967295	@ 0xffffffff
 800601e:	b004      	add	sp, #16
 8006020:	e8bd 87f0 	ldmia.w	sp!, {r4, r5, r6, r7, r8, r9, sl, pc}
 8006024:	6823      	ldr	r3, [r4, #0]
 8006026:	f043 0320 	orr.w	r3, r3, #32
 800602a:	6023      	str	r3, [r4, #0]
 800602c:	2778      	movs	r7, #120	@ 0x78
 800602e:	4832      	ldr	r0, [pc, #200]	@ (80060f8 <_printf_i+0x23c>)
 8006030:	f884 7045 	strb.w	r7, [r4, #69]	@ 0x45
 8006034:	6823      	ldr	r3, [r4, #0]
 8006036:	6831      	ldr	r1, [r6, #0]
 8006038:	061f      	lsls	r7, r3, #24
 800603a:	f851 5b04 	ldr.w	r5, [r1], #4
 800603e:	d402      	bmi.n	8006046 <_printf_i+0x18a>
 8006040:	065f      	lsls	r7, r3, #25
 8006042:	bf48      	it	mi
 8006044:	b2ad      	uxthmi	r5, r5
 8006046:	6031      	str	r1, [r6, #0]
 8006048:	07d9      	lsls	r1, r3, #31
 800604a:	bf44      	itt	mi
 800604c:	f043 0320 	orrmi.w	r3, r3, #32
 8006050:	6023      	strmi	r3, [r4, #0]
 8006052:	b11d      	cbz	r5, 800605c <_printf_i+0x1a0>
 8006054:	2310      	movs	r3, #16
 8006056:	e7ab      	b.n	8005fb0 <_printf_i+0xf4>
 8006058:	4826      	ldr	r0, [pc, #152]	@ (80060f4 <_printf_i+0x238>)
 800605a:	e7e9      	b.n	8006030 <_printf_i+0x174>
 800605c:	6823      	ldr	r3, [r4, #0]
 800605e:	f023 0320 	bic.w	r3, r3, #32
 8006062:	6023      	str	r3, [r4, #0]
 8006064:	e7f6      	b.n	8006054 <_printf_i+0x198>
 8006066:	4616      	mov	r6, r2
 8006068:	e7bd      	b.n	8005fe6 <_printf_i+0x12a>
 800606a:	6833      	ldr	r3, [r6, #0]
 800606c:	6825      	ldr	r5, [r4, #0]
 800606e:	1d18      	adds	r0, r3, #4
 8006070:	6961      	ldr	r1, [r4, #20]
 8006072:	6030      	str	r0, [r6, #0]
 8006074:	062e      	lsls	r6, r5, #24
 8006076:	681b      	ldr	r3, [r3, #0]
 8006078:	d501      	bpl.n	800607e <_printf_i+0x1c2>
 800607a:	6019      	str	r1, [r3, #0]
 800607c:	e002      	b.n	8006084 <_printf_i+0x1c8>
 800607e:	0668      	lsls	r0, r5, #25
 8006080:	d5fb      	bpl.n	800607a <_printf_i+0x1be>
 8006082:	8019      	strh	r1, [r3, #0]
 8006084:	2300      	movs	r3, #0
 8006086:	4616      	mov	r6, r2
 8006088:	6123      	str	r3, [r4, #16]
 800608a:	e7bc      	b.n	8006006 <_printf_i+0x14a>
 800608c:	6833      	ldr	r3, [r6, #0]
 800608e:	2100      	movs	r1, #0
 8006090:	1d1a      	adds	r2, r3, #4
 8006092:	6032      	str	r2, [r6, #0]
 8006094:	681e      	ldr	r6, [r3, #0]
 8006096:	6862      	ldr	r2, [r4, #4]
 8006098:	4630      	mov	r0, r6
 800609a:	f000 f83f 	bl	800611c <memchr>
 800609e:	b108      	cbz	r0, 80060a4 <_printf_i+0x1e8>
 80060a0:	1b80      	subs	r0, r0, r6
 80060a2:	6060      	str	r0, [r4, #4]
 80060a4:	6863      	ldr	r3, [r4, #4]
 80060a6:	6123      	str	r3, [r4, #16]
 80060a8:	2300      	movs	r3, #0
 80060aa:	f884 3043 	strb.w	r3, [r4, #67]	@ 0x43
 80060ae:	e7aa      	b.n	8006006 <_printf_i+0x14a>
 80060b0:	4632      	mov	r2, r6
 80060b2:	4649      	mov	r1, r9
 80060b4:	4640      	mov	r0, r8
 80060b6:	6923      	ldr	r3, [r4, #16]
 80060b8:	47d0      	blx	sl
 80060ba:	3001      	adds	r0, #1
 80060bc:	d0ad      	beq.n	800601a <_printf_i+0x15e>
 80060be:	6823      	ldr	r3, [r4, #0]
 80060c0:	079b      	lsls	r3, r3, #30
 80060c2:	d413      	bmi.n	80060ec <_printf_i+0x230>
 80060c4:	68e0      	ldr	r0, [r4, #12]
 80060c6:	9b03      	ldr	r3, [sp, #12]
 80060c8:	4298      	cmp	r0, r3
 80060ca:	bfb8      	it	lt
 80060cc:	4618      	movlt	r0, r3
 80060ce:	e7a6      	b.n	800601e <_printf_i+0x162>
 80060d0:	2301      	movs	r3, #1
 80060d2:	4632      	mov	r2, r6
 80060d4:	4649      	mov	r1, r9
 80060d6:	4640      	mov	r0, r8
 80060d8:	47d0      	blx	sl
 80060da:	3001      	adds	r0, #1
 80060dc:	d09d      	beq.n	800601a <_printf_i+0x15e>
 80060de:	3501      	adds	r5, #1
 80060e0:	68e3      	ldr	r3, [r4, #12]
 80060e2:	9903      	ldr	r1, [sp, #12]
 80060e4:	1a5b      	subs	r3, r3, r1
 80060e6:	42ab      	cmp	r3, r5
 80060e8:	dcf2      	bgt.n	80060d0 <_printf_i+0x214>
 80060ea:	e7eb      	b.n	80060c4 <_printf_i+0x208>
 80060ec:	2500      	movs	r5, #0
 80060ee:	f104 0619 	add.w	r6, r4, #25
 80060f2:	e7f5      	b.n	80060e0 <_printf_i+0x224>
 80060f4:	08007103 	.word	0x08007103
 80060f8:	08007114 	.word	0x08007114

080060fc <_sbrk_r>:
 80060fc:	b538      	push	{r3, r4, r5, lr}
 80060fe:	2300      	movs	r3, #0
 8006100:	4d05      	ldr	r5, [pc, #20]	@ (8006118 <_sbrk_r+0x1c>)
 8006102:	4604      	mov	r4, r0
 8006104:	4608      	mov	r0, r1
 8006106:	602b      	str	r3, [r5, #0]
 8006108:	f7fb fb30 	bl	800176c <_sbrk>
 800610c:	1c43      	adds	r3, r0, #1
 800610e:	d102      	bne.n	8006116 <_sbrk_r+0x1a>
 8006110:	682b      	ldr	r3, [r5, #0]
 8006112:	b103      	cbz	r3, 8006116 <_sbrk_r+0x1a>
 8006114:	6023      	str	r3, [r4, #0]
 8006116:	bd38      	pop	{r3, r4, r5, pc}
 8006118:	200021a8 	.word	0x200021a8

0800611c <memchr>:
 800611c:	4603      	mov	r3, r0
 800611e:	b510      	push	{r4, lr}
 8006120:	b2c9      	uxtb	r1, r1
 8006122:	4402      	add	r2, r0
 8006124:	4293      	cmp	r3, r2
 8006126:	4618      	mov	r0, r3
 8006128:	d101      	bne.n	800612e <memchr+0x12>
 800612a:	2000      	movs	r0, #0
 800612c:	e003      	b.n	8006136 <memchr+0x1a>
 800612e:	7804      	ldrb	r4, [r0, #0]
 8006130:	3301      	adds	r3, #1
 8006132:	428c      	cmp	r4, r1
 8006134:	d1f6      	bne.n	8006124 <memchr+0x8>
 8006136:	bd10      	pop	{r4, pc}

08006138 <_realloc_r>:
 8006138:	e92d 41f0 	stmdb	sp!, {r4, r5, r6, r7, r8, lr}
 800613c:	4680      	mov	r8, r0
 800613e:	4615      	mov	r5, r2
 8006140:	460c      	mov	r4, r1
 8006142:	b921      	cbnz	r1, 800614e <_realloc_r+0x16>
 8006144:	4611      	mov	r1, r2
 8006146:	e8bd 41f0 	ldmia.w	sp!, {r4, r5, r6, r7, r8, lr}
 800614a:	f7ff bc61 	b.w	8005a10 <_malloc_r>
 800614e:	b92a      	cbnz	r2, 800615c <_realloc_r+0x24>
 8006150:	f7ff fbf4 	bl	800593c <_free_r>
 8006154:	2400      	movs	r4, #0
 8006156:	4620      	mov	r0, r4
 8006158:	e8bd 81f0 	ldmia.w	sp!, {r4, r5, r6, r7, r8, pc}
 800615c:	f000 f81a 	bl	8006194 <_malloc_usable_size_r>
 8006160:	4285      	cmp	r5, r0
 8006162:	4606      	mov	r6, r0
 8006164:	d802      	bhi.n	800616c <_realloc_r+0x34>
 8006166:	ebb5 0f50 	cmp.w	r5, r0, lsr #1
 800616a:	d8f4      	bhi.n	8006156 <_realloc_r+0x1e>
 800616c:	4629      	mov	r1, r5
 800616e:	4640      	mov	r0, r8
 8006170:	f7ff fc4e 	bl	8005a10 <_malloc_r>
 8006174:	4607      	mov	r7, r0
 8006176:	2800      	cmp	r0, #0
 8006178:	d0ec      	beq.n	8006154 <_realloc_r+0x1c>
 800617a:	42b5      	cmp	r5, r6
 800617c:	462a      	mov	r2, r5
 800617e:	4621      	mov	r1, r4
 8006180:	bf28      	it	cs
 8006182:	4632      	movcs	r2, r6
 8006184:	f7ff fbcc 	bl	8005920 <memcpy>
 8006188:	4621      	mov	r1, r4
 800618a:	4640      	mov	r0, r8
 800618c:	f7ff fbd6 	bl	800593c <_free_r>
 8006190:	463c      	mov	r4, r7
 8006192:	e7e0      	b.n	8006156 <_realloc_r+0x1e>

08006194 <_malloc_usable_size_r>:
 8006194:	f851 3c04 	ldr.w	r3, [r1, #-4]
 8006198:	1f18      	subs	r0, r3, #4
 800619a:	2b00      	cmp	r3, #0
 800619c:	bfbc      	itt	lt
 800619e:	580b      	ldrlt	r3, [r1, r0]
 80061a0:	18c0      	addlt	r0, r0, r3
 80061a2:	4770      	bx	lr

080061a4 <_init>:
 80061a4:	b5f8      	push	{r3, r4, r5, r6, r7, lr}
 80061a6:	bf00      	nop
 80061a8:	bcf8      	pop	{r3, r4, r5, r6, r7}
 80061aa:	bc08      	pop	{r3}
 80061ac:	469e      	mov	lr, r3
 80061ae:	4770      	bx	lr

080061b0 <_fini>:
 80061b0:	b5f8      	push	{r3, r4, r5, r6, r7, lr}
 80061b2:	bf00      	nop
 80061b4:	bcf8      	pop	{r3, r4, r5, r6, r7}
 80061b6:	bc08      	pop	{r3}
 80061b8:	469e      	mov	lr, r3
 80061ba:	4770      	bx	lr
